
01_DC_Motor.elf:     file format elf32-littlearm

Sections:
Idx Name          Size      VMA       LMA       File off  Algn
  0 .isr_vector   000000b4  08000000  08000000  00001000  2**2
                  CONTENTS, ALLOC, LOAD, READONLY, DATA
  1 .text         00006288  080000c0  080000c0  000010c0  2**4
                  CONTENTS, ALLOC, LOAD, READONLY, CODE
  2 .rodata       00000bcc  08006348  08006348  00007348  2**3
                  CONTENTS, ALLOC, LOAD, READONLY, DATA
  3 .ARM.extab    00000000  08006f14  08006f14  000081d8  2**0
                  CONTENTS, READONLY
  4 .ARM          00000008  08006f14  08006f14  00007f14  2**2
                  CONTENTS, ALLOC, LOAD, READONLY, DATA
  5 .preinit_array 00000000  08006f1c  08006f1c  000081d8  2**0
                  CONTENTS, ALLOC, LOAD, DATA
  6 .init_array   00000004  08006f1c  08006f1c  00007f1c  2**2
                  CONTENTS, ALLOC, LOAD, READONLY, DATA
  7 .fini_array   00000004  08006f20  08006f20  00007f20  2**2
                  CONTENTS, ALLOC, LOAD, READONLY, DATA
  8 .data         000001d8  20000000  08006f24  00008000  2**2
                  CONTENTS, ALLOC, LOAD, DATA
  9 .bss          00000348  200001d8  080070fc  000081d8  2**3
                  ALLOC
 10 ._user_heap_stack 00000600  20000520  080070fc  00008520  2**0
                  ALLOC
 11 .ARM.attributes 0000002e  00000000  00000000  000081d8  2**0
                  CONTENTS, READONLY
 12 .debug_info   00003da4  00000000  00000000  00008206  2**0
                  CONTENTS, READONLY, DEBUGGING, OCTETS
 13 .debug_abbrev 000010f2  00000000  00000000  0000bfaa  2**0
                  CONTENTS, READONLY, DEBUGGING, OCTETS
 14 .debug_aranges 00000398  00000000  00000000  0000d09c  2**0
                  CONTENTS, READONLY, DEBUGGING, OCTETS
 15 .debug_rnglists 00000275  00000000  00000000  0000d434  2**0
                  CONTENTS, READONLY, DEBUGGING, OCTETS
 16 .debug_macro  000285c2  00000000  00000000  0000d6a9  2**0
                  CONTENTS, READONLY, DEBUGGING, OCTETS
 17 .debug_line   00005a78  00000000  00000000  00035c6b  2**0
                  CONTENTS, READONLY, DEBUGGING, OCTETS
 18 .debug_str    000f7391  00000000  00000000  0003b6e3  2**0
                  CONTENTS, READONLY, DEBUGGING, OCTETS
 19 .comment      00000043  00000000  00000000  00132a74  2**0
                  CONTENTS, READONLY
 20 .debug_frame  00001e7c  00000000  00000000  00132ab8  2**2
                  CONTENTS, READONLY, DEBUGGING, OCTETS

Disassembly of section .text:

080000c0 <__do_global_dtors_aux>:
 80000c0:	b510      	push	{r4, lr}
 80000c2:	4c05      	ldr	r4, [pc, #20]	@ (80000d8 <__do_global_dtors_aux+0x18>)
 80000c4:	7823      	ldrb	r3, [r4, #0]
 80000c6:	b933      	cbnz	r3, 80000d6 <__do_global_dtors_aux+0x16>
 80000c8:	4b04      	ldr	r3, [pc, #16]	@ (80000dc <__do_global_dtors_aux+0x1c>)
 80000ca:	b113      	cbz	r3, 80000d2 <__do_global_dtors_aux+0x12>
 80000cc:	4804      	ldr	r0, [pc, #16]	@ (80000e0 <__do_global_dtors_aux+0x20>)
 80000ce:	f3af 8000 	nop.w
 80000d2:	2301      	movs	r3, #1
 80000d4:	7023      	strb	r3, [r4, #0]
 80000d6:	bd10      	pop	{r4, pc}
 80000d8:	200001d8 	.word	0x200001d8
 80000dc:	00000000 	.word	0x00000000
 80000e0:	08006330 	.word	0x08006330

080000e4 <frame_dummy>:
 80000e4:	b508      	push	{r3, lr}
 80000e6:	4b03      	ldr	r3, [pc, #12]	@ (80000f4 <frame_dummy+0x10>)
 80000e8:	b11b      	cbz	r3, 80000f2 <frame_dummy+0xe>
 80000ea:	4903      	ldr	r1, [pc, #12]	@ (80000f8 <frame_dummy+0x14>)
 80000ec:	4803      	ldr	r0, [pc, #12]	@ (80000fc <frame_dummy+0x18>)
 80000ee:	f3af 8000 	nop.w
 80000f2:	bd08      	pop	{r3, pc}
 80000f4:	00000000 	.word	0x00000000
 80000f8:	200001dc 	.word	0x200001dc
 80000fc:	08006330 	.word	0x08006330

08000100 <memchr>:
 8000100:	f001 01ff 	and.w	r1, r1, #255	@ 0xff
 8000104:	2a10      	cmp	r2, #16
 8000106:	db2b      	blt.n	8000160 <memchr+0x60>
 8000108:	f010 0f07 	tst.w	r0, #7
 800010c:	d008      	beq.n	8000120 <memchr+0x20>
 800010e:	f810 3b01 	ldrb.w	r3, [r0], #1
 8000112:	3a01      	subs	r2, #1
 8000114:	428b      	cmp	r3, r1
 8000116:	d02d      	beq.n	8000174 <memchr+0x74>
 8000118:	f010 0f07 	tst.w	r0, #7
 800011c:	b342      	cbz	r2, 8000170 <memchr+0x70>
 800011e:	d1f6      	bne.n	800010e <memchr+0xe>
 8000120:	b4f0      	push	{r4, r5, r6, r7}
 8000122:	ea41 2101 	orr.w	r1, r1, r1, lsl #8
 8000126:	ea41 4101 	orr.w	r1, r1, r1, lsl #16
 800012a:	f022 0407 	bic.w	r4, r2, #7
 800012e:	f07f 0700 	mvns.w	r7, #0
 8000132:	2300      	movs	r3, #0
 8000134:	e8f0 5602 	ldrd	r5, r6, [r0], #8
 8000138:	3c08      	subs	r4, #8
 800013a:	ea85 0501 	eor.w	r5, r5, r1
 800013e:	ea86 0601 	eor.w	r6, r6, r1
 8000142:	fa85 f547 	uadd8	r5, r5, r7
 8000146:	faa3 f587 	sel	r5, r3, r7
 800014a:	fa86 f647 	uadd8	r6, r6, r7
 800014e:	faa5 f687 	sel	r6, r5, r7
 8000152:	b98e      	cbnz	r6, 8000178 <memchr+0x78>
 8000154:	d1ee      	bne.n	8000134 <memchr+0x34>
 8000156:	bcf0      	pop	{r4, r5, r6, r7}
 8000158:	f001 01ff 	and.w	r1, r1, #255	@ 0xff
 800015c:	f002 0207 	and.w	r2, r2, #7
 8000160:	b132      	cbz	r2, 8000170 <memchr+0x70>
 8000162:	f810 3b01 	ldrb.w	r3, [r0], #1
 8000166:	3a01      	subs	r2, #1
 8000168:	ea83 0301 	eor.w	r3, r3, r1
 800016c:	b113      	cbz	r3, 8000174 <memchr+0x74>
 800016e:	d1f8      	bne.n	8000162 <memchr+0x62>
 8000170:	2000      	movs	r0, #0
 8000172:	4770      	bx	lr
 8000174:	3801      	subs	r0, #1
 8000176:	4770      	bx	lr
 8000178:	2d00      	cmp	r5, #0
 800017a:	bf06      	itte	eq
 800017c:	4635      	moveq	r5, r6
 800017e:	3803      	subeq	r0, #3
 8000180:	3807      	subne	r0, #7
 8000182:	f015 0f01 	tst.w	r5, #1
 8000186:	d107      	bne.n	8000198 <memchr+0x98>
 8000188:	3001      	adds	r0, #1
 800018a:	f415 7f80 	tst.w	r5, #256	@ 0x100
 800018e:	bf02      	ittt	eq
 8000190:	3001      	addeq	r0, #1
 8000192:	f415 3fc0 	tsteq.w	r5, #98304	@ 0x18000
 8000196:	3001      	addeq	r0, #1
 8000198:	bcf0      	pop	{r4, r5, r6, r7}
 800019a:	3801      	subs	r0, #1
 800019c:	4770      	bx	lr
 800019e:	bf00      	nop

080001a0 <strlen>:
 80001a0:	4603      	mov	r3, r0
 80001a2:	f813 2b01 	ldrb.w	r2, [r3], #1
 80001a6:	2a00      	cmp	r2, #0
 80001a8:	d1fb      	bne.n	80001a2 <strlen+0x2>
 80001aa:	1a18      	subs	r0, r3, r0
 80001ac:	3801      	subs	r0, #1
 80001ae:	4770      	bx	lr

080001b0 <__aeabi_drsub>:
 80001b0:	f081 4100 	eor.w	r1, r1, #2147483648	@ 0x80000000
 80001b4:	e002      	b.n	80001bc <__adddf3>
 80001b6:	bf00      	nop

080001b8 <__aeabi_dsub>:
 80001b8:	f083 4300 	eor.w	r3, r3, #2147483648	@ 0x80000000

080001bc <__adddf3>:
 80001bc:	b530      	push	{r4, r5, lr}
 80001be:	ea4f 0441 	mov.w	r4, r1, lsl #1
 80001c2:	ea4f 0543 	mov.w	r5, r3, lsl #1
 80001c6:	ea94 0f05 	teq	r4, r5
 80001ca:	bf08      	it	eq
 80001cc:	ea90 0f02 	teqeq	r0, r2
 80001d0:	bf1f      	itttt	ne
 80001d2:	ea54 0c00 	orrsne.w	ip, r4, r0
 80001d6:	ea55 0c02 	orrsne.w	ip, r5, r2
 80001da:	ea7f 5c64 	mvnsne.w	ip, r4, asr #21
 80001de:	ea7f 5c65 	mvnsne.w	ip, r5, asr #21
 80001e2:	f000 80e2 	beq.w	80003aa <__adddf3+0x1ee>
 80001e6:	ea4f 5454 	mov.w	r4, r4, lsr #21
 80001ea:	ebd4 5555 	rsbs	r5, r4, r5, lsr #21
 80001ee:	bfb8      	it	lt
 80001f0:	426d      	neglt	r5, r5
 80001f2:	dd0c      	ble.n	800020e <__adddf3+0x52>
 80001f4:	442c      	add	r4, r5
 80001f6:	ea80 0202 	eor.w	r2, r0, r2
 80001fa:	ea81 0303 	eor.w	r3, r1, r3
 80001fe:	ea82 0000 	eor.w	r0, r2, r0
 8000202:	ea83 0101 	eor.w	r1, r3, r1
 8000206:	ea80 0202 	eor.w	r2, r0, r2
 800020a:	ea81 0303 	eor.w	r3, r1, r3
 800020e:	2d36      	cmp	r5, #54	@ 0x36
 8000210:	bf88      	it	hi
 8000212:	bd30      	pophi	{r4, r5, pc}
 8000214:	f011 4f00 	tst.w	r1, #2147483648	@ 0x80000000
 8000218:	ea4f 3101 	mov.w	r1, r1, lsl #12
 800021c:	f44f 1c80 	mov.w	ip, #1048576	@ 0x100000
 8000220:	ea4c 3111 	orr.w	r1, ip, r1, lsr #12
 8000224:	d002      	beq.n	800022c <__adddf3+0x70>
 8000226:	4240      	negs	r0, r0
 8000228:	eb61 0141 	sbc.w	r1, r1, r1, lsl #1
 800022c:	f013 4f00 	tst.w	r3, #2147483648	@ 0x80000000
 8000230:	ea4f 3303 	mov.w	r3, r3, lsl #12
 8000234:	ea4c 3313 	orr.w	r3, ip, r3, lsr #12
 8000238:	d002      	beq.n	8000240 <__adddf3+0x84>
 800023a:	4252      	negs	r2, r2
 800023c:	eb63 0343 	sbc.w	r3, r3, r3, lsl #1
 8000240:	ea94 0f05 	teq	r4, r5
 8000244:	f000 80a7 	beq.w	8000396 <__adddf3+0x1da>
 8000248:	f1a4 0401 	sub.w	r4, r4, #1
 800024c:	f1d5 0e20 	rsbs	lr, r5, #32
 8000250:	db0d      	blt.n	800026e <__adddf3+0xb2>
 8000252:	fa02 fc0e 	lsl.w	ip, r2, lr
 8000256:	fa22 f205 	lsr.w	r2, r2, r5
 800025a:	1880      	adds	r0, r0, r2
 800025c:	f141 0100 	adc.w	r1, r1, #0
 8000260:	fa03 f20e 	lsl.w	r2, r3, lr
 8000264:	1880      	adds	r0, r0, r2
 8000266:	fa43 f305 	asr.w	r3, r3, r5
 800026a:	4159      	adcs	r1, r3
 800026c:	e00e      	b.n	800028c <__adddf3+0xd0>
 800026e:	f1a5 0520 	sub.w	r5, r5, #32
 8000272:	f10e 0e20 	add.w	lr, lr, #32
 8000276:	2a01      	cmp	r2, #1
 8000278:	fa03 fc0e 	lsl.w	ip, r3, lr
 800027c:	bf28      	it	cs
 800027e:	f04c 0c02 	orrcs.w	ip, ip, #2
 8000282:	fa43 f305 	asr.w	r3, r3, r5
 8000286:	18c0      	adds	r0, r0, r3
 8000288:	eb51 71e3 	adcs.w	r1, r1, r3, asr #31
 800028c:	f001 4500 	and.w	r5, r1, #2147483648	@ 0x80000000
 8000290:	d507      	bpl.n	80002a2 <__adddf3+0xe6>
 8000292:	f04f 0e00 	mov.w	lr, #0
 8000296:	f1dc 0c00 	rsbs	ip, ip, #0
 800029a:	eb7e 0000 	sbcs.w	r0, lr, r0
 800029e:	eb6e 0101 	sbc.w	r1, lr, r1
 80002a2:	f5b1 1f80 	cmp.w	r1, #1048576	@ 0x100000
 80002a6:	d31b      	bcc.n	80002e0 <__adddf3+0x124>
 80002a8:	f5b1 1f00 	cmp.w	r1, #2097152	@ 0x200000
 80002ac:	d30c      	bcc.n	80002c8 <__adddf3+0x10c>
 80002ae:	0849      	lsrs	r1, r1, #1
 80002b0:	ea5f 0030 	movs.w	r0, r0, rrx
 80002b4:	ea4f 0c3c 	mov.w	ip, ip, rrx
 80002b8:	f104 0401 	add.w	r4, r4, #1
 80002bc:	ea4f 5244 	mov.w	r2, r4, lsl #21
 80002c0:	f512 0f80 	cmn.w	r2, #4194304	@ 0x400000
 80002c4:	f080 809a 	bcs.w	80003fc <__adddf3+0x240>
 80002c8:	f1bc 4f00 	cmp.w	ip, #2147483648	@ 0x80000000
 80002cc:	bf08      	it	eq
 80002ce:	ea5f 0c50 	movseq.w	ip, r0, lsr #1
 80002d2:	f150 0000 	adcs.w	r0, r0, #0
 80002d6:	eb41 5104 	adc.w	r1, r1, r4, lsl #20
 80002da:	ea41 0105 	orr.w	r1, r1, r5
 80002de:	bd30      	pop	{r4, r5, pc}
 80002e0:	ea5f 0c4c 	movs.w	ip, ip, lsl #1
 80002e4:	4140      	adcs	r0, r0
 80002e6:	eb41 0101 	adc.w	r1, r1, r1
 80002ea:	3c01      	subs	r4, #1
 80002ec:	bf28      	it	cs
 80002ee:	f5b1 1f80 	cmpcs.w	r1, #1048576	@ 0x100000
 80002f2:	d2e9      	bcs.n	80002c8 <__adddf3+0x10c>
 80002f4:	f091 0f00 	teq	r1, #0
 80002f8:	bf04      	itt	eq
 80002fa:	4601      	moveq	r1, r0
 80002fc:	2000      	moveq	r0, #0
 80002fe:	fab1 f381 	clz	r3, r1
 8000302:	bf08      	it	eq
 8000304:	3320      	addeq	r3, #32
 8000306:	f1a3 030b 	sub.w	r3, r3, #11
 800030a:	f1b3 0220 	subs.w	r2, r3, #32
 800030e:	da0c      	bge.n	800032a <__adddf3+0x16e>
 8000310:	320c      	adds	r2, #12
 8000312:	dd08      	ble.n	8000326 <__adddf3+0x16a>
 8000314:	f102 0c14 	add.w	ip, r2, #20
 8000318:	f1c2 020c 	rsb	r2, r2, #12
 800031c:	fa01 f00c 	lsl.w	r0, r1, ip
 8000320:	fa21 f102 	lsr.w	r1, r1, r2
 8000324:	e00c      	b.n	8000340 <__adddf3+0x184>
 8000326:	f102 0214 	add.w	r2, r2, #20
 800032a:	bfd8      	it	le
 800032c:	f1c2 0c20 	rsble	ip, r2, #32
 8000330:	fa01 f102 	lsl.w	r1, r1, r2
 8000334:	fa20 fc0c 	lsr.w	ip, r0, ip
 8000338:	bfdc      	itt	le
 800033a:	ea41 010c 	orrle.w	r1, r1, ip
 800033e:	4090      	lslle	r0, r2
 8000340:	1ae4      	subs	r4, r4, r3
 8000342:	bfa2      	ittt	ge
 8000344:	eb01 5104 	addge.w	r1, r1, r4, lsl #20
 8000348:	4329      	orrge	r1, r5
 800034a:	bd30      	popge	{r4, r5, pc}
 800034c:	ea6f 0404 	mvn.w	r4, r4
 8000350:	3c1f      	subs	r4, #31
 8000352:	da1c      	bge.n	800038e <__adddf3+0x1d2>
 8000354:	340c      	adds	r4, #12
 8000356:	dc0e      	bgt.n	8000376 <__adddf3+0x1ba>
 8000358:	f104 0414 	add.w	r4, r4, #20
 800035c:	f1c4 0220 	rsb	r2, r4, #32
 8000360:	fa20 f004 	lsr.w	r0, r0, r4
 8000364:	fa01 f302 	lsl.w	r3, r1, r2
 8000368:	ea40 0003 	orr.w	r0, r0, r3
 800036c:	fa21 f304 	lsr.w	r3, r1, r4
 8000370:	ea45 0103 	orr.w	r1, r5, r3
 8000374:	bd30      	pop	{r4, r5, pc}
 8000376:	f1c4 040c 	rsb	r4, r4, #12
 800037a:	f1c4 0220 	rsb	r2, r4, #32
 800037e:	fa20 f002 	lsr.w	r0, r0, r2
 8000382:	fa01 f304 	lsl.w	r3, r1, r4
 8000386:	ea40 0003 	orr.w	r0, r0, r3
 800038a:	4629      	mov	r1, r5
 800038c:	bd30      	pop	{r4, r5, pc}
 800038e:	fa21 f004 	lsr.w	r0, r1, r4
 8000392:	4629      	mov	r1, r5
 8000394:	bd30      	pop	{r4, r5, pc}
 8000396:	f094 0f00 	teq	r4, #0
 800039a:	f483 1380 	eor.w	r3, r3, #1048576	@ 0x100000
 800039e:	bf06      	itte	eq
 80003a0:	f481 1180 	eoreq.w	r1, r1, #1048576	@ 0x100000
 80003a4:	3401      	addeq	r4, #1
 80003a6:	3d01      	subne	r5, #1
 80003a8:	e74e      	b.n	8000248 <__adddf3+0x8c>
 80003aa:	ea7f 5c64 	mvns.w	ip, r4, asr #21
 80003ae:	bf18      	it	ne
 80003b0:	ea7f 5c65 	mvnsne.w	ip, r5, asr #21
 80003b4:	d029      	beq.n	800040a <__adddf3+0x24e>
 80003b6:	ea94 0f05 	teq	r4, r5
 80003ba:	bf08      	it	eq
 80003bc:	ea90 0f02 	teqeq	r0, r2
 80003c0:	d005      	beq.n	80003ce <__adddf3+0x212>
 80003c2:	ea54 0c00 	orrs.w	ip, r4, r0
 80003c6:	bf04      	itt	eq
 80003c8:	4619      	moveq	r1, r3
 80003ca:	4610      	moveq	r0, r2
 80003cc:	bd30      	pop	{r4, r5, pc}
 80003ce:	ea91 0f03 	teq	r1, r3
 80003d2:	bf1e      	ittt	ne
 80003d4:	2100      	movne	r1, #0
 80003d6:	2000      	movne	r0, #0
 80003d8:	bd30      	popne	{r4, r5, pc}
 80003da:	ea5f 5c54 	movs.w	ip, r4, lsr #21
 80003de:	d105      	bne.n	80003ec <__adddf3+0x230>
 80003e0:	0040      	lsls	r0, r0, #1
 80003e2:	4149      	adcs	r1, r1
 80003e4:	bf28      	it	cs
 80003e6:	f041 4100 	orrcs.w	r1, r1, #2147483648	@ 0x80000000
 80003ea:	bd30      	pop	{r4, r5, pc}
 80003ec:	f514 0480 	adds.w	r4, r4, #4194304	@ 0x400000
 80003f0:	bf3c      	itt	cc
 80003f2:	f501 1180 	addcc.w	r1, r1, #1048576	@ 0x100000
 80003f6:	bd30      	popcc	{r4, r5, pc}
 80003f8:	f001 4500 	and.w	r5, r1, #2147483648	@ 0x80000000
 80003fc:	f045 41fe 	orr.w	r1, r5, #2130706432	@ 0x7f000000
 8000400:	f441 0170 	orr.w	r1, r1, #15728640	@ 0xf00000
 8000404:	f04f 0000 	mov.w	r0, #0
 8000408:	bd30      	pop	{r4, r5, pc}
 800040a:	ea7f 5c64 	mvns.w	ip, r4, asr #21
 800040e:	bf1a      	itte	ne
 8000410:	4619      	movne	r1, r3
 8000412:	4610      	movne	r0, r2
 8000414:	ea7f 5c65 	mvnseq.w	ip, r5, asr #21
 8000418:	bf1c      	itt	ne
 800041a:	460b      	movne	r3, r1
 800041c:	4602      	movne	r2, r0
 800041e:	ea50 3401 	orrs.w	r4, r0, r1, lsl #12
 8000422:	bf06      	itte	eq
 8000424:	ea52 3503 	orrseq.w	r5, r2, r3, lsl #12
 8000428:	ea91 0f03 	teqeq	r1, r3
 800042c:	f441 2100 	orrne.w	r1, r1, #524288	@ 0x80000
 8000430:	bd30      	pop	{r4, r5, pc}
 8000432:	bf00      	nop

08000434 <__aeabi_ui2d>:
 8000434:	f090 0f00 	teq	r0, #0
 8000438:	bf04      	itt	eq
 800043a:	2100      	moveq	r1, #0
 800043c:	4770      	bxeq	lr
 800043e:	b530      	push	{r4, r5, lr}
 8000440:	f44f 6480 	mov.w	r4, #1024	@ 0x400
 8000444:	f104 0432 	add.w	r4, r4, #50	@ 0x32
 8000448:	f04f 0500 	mov.w	r5, #0
 800044c:	f04f 0100 	mov.w	r1, #0
 8000450:	e750      	b.n	80002f4 <__adddf3+0x138>
 8000452:	bf00      	nop

08000454 <__aeabi_i2d>:
 8000454:	f090 0f00 	teq	r0, #0
 8000458:	bf04      	itt	eq
 800045a:	2100      	moveq	r1, #0
 800045c:	4770      	bxeq	lr
 800045e:	b530      	push	{r4, r5, lr}
 8000460:	f44f 6480 	mov.w	r4, #1024	@ 0x400
 8000464:	f104 0432 	add.w	r4, r4, #50	@ 0x32
 8000468:	f010 4500 	ands.w	r5, r0, #2147483648	@ 0x80000000
 800046c:	bf48      	it	mi
 800046e:	4240      	negmi	r0, r0
 8000470:	f04f 0100 	mov.w	r1, #0
 8000474:	e73e      	b.n	80002f4 <__adddf3+0x138>
 8000476:	bf00      	nop

08000478 <__aeabi_f2d>:
 8000478:	0042      	lsls	r2, r0, #1
 800047a:	ea4f 01e2 	mov.w	r1, r2, asr #3
 800047e:	ea4f 0131 	mov.w	r1, r1, rrx
 8000482:	ea4f 7002 	mov.w	r0, r2, lsl #28
 8000486:	bf1f      	itttt	ne
 8000488:	f012 437f 	andsne.w	r3, r2, #4278190080	@ 0xff000000
 800048c:	f093 4f7f 	teqne	r3, #4278190080	@ 0xff000000
 8000490:	f081 5160 	eorne.w	r1, r1, #939524096	@ 0x38000000
 8000494:	4770      	bxne	lr
 8000496:	f032 427f 	bics.w	r2, r2, #4278190080	@ 0xff000000
 800049a:	bf08      	it	eq
 800049c:	4770      	bxeq	lr
 800049e:	f093 4f7f 	teq	r3, #4278190080	@ 0xff000000
 80004a2:	bf04      	itt	eq
 80004a4:	f441 2100 	orreq.w	r1, r1, #524288	@ 0x80000
 80004a8:	4770      	bxeq	lr
 80004aa:	b530      	push	{r4, r5, lr}
 80004ac:	f44f 7460 	mov.w	r4, #896	@ 0x380
 80004b0:	f001 4500 	and.w	r5, r1, #2147483648	@ 0x80000000
 80004b4:	f021 4100 	bic.w	r1, r1, #2147483648	@ 0x80000000
 80004b8:	e71c      	b.n	80002f4 <__adddf3+0x138>
 80004ba:	bf00      	nop

080004bc <__aeabi_ul2d>:
 80004bc:	ea50 0201 	orrs.w	r2, r0, r1
 80004c0:	bf08      	it	eq
 80004c2:	4770      	bxeq	lr
 80004c4:	b530      	push	{r4, r5, lr}
 80004c6:	f04f 0500 	mov.w	r5, #0
 80004ca:	e00a      	b.n	80004e2 <__aeabi_l2d+0x16>

080004cc <__aeabi_l2d>:
 80004cc:	ea50 0201 	orrs.w	r2, r0, r1
 80004d0:	bf08      	it	eq
 80004d2:	4770      	bxeq	lr
 80004d4:	b530      	push	{r4, r5, lr}
 80004d6:	f011 4500 	ands.w	r5, r1, #2147483648	@ 0x80000000
 80004da:	d502      	bpl.n	80004e2 <__aeabi_l2d+0x16>
 80004dc:	4240      	negs	r0, r0
 80004de:	eb61 0141 	sbc.w	r1, r1, r1, lsl #1
 80004e2:	f44f 6480 	mov.w	r4, #1024	@ 0x400
 80004e6:	f104 0432 	add.w	r4, r4, #50	@ 0x32
 80004ea:	ea5f 5c91 	movs.w	ip, r1, lsr #22
 80004ee:	f43f aed8 	beq.w	80002a2 <__adddf3+0xe6>
 80004f2:	f04f 0203 	mov.w	r2, #3
 80004f6:	ea5f 0cdc 	movs.w	ip, ip, lsr #3
 80004fa:	bf18      	it	ne
 80004fc:	3203      	addne	r2, #3
 80004fe:	ea5f 0cdc 	movs.w	ip, ip, lsr #3
 8000502:	bf18      	it	ne
 8000504:	3203      	addne	r2, #3
 8000506:	eb02 02dc 	add.w	r2, r2, ip, lsr #3
 800050a:	f1c2 0320 	rsb	r3, r2, #32
 800050e:	fa00 fc03 	lsl.w	ip, r0, r3
 8000512:	fa20 f002 	lsr.w	r0, r0, r2
 8000516:	fa01 fe03 	lsl.w	lr, r1, r3
 800051a:	ea40 000e 	orr.w	r0, r0, lr
 800051e:	fa21 f102 	lsr.w	r1, r1, r2
 8000522:	4414      	add	r4, r2
 8000524:	e6bd      	b.n	80002a2 <__adddf3+0xe6>
 8000526:	bf00      	nop

08000528 <__aeabi_d2lz>:
 8000528:	b508      	push	{r3, lr}
 800052a:	4602      	mov	r2, r0
 800052c:	460b      	mov	r3, r1
 800052e:	ec43 2b17 	vmov	d7, r2, r3
 8000532:	eeb5 7bc0 	vcmpe.f64	d7, #0.0
 8000536:	eef1 fa10 	vmrs	APSR_nzcv, fpscr
 800053a:	d403      	bmi.n	8000544 <__aeabi_d2lz+0x1c>
 800053c:	e8bd 4008 	ldmia.w	sp!, {r3, lr}
 8000540:	f000 b80a 	b.w	8000558 <__aeabi_d2ulz>
 8000544:	eeb1 7b47 	vneg.f64	d7, d7
 8000548:	ec51 0b17 	vmov	r0, r1, d7
 800054c:	f000 f804 	bl	8000558 <__aeabi_d2ulz>
 8000550:	4240      	negs	r0, r0
 8000552:	eb61 0141 	sbc.w	r1, r1, r1, lsl #1
 8000556:	bd08      	pop	{r3, pc}

08000558 <__aeabi_d2ulz>:
 8000558:	ed9f 6b0b 	vldr	d6, [pc, #44]	@ 8000588 <__aeabi_d2ulz+0x30>
 800055c:	ec41 0b17 	vmov	d7, r0, r1
 8000560:	ed9f 5b0b 	vldr	d5, [pc, #44]	@ 8000590 <__aeabi_d2ulz+0x38>
 8000564:	ee27 6b06 	vmul.f64	d6, d7, d6
 8000568:	eebc 6bc6 	vcvt.u32.f64	s12, d6
 800056c:	eeb8 4b46 	vcvt.f64.u32	d4, s12
 8000570:	eea4 7b45 	vfms.f64	d7, d4, d5
 8000574:	eefc 7bc7 	vcvt.u32.f64	s15, d7
 8000578:	ee16 1a10 	vmov	r1, s12
 800057c:	ee17 0a90 	vmov	r0, s15
 8000580:	4770      	bx	lr
 8000582:	bf00      	nop
 8000584:	f3af 8000 	nop.w
 8000588:	00000000 	.word	0x00000000
 800058c:	3df00000 	.word	0x3df00000
 8000590:	00000000 	.word	0x00000000
 8000594:	41f00000 	.word	0x41f00000

08000598 <Subsystem_step>:
RT_MODEL rtM_;
RT_MODEL *const rtM = &rtM_;

/* Model step function */
void Subsystem_step(void)
{
 8000598:	b4b0      	push	{r4, r5, r7}
 800059a:	b08f      	sub	sp, #60	@ 0x3c
 800059c:	af00      	add	r7, sp, #0
  real_T Sum;
  int32_T tmp;

  /* DiscreteStateSpace: '<S1>/Discrete State-Space' */
  {
    rtDW.DiscreteStateSpace[0] = (1.0)*rtDW.Observer[0];
 800059e:	4b50      	ldr	r3, [pc, #320]	@ (80006e0 <Subsystem_step+0x148>)
 80005a0:	e9d3 2306 	ldrd	r2, r3, [r3, #24]
 80005a4:	494e      	ldr	r1, [pc, #312]	@ (80006e0 <Subsystem_step+0x148>)
 80005a6:	e9c1 2300 	strd	r2, r3, [r1]
    rtDW.DiscreteStateSpace[1] = (1.0)*rtDW.Observer[1];
 80005aa:	4b4d      	ldr	r3, [pc, #308]	@ (80006e0 <Subsystem_step+0x148>)
 80005ac:	e9d3 2308 	ldrd	r2, r3, [r3, #32]
 80005b0:	494b      	ldr	r1, [pc, #300]	@ (80006e0 <Subsystem_step+0x148>)
 80005b2:	e9c1 2302 	strd	r2, r3, [r1, #8]
    rtDW.DiscreteStateSpace[2] = (1.0)*rtDW.Observer[2];
 80005b6:	4b4a      	ldr	r3, [pc, #296]	@ (80006e0 <Subsystem_step+0x148>)
 80005b8:	e9d3 230a 	ldrd	r2, r3, [r3, #40]	@ 0x28
 80005bc:	4948      	ldr	r1, [pc, #288]	@ (80006e0 <Subsystem_step+0x148>)
 80005be:	e9c1 2304 	strd	r2, r3, [r1, #16]
  }

  /* Step: '<S1>/Step' */
  if (rtM->Timing.t[0] < 3.0) {
 80005c2:	4b48      	ldr	r3, [pc, #288]	@ (80006e4 <Subsystem_step+0x14c>)
 80005c4:	f8d3 3110 	ldr.w	r3, [r3, #272]	@ 0x110
 80005c8:	ed93 7b00 	vldr	d7, [r3]
 80005cc:	eeb0 6b08 	vmov.f64	d6, #8	@ 0x40400000  3.0
 80005d0:	eeb4 7bc6 	vcmpe.f64	d7, d6
 80005d4:	eef1 fa10 	vmrs	APSR_nzcv, fpscr
 80005d8:	d502      	bpl.n	80005e0 <Subsystem_step+0x48>
    tmp = 0;
 80005da:	2300      	movs	r3, #0
 80005dc:	62fb      	str	r3, [r7, #44]	@ 0x2c
 80005de:	e001      	b.n	80005e4 <Subsystem_step+0x4c>
  } else {
    tmp = 6;
 80005e0:	2306      	movs	r3, #6
 80005e2:	62fb      	str	r3, [r7, #44]	@ 0x2c
  /* Sum: '<S1>/Sum' incorporates:
   *  Gain: '<S1>/Gain'
   *  Inport: '<Root>/theta'
   *  Sum: '<S1>/Sum1'
   */
  Sum = ((real_T)tmp - rtU.theta) * 5.0 - rtDW.DiscreteStateSpace[1];
 80005e4:	6afb      	ldr	r3, [r7, #44]	@ 0x2c
 80005e6:	ee07 3a90 	vmov	s15, r3
 80005ea:	eeb8 6be7 	vcvt.f64.s32	d6, s15
 80005ee:	4b3e      	ldr	r3, [pc, #248]	@ (80006e8 <Subsystem_step+0x150>)
 80005f0:	ed93 7b00 	vldr	d7, [r3]
 80005f4:	ee36 7b47 	vsub.f64	d7, d6, d7
 80005f8:	eeb1 6b04 	vmov.f64	d6, #20	@ 0x40a00000  5.0
 80005fc:	ee27 6b06 	vmul.f64	d6, d7, d6
 8000600:	4b37      	ldr	r3, [pc, #220]	@ (80006e0 <Subsystem_step+0x148>)
 8000602:	ed93 7b02 	vldr	d7, [r3, #8]
 8000606:	ee36 7b47 	vsub.f64	d7, d6, d7
 800060a:	ed87 7b08 	vstr	d7, [r7, #32]

  /* DiscreteIntegrator: '<S2>/Integrator' incorporates:
   *  Gain: '<S2>/Integral Gain'
   */
  rtDW.Integrator = 20.384866275277236 * Sum * 0.001 + rtDW.Integrator_DSTATE;
 800060e:	ed97 7b08 	vldr	d7, [r7, #32]
 8000612:	ed9f 6b29 	vldr	d6, [pc, #164]	@ 80006b8 <Subsystem_step+0x120>
 8000616:	ee27 7b06 	vmul.f64	d7, d7, d6
 800061a:	ed9f 6b29 	vldr	d6, [pc, #164]	@ 80006c0 <Subsystem_step+0x128>
 800061e:	ee27 6b06 	vmul.f64	d6, d7, d6
 8000622:	4b2f      	ldr	r3, [pc, #188]	@ (80006e0 <Subsystem_step+0x148>)
 8000624:	ed93 7b0e 	vldr	d7, [r3, #56]	@ 0x38
 8000628:	ee36 7b07 	vadd.f64	d7, d6, d7
 800062c:	4b2c      	ldr	r3, [pc, #176]	@ (80006e0 <Subsystem_step+0x148>)
 800062e:	ed83 7b0c 	vstr	d7, [r3, #48]	@ 0x30
   *  Gain: '<S2>/Derivative Gain'
   *
   * About '<S3>/TSamp':
   *  y = u * K where K = 1 / ( w * Ts )
   */
  rtb_TSamp = 0.0 * Sum * 1000.0;
 8000632:	ed97 7b08 	vldr	d7, [r7, #32]
 8000636:	ed9f 6b24 	vldr	d6, [pc, #144]	@ 80006c8 <Subsystem_step+0x130>
 800063a:	ee27 7b06 	vmul.f64	d7, d7, d6
 800063e:	ed9f 6b24 	vldr	d6, [pc, #144]	@ 80006d0 <Subsystem_step+0x138>
 8000642:	ee27 7b06 	vmul.f64	d7, d7, d6
 8000646:	ed87 7b06 	vstr	d7, [r7, #24]
  /* Sum: '<S2>/Sum' incorporates:
   *  Delay: '<S3>/UD'
   *  Gain: '<S2>/Proportional Gain'
   *  Sum: '<S3>/Diff'
   */
  Sum = (2.8579582517938684 * Sum + rtDW.Integrator) + (rtb_TSamp -
 800064a:	ed97 7b08 	vldr	d7, [r7, #32]
 800064e:	ed9f 6b22 	vldr	d6, [pc, #136]	@ 80006d8 <Subsystem_step+0x140>
 8000652:	ee27 6b06 	vmul.f64	d6, d7, d6
 8000656:	4b22      	ldr	r3, [pc, #136]	@ (80006e0 <Subsystem_step+0x148>)
 8000658:	ed93 7b0c 	vldr	d7, [r3, #48]	@ 0x30
 800065c:	ee36 6b07 	vadd.f64	d6, d6, d7
    rtDW.UD_DSTATE);
 8000660:	4b1f      	ldr	r3, [pc, #124]	@ (80006e0 <Subsystem_step+0x148>)
 8000662:	ed93 7b10 	vldr	d7, [r3, #64]	@ 0x40
  Sum = (2.8579582517938684 * Sum + rtDW.Integrator) + (rtb_TSamp -
 8000666:	ed97 5b06 	vldr	d5, [r7, #24]
 800066a:	ee35 7b47 	vsub.f64	d7, d5, d7
 800066e:	ee36 7b07 	vadd.f64	d7, d6, d7
 8000672:	ed87 7b08 	vstr	d7, [r7, #32]

  /* Saturate: '<S1>/Saturation' */
  if (Sum > 12.0) {
 8000676:	ed97 7b08 	vldr	d7, [r7, #32]
 800067a:	eeb2 6b08 	vmov.f64	d6, #40	@ 0x41400000  12.0
 800067e:	eeb4 7bc6 	vcmpe.f64	d7, d6
 8000682:	eef1 fa10 	vmrs	APSR_nzcv, fpscr
 8000686:	dd05      	ble.n	8000694 <Subsystem_step+0xfc>
    rtb_Saturation = 12.0;
 8000688:	f04f 0200 	mov.w	r2, #0
 800068c:	4b17      	ldr	r3, [pc, #92]	@ (80006ec <Subsystem_step+0x154>)
 800068e:	e9c7 230c 	strd	r2, r3, [r7, #48]	@ 0x30
 8000692:	e033      	b.n	80006fc <Subsystem_step+0x164>
  } else if (Sum < -12.0) {
 8000694:	ed97 7b08 	vldr	d7, [r7, #32]
 8000698:	eeba 6b08 	vmov.f64	d6, #168	@ 0xc1400000 -12.0
 800069c:	eeb4 7bc6 	vcmpe.f64	d7, d6
 80006a0:	eef1 fa10 	vmrs	APSR_nzcv, fpscr
 80006a4:	d526      	bpl.n	80006f4 <Subsystem_step+0x15c>
    rtb_Saturation = -12.0;
 80006a6:	f04f 0200 	mov.w	r2, #0
 80006aa:	4b11      	ldr	r3, [pc, #68]	@ (80006f0 <Subsystem_step+0x158>)
 80006ac:	e9c7 230c 	strd	r2, r3, [r7, #48]	@ 0x30
 80006b0:	e024      	b.n	80006fc <Subsystem_step+0x164>
 80006b2:	bf00      	nop
 80006b4:	f3af 8000 	nop.w
 80006b8:	98a1a629 	.word	0x98a1a629
 80006bc:	40346286 	.word	0x40346286
 80006c0:	d2f1a9fc 	.word	0xd2f1a9fc
 80006c4:	3f50624d 	.word	0x3f50624d
	...
 80006d4:	408f4000 	.word	0x408f4000
 80006d8:	37464dd2 	.word	0x37464dd2
 80006dc:	4006dd19 	.word	0x4006dd19
 80006e0:	200001f8 	.word	0x200001f8
 80006e4:	20000258 	.word	0x20000258
 80006e8:	20000240 	.word	0x20000240
 80006ec:	40280000 	.word	0x40280000
 80006f0:	c0280000 	.word	0xc0280000
  } else {
    rtb_Saturation = Sum;
 80006f4:	e9d7 2308 	ldrd	r2, r3, [r7, #32]
 80006f8:	e9c7 230c 	strd	r2, r3, [r7, #48]	@ 0x30
  }

  /* End of Saturate: '<S1>/Saturation' */

  /* Outport: '<Root>/input' */
  rtY.input = Sum;
 80006fc:	4984      	ldr	r1, [pc, #528]	@ (8000910 <Subsystem_step+0x378>)
 80006fe:	e9d7 2308 	ldrd	r2, r3, [r7, #32]
 8000702:	e9c1 2300 	strd	r2, r3, [r1]

  /* Update for DiscreteStateSpace: '<S1>/Discrete State-Space' */
  {
    real_T xnew[3];
    xnew[0] = (0.8639107020615695)*rtDW.Observer[0] + (0.00092744868888819626)*
 8000706:	4b83      	ldr	r3, [pc, #524]	@ (8000914 <Subsystem_step+0x37c>)
 8000708:	ed93 7b06 	vldr	d7, [r3, #24]
 800070c:	ed9f 6b62 	vldr	d6, [pc, #392]	@ 8000898 <Subsystem_step+0x300>
 8000710:	ee27 6b06 	vmul.f64	d6, d7, d6
      rtDW.Observer[1]
 8000714:	4b7f      	ldr	r3, [pc, #508]	@ (8000914 <Subsystem_step+0x37c>)
 8000716:	ed93 7b08 	vldr	d7, [r3, #32]
    xnew[0] = (0.8639107020615695)*rtDW.Observer[0] + (0.00092744868888819626)*
 800071a:	ed9f 5b61 	vldr	d5, [pc, #388]	@ 80008a0 <Subsystem_step+0x308>
 800071e:	ee27 7b05 	vmul.f64	d7, d7, d5
 8000722:	ee36 6b07 	vadd.f64	d6, d6, d7
      + (4.7561471225035705E-7)*rtDW.Observer[2];
 8000726:	4b7b      	ldr	r3, [pc, #492]	@ (8000914 <Subsystem_step+0x37c>)
 8000728:	ed93 7b0a 	vldr	d7, [r3, #40]	@ 0x28
 800072c:	ed9f 5b5e 	vldr	d5, [pc, #376]	@ 80008a8 <Subsystem_step+0x310>
 8000730:	ee27 7b05 	vmul.f64	d7, d7, d5
 8000734:	ee36 7b07 	vadd.f64	d7, d6, d7
    xnew[0] = (0.8639107020615695)*rtDW.Observer[0] + (0.00092744868888819626)*
 8000738:	ed87 7b00 	vstr	d7, [r7]
    xnew[0] += (8.3208827832216517E-6)*rtb_Saturation + (0.13608929793843055)*
 800073c:	ed97 6b00 	vldr	d6, [r7]
 8000740:	ed97 7b0c 	vldr	d7, [r7, #48]	@ 0x30
 8000744:	ed9f 5b5a 	vldr	d5, [pc, #360]	@ 80008b0 <Subsystem_step+0x318>
 8000748:	ee27 5b05 	vmul.f64	d5, d7, d5
      rtU.theta;
 800074c:	4b72      	ldr	r3, [pc, #456]	@ (8000918 <Subsystem_step+0x380>)
 800074e:	ed93 7b00 	vldr	d7, [r3]
    xnew[0] += (8.3208827832216517E-6)*rtb_Saturation + (0.13608929793843055)*
 8000752:	ed9f 4b59 	vldr	d4, [pc, #356]	@ 80008b8 <Subsystem_step+0x320>
 8000756:	ee27 7b04 	vmul.f64	d7, d7, d4
 800075a:	ee35 7b07 	vadd.f64	d7, d5, d7
 800075e:	ee36 7b07 	vadd.f64	d7, d6, d7
 8000762:	ed87 7b00 	vstr	d7, [r7]
    xnew[1] = (-6.070223424359467)*rtDW.Observer[0] + (0.98979763893419692)*
 8000766:	4b6b      	ldr	r3, [pc, #428]	@ (8000914 <Subsystem_step+0x37c>)
 8000768:	ed93 7b06 	vldr	d7, [r3, #24]
 800076c:	ed9f 6b54 	vldr	d6, [pc, #336]	@ 80008c0 <Subsystem_step+0x328>
 8000770:	ee27 6b06 	vmul.f64	d6, d7, d6
      rtDW.Observer[1]
 8000774:	4b67      	ldr	r3, [pc, #412]	@ (8000914 <Subsystem_step+0x37c>)
 8000776:	ed93 7b08 	vldr	d7, [r3, #32]
    xnew[1] = (-6.070223424359467)*rtDW.Observer[0] + (0.98979763893419692)*
 800077a:	ed9f 5b53 	vldr	d5, [pc, #332]	@ 80008c8 <Subsystem_step+0x330>
 800077e:	ee27 7b05 	vmul.f64	d7, d7, d5
 8000782:	ee36 6b07 	vadd.f64	d6, d6, d7
      + (0.000995398494069185)*rtDW.Observer[2];
 8000786:	4b63      	ldr	r3, [pc, #396]	@ (8000914 <Subsystem_step+0x37c>)
 8000788:	ed93 7b0a 	vldr	d7, [r3, #40]	@ 0x28
 800078c:	ed9f 5b50 	vldr	d5, [pc, #320]	@ 80008d0 <Subsystem_step+0x338>
 8000790:	ee27 7b05 	vmul.f64	d7, d7, d5
 8000794:	ee36 7b07 	vadd.f64	d7, d6, d7
    xnew[1] = (-6.070223424359467)*rtDW.Observer[0] + (0.98979763893419692)*
 8000798:	ed87 7b02 	vstr	d7, [r7, #8]
    xnew[1] += (0.017414503753586993)*rtb_Saturation + (6.0702234243594662)*
 800079c:	ed97 6b02 	vldr	d6, [r7, #8]
 80007a0:	ed97 7b0c 	vldr	d7, [r7, #48]	@ 0x30
 80007a4:	ed9f 5b4c 	vldr	d5, [pc, #304]	@ 80008d8 <Subsystem_step+0x340>
 80007a8:	ee27 5b05 	vmul.f64	d5, d7, d5
      rtU.theta;
 80007ac:	4b5a      	ldr	r3, [pc, #360]	@ (8000918 <Subsystem_step+0x380>)
 80007ae:	ed93 7b00 	vldr	d7, [r3]
    xnew[1] += (0.017414503753586993)*rtb_Saturation + (6.0702234243594662)*
 80007b2:	ed9f 4b4b 	vldr	d4, [pc, #300]	@ 80008e0 <Subsystem_step+0x348>
 80007b6:	ee27 7b04 	vmul.f64	d7, d7, d4
 80007ba:	ee35 7b07 	vadd.f64	d7, d5, d7
 80007be:	ee36 7b07 	vadd.f64	d7, d6, d7
 80007c2:	ed87 7b02 	vstr	d7, [r7, #8]
    xnew[2] = (-116.35513631809506)*rtDW.Observer[0] + (-0.059451839031294619)*
 80007c6:	4b53      	ldr	r3, [pc, #332]	@ (8000914 <Subsystem_step+0x37c>)
 80007c8:	ed93 7b06 	vldr	d7, [r3, #24]
 80007cc:	ed9f 6b46 	vldr	d6, [pc, #280]	@ 80008e8 <Subsystem_step+0x350>
 80007d0:	ee27 6b06 	vmul.f64	d6, d7, d6
      rtDW.Observer[1]
 80007d4:	4b4f      	ldr	r3, [pc, #316]	@ (8000914 <Subsystem_step+0x37c>)
 80007d6:	ed93 7b08 	vldr	d7, [r3, #32]
    xnew[2] = (-116.35513631809506)*rtDW.Observer[0] + (-0.059451839031294619)*
 80007da:	ed9f 5b45 	vldr	d5, [pc, #276]	@ 80008f0 <Subsystem_step+0x358>
 80007de:	ee27 7b05 	vmul.f64	d7, d7, d5
 80007e2:	ee36 6b07 	vadd.f64	d6, d6, d7
      + (0.99997993250637562)*rtDW.Observer[2];
 80007e6:	4b4b      	ldr	r3, [pc, #300]	@ (8000914 <Subsystem_step+0x37c>)
 80007e8:	ed93 7b0a 	vldr	d7, [r3, #40]	@ 0x28
 80007ec:	ed9f 5b42 	vldr	d5, [pc, #264]	@ 80008f8 <Subsystem_step+0x360>
 80007f0:	ee27 7b05 	vmul.f64	d7, d7, d5
 80007f4:	ee36 7b07 	vadd.f64	d7, d6, d7
    xnew[2] = (-116.35513631809506)*rtDW.Observer[0] + (-0.059451839031294619)*
 80007f8:	ed87 7b04 	vstr	d7, [r7, #16]
    xnew[2] += (-0.00035108094409360389)*rtb_Saturation + (116.35513631809508)*
 80007fc:	ed97 6b04 	vldr	d6, [r7, #16]
 8000800:	ed97 7b0c 	vldr	d7, [r7, #48]	@ 0x30
 8000804:	ed9f 5b3e 	vldr	d5, [pc, #248]	@ 8000900 <Subsystem_step+0x368>
 8000808:	ee27 5b05 	vmul.f64	d5, d7, d5
      rtU.theta;
 800080c:	4b42      	ldr	r3, [pc, #264]	@ (8000918 <Subsystem_step+0x380>)
 800080e:	ed93 7b00 	vldr	d7, [r3]
    xnew[2] += (-0.00035108094409360389)*rtb_Saturation + (116.35513631809508)*
 8000812:	ed9f 4b3d 	vldr	d4, [pc, #244]	@ 8000908 <Subsystem_step+0x370>
 8000816:	ee27 7b04 	vmul.f64	d7, d7, d4
 800081a:	ee35 7b07 	vadd.f64	d7, d5, d7
 800081e:	ee36 7b07 	vadd.f64	d7, d6, d7
 8000822:	ed87 7b04 	vstr	d7, [r7, #16]
    (void) memcpy(&rtDW.Observer[0], xnew,
 8000826:	4b3b      	ldr	r3, [pc, #236]	@ (8000914 <Subsystem_step+0x37c>)
 8000828:	f103 0418 	add.w	r4, r3, #24
 800082c:	463d      	mov	r5, r7
 800082e:	cd0f      	ldmia	r5!, {r0, r1, r2, r3}
 8000830:	c40f      	stmia	r4!, {r0, r1, r2, r3}
 8000832:	e895 0003 	ldmia.w	r5, {r0, r1}
 8000836:	e884 0003 	stmia.w	r4, {r0, r1}
                  sizeof(real_T)*3);
  }

  /* Update for DiscreteIntegrator: '<S2>/Integrator' */
  rtDW.Integrator_DSTATE = rtDW.Integrator;
 800083a:	4b36      	ldr	r3, [pc, #216]	@ (8000914 <Subsystem_step+0x37c>)
 800083c:	e9d3 230c 	ldrd	r2, r3, [r3, #48]	@ 0x30
 8000840:	4934      	ldr	r1, [pc, #208]	@ (8000914 <Subsystem_step+0x37c>)
 8000842:	e9c1 230e 	strd	r2, r3, [r1, #56]	@ 0x38

  /* Update for Delay: '<S3>/UD' */
  rtDW.UD_DSTATE = rtb_TSamp;
 8000846:	4933      	ldr	r1, [pc, #204]	@ (8000914 <Subsystem_step+0x37c>)
 8000848:	e9d7 2306 	ldrd	r2, r3, [r7, #24]
 800084c:	e9c1 2310 	strd	r2, r3, [r1, #64]	@ 0x40
   * been executed. The absolute time is the multiplication of "clockTick0"
   * and "Timing.stepSize0". Size of "clockTick0" ensures timer will not
   * overflow during the application lifespan selected.
   */
  rtM->Timing.t[0] =
    (++rtM->Timing.clockTick0) * rtM->Timing.stepSize0;
 8000850:	4b32      	ldr	r3, [pc, #200]	@ (800091c <Subsystem_step+0x384>)
 8000852:	f8d3 20f8 	ldr.w	r2, [r3, #248]	@ 0xf8
 8000856:	3201      	adds	r2, #1
  rtM->Timing.t[0] =
 8000858:	f8c3 20f8 	str.w	r2, [r3, #248]	@ 0xf8
    (++rtM->Timing.clockTick0) * rtM->Timing.stepSize0;
 800085c:	f8d3 30f8 	ldr.w	r3, [r3, #248]	@ 0xf8
 8000860:	ee07 3a90 	vmov	s15, r3
 8000864:	eeb8 6b67 	vcvt.f64.u32	d6, s15
 8000868:	4b2c      	ldr	r3, [pc, #176]	@ (800091c <Subsystem_step+0x384>)
 800086a:	ed93 7b40 	vldr	d7, [r3, #256]	@ 0x100
  rtM->Timing.t[0] =
 800086e:	4b2b      	ldr	r3, [pc, #172]	@ (800091c <Subsystem_step+0x384>)
 8000870:	f8d3 3110 	ldr.w	r3, [r3, #272]	@ 0x110
    (++rtM->Timing.clockTick0) * rtM->Timing.stepSize0;
 8000874:	ee26 7b07 	vmul.f64	d7, d6, d7
  rtM->Timing.t[0] =
 8000878:	ed83 7b00 	vstr	d7, [r3]
    /* The "clockTick1" counts the number of times the code of this task has
     * been executed. The resolution of this integer timer is 0.001, which is the step size
     * of the task. Size of "clockTick1" ensures timer will not overflow during the
     * application lifespan selected.
     */
    rtM->Timing.clockTick1++;
 800087c:	4b27      	ldr	r3, [pc, #156]	@ (800091c <Subsystem_step+0x384>)
 800087e:	f8d3 2108 	ldr.w	r2, [r3, #264]	@ 0x108
 8000882:	3201      	adds	r2, #1
 8000884:	f8c3 2108 	str.w	r2, [r3, #264]	@ 0x108
  }
}
 8000888:	bf00      	nop
 800088a:	373c      	adds	r7, #60	@ 0x3c
 800088c:	46bd      	mov	sp, r7
 800088e:	bcb0      	pop	{r4, r5, r7}
 8000890:	4770      	bx	lr
 8000892:	bf00      	nop
 8000894:	f3af 8000 	nop.w
 8000898:	0e809a58 	.word	0x0e809a58
 800089c:	3feba528 	.word	0x3feba528
 80008a0:	e4cc9116 	.word	0xe4cc9116
 80008a4:	3f4e6400 	.word	0x3f4e6400
 80008a8:	a0373564 	.word	0xa0373564
 80008ac:	3e9feaff 	.word	0x3e9feaff
 80008b0:	6bf3d23b 	.word	0x6bf3d23b
 80008b4:	3ee1733d 	.word	0x3ee1733d
 80008b8:	c5fd96a2 	.word	0xc5fd96a2
 80008bc:	3fc16b5f 	.word	0x3fc16b5f
 80008c0:	a63c25ee 	.word	0xa63c25ee
 80008c4:	c01847e8 	.word	0xc01847e8
 80008c8:	191c2c2c 	.word	0x191c2c2c
 80008cc:	3fefac6c 	.word	0x3fefac6c
 80008d0:	fe9ffc8a 	.word	0xfe9ffc8a
 80008d4:	3f504f00 	.word	0x3f504f00
 80008d8:	9064121f 	.word	0x9064121f
 80008dc:	3f91d51b 	.word	0x3f91d51b
 80008e0:	a63c25ed 	.word	0xa63c25ed
 80008e4:	401847e8 	.word	0x401847e8
 80008e8:	8dadf5c5 	.word	0x8dadf5c5
 80008ec:	c05d16ba 	.word	0xc05d16ba
 80008f0:	b0a726a5 	.word	0xb0a726a5
 80008f4:	bfae7078 	.word	0xbfae7078
 80008f8:	ea58ad6e 	.word	0xea58ad6e
 80008fc:	3fefffd5 	.word	0x3fefffd5
 8000900:	2c524d62 	.word	0x2c524d62
 8000904:	bf370229 	.word	0xbf370229
 8000908:	8dadf5c6 	.word	0x8dadf5c6
 800090c:	405d16ba 	.word	0x405d16ba
 8000910:	20000250 	.word	0x20000250
 8000914:	200001f8 	.word	0x200001f8
 8000918:	20000240 	.word	0x20000240
 800091c:	20000258 	.word	0x20000258

08000920 <Subsystem_initialize>:

/* Model initialize function */
void Subsystem_initialize(void)
{
 8000920:	b480      	push	{r7}
 8000922:	af00      	add	r7, sp, #0
  /* Registration code */
  {
    /* Setup solver object */
    rtsiSetSimTimeStepPtr(&rtM->solverInfo, &rtM->Timing.simTimeStep);
 8000924:	4b1a      	ldr	r3, [pc, #104]	@ (8000990 <Subsystem_initialize+0x70>)
 8000926:	4a1a      	ldr	r2, [pc, #104]	@ (8000990 <Subsystem_initialize+0x70>)
 8000928:	f503 7386 	add.w	r3, r3, #268	@ 0x10c
 800092c:	60d3      	str	r3, [r2, #12]
    rtsiSetTPtr(&rtM->solverInfo, &rtmGetTPtr(rtM));
 800092e:	4b18      	ldr	r3, [pc, #96]	@ (8000990 <Subsystem_initialize+0x70>)
 8000930:	4a17      	ldr	r2, [pc, #92]	@ (8000990 <Subsystem_initialize+0x70>)
 8000932:	f503 7388 	add.w	r3, r3, #272	@ 0x110
 8000936:	f8c2 3084 	str.w	r3, [r2, #132]	@ 0x84
    rtsiSetStepSizePtr(&rtM->solverInfo, &rtM->Timing.stepSize0);
 800093a:	4b15      	ldr	r3, [pc, #84]	@ (8000990 <Subsystem_initialize+0x70>)
 800093c:	4a14      	ldr	r2, [pc, #80]	@ (8000990 <Subsystem_initialize+0x70>)
 800093e:	f503 7380 	add.w	r3, r3, #256	@ 0x100
 8000942:	6293      	str	r3, [r2, #40]	@ 0x28
    rtsiSetErrorStatusPtr(&rtM->solverInfo, ((const char_T **)
 8000944:	4a12      	ldr	r2, [pc, #72]	@ (8000990 <Subsystem_initialize+0x70>)
 8000946:	4b12      	ldr	r3, [pc, #72]	@ (8000990 <Subsystem_initialize+0x70>)
 8000948:	f8c3 20d0 	str.w	r2, [r3, #208]	@ 0xd0
      (&rtmGetErrorStatus(rtM))));
    rtsiSetRTModelPtr(&rtM->solverInfo, rtM);
 800094c:	4b10      	ldr	r3, [pc, #64]	@ (8000990 <Subsystem_initialize+0x70>)
 800094e:	4a10      	ldr	r2, [pc, #64]	@ (8000990 <Subsystem_initialize+0x70>)
 8000950:	609a      	str	r2, [r3, #8]
  }

  rtsiSetSimTimeStep(&rtM->solverInfo, MAJOR_TIME_STEP);
 8000952:	4b0f      	ldr	r3, [pc, #60]	@ (8000990 <Subsystem_initialize+0x70>)
 8000954:	68db      	ldr	r3, [r3, #12]
 8000956:	2201      	movs	r2, #1
 8000958:	701a      	strb	r2, [r3, #0]
  rtsiSetSolverName(&rtM->solverInfo,"FixedStepDiscrete");
 800095a:	4b0d      	ldr	r3, [pc, #52]	@ (8000990 <Subsystem_initialize+0x70>)
 800095c:	4a0d      	ldr	r2, [pc, #52]	@ (8000994 <Subsystem_initialize+0x74>)
 800095e:	615a      	str	r2, [r3, #20]
  rtmSetTPtr(rtM, &rtM->Timing.tArray[0]);
 8000960:	4b0b      	ldr	r3, [pc, #44]	@ (8000990 <Subsystem_initialize+0x70>)
 8000962:	4a0b      	ldr	r2, [pc, #44]	@ (8000990 <Subsystem_initialize+0x70>)
 8000964:	f503 738c 	add.w	r3, r3, #280	@ 0x118
 8000968:	f8c2 3110 	str.w	r3, [r2, #272]	@ 0x110
  rtM->Timing.stepSize0 = 0.001;
 800096c:	4908      	ldr	r1, [pc, #32]	@ (8000990 <Subsystem_initialize+0x70>)
 800096e:	a306      	add	r3, pc, #24	@ (adr r3, 8000988 <Subsystem_initialize+0x68>)
 8000970:	e9d3 2300 	ldrd	r2, r3, [r3]
 8000974:	e9c1 2340 	strd	r2, r3, [r1, #256]	@ 0x100
}
 8000978:	bf00      	nop
 800097a:	46bd      	mov	sp, r7
 800097c:	f85d 7b04 	ldr.w	r7, [sp], #4
 8000980:	4770      	bx	lr
 8000982:	bf00      	nop
 8000984:	f3af 8000 	nop.w
 8000988:	d2f1a9fc 	.word	0xd2f1a9fc
 800098c:	3f50624d 	.word	0x3f50624d
 8000990:	20000258 	.word	0x20000258
 8000994:	08006348 	.word	0x08006348

08000998 <PWM_TIM1_Base_Init>:
#include "apwm.h"
#include "gpio.h"
void PWM_TIM1_Base_Init(uint32_t freq) {
 8000998:	b480      	push	{r7}
 800099a:	b083      	sub	sp, #12
 800099c:	af00      	add	r7, sp, #0
 800099e:	6078      	str	r0, [r7, #4]
    RCC->AHB1ENR |= (1 << 4);  // GPIOE
 80009a0:	4b16      	ldr	r3, [pc, #88]	@ (80009fc <PWM_TIM1_Base_Init+0x64>)
 80009a2:	6b1b      	ldr	r3, [r3, #48]	@ 0x30
 80009a4:	4a15      	ldr	r2, [pc, #84]	@ (80009fc <PWM_TIM1_Base_Init+0x64>)
 80009a6:	f043 0310 	orr.w	r3, r3, #16
 80009aa:	6313      	str	r3, [r2, #48]	@ 0x30
    RCC->APB2ENR |= (1 << 0);  // TIM1
 80009ac:	4b13      	ldr	r3, [pc, #76]	@ (80009fc <PWM_TIM1_Base_Init+0x64>)
 80009ae:	6c5b      	ldr	r3, [r3, #68]	@ 0x44
 80009b0:	4a12      	ldr	r2, [pc, #72]	@ (80009fc <PWM_TIM1_Base_Init+0x64>)
 80009b2:	f043 0301 	orr.w	r3, r3, #1
 80009b6:	6453      	str	r3, [r2, #68]	@ 0x44

    TIM1->PSC = 216 - 1;
 80009b8:	4b11      	ldr	r3, [pc, #68]	@ (8000a00 <PWM_TIM1_Base_Init+0x68>)
 80009ba:	22d7      	movs	r2, #215	@ 0xd7
 80009bc:	629a      	str	r2, [r3, #40]	@ 0x28
    TIM1->ARR = (1000000 / freq) - 1;
 80009be:	4a11      	ldr	r2, [pc, #68]	@ (8000a04 <PWM_TIM1_Base_Init+0x6c>)
 80009c0:	687b      	ldr	r3, [r7, #4]
 80009c2:	fbb2 f3f3 	udiv	r3, r2, r3
 80009c6:	4a0e      	ldr	r2, [pc, #56]	@ (8000a00 <PWM_TIM1_Base_Init+0x68>)
 80009c8:	3b01      	subs	r3, #1
 80009ca:	62d3      	str	r3, [r2, #44]	@ 0x2c

    TIM1->CR1 |= (1 << 7);  // ARPE: ARR Preload Enable
 80009cc:	4b0c      	ldr	r3, [pc, #48]	@ (8000a00 <PWM_TIM1_Base_Init+0x68>)
 80009ce:	681b      	ldr	r3, [r3, #0]
 80009d0:	4a0b      	ldr	r2, [pc, #44]	@ (8000a00 <PWM_TIM1_Base_Init+0x68>)
 80009d2:	f043 0380 	orr.w	r3, r3, #128	@ 0x80
 80009d6:	6013      	str	r3, [r2, #0]
    TIM1->BDTR |= (1 << 15); // MOE: Main Output Enable
 80009d8:	4b09      	ldr	r3, [pc, #36]	@ (8000a00 <PWM_TIM1_Base_Init+0x68>)
 80009da:	6c5b      	ldr	r3, [r3, #68]	@ 0x44
 80009dc:	4a08      	ldr	r2, [pc, #32]	@ (8000a00 <PWM_TIM1_Base_Init+0x68>)
 80009de:	f443 4300 	orr.w	r3, r3, #32768	@ 0x8000
 80009e2:	6453      	str	r3, [r2, #68]	@ 0x44
    TIM1->CR1 |= (1 << 0);  // CEN: Counter Enable
 80009e4:	4b06      	ldr	r3, [pc, #24]	@ (8000a00 <PWM_TIM1_Base_Init+0x68>)
 80009e6:	681b      	ldr	r3, [r3, #0]
 80009e8:	4a05      	ldr	r2, [pc, #20]	@ (8000a00 <PWM_TIM1_Base_Init+0x68>)
 80009ea:	f043 0301 	orr.w	r3, r3, #1
 80009ee:	6013      	str	r3, [r2, #0]
}
 80009f0:	bf00      	nop
 80009f2:	370c      	adds	r7, #12
 80009f4:	46bd      	mov	sp, r7
 80009f6:	f85d 7b04 	ldr.w	r7, [sp], #4
 80009fa:	4770      	bx	lr
 80009fc:	40023800 	.word	0x40023800
 8000a00:	40010000 	.word	0x40010000
 8000a04:	000f4240 	.word	0x000f4240

08000a08 <PWM_TIM1_CH1_Init>:
//PE9
void PWM_TIM1_CH1_Init(){
 8000a08:	b480      	push	{r7}
 8000a0a:	af00      	add	r7, sp, #0
	GPIOE->MODER &= ~(3 << 2*9);
 8000a0c:	4b17      	ldr	r3, [pc, #92]	@ (8000a6c <PWM_TIM1_CH1_Init+0x64>)
 8000a0e:	681b      	ldr	r3, [r3, #0]
 8000a10:	4a16      	ldr	r2, [pc, #88]	@ (8000a6c <PWM_TIM1_CH1_Init+0x64>)
 8000a12:	f423 2340 	bic.w	r3, r3, #786432	@ 0xc0000
 8000a16:	6013      	str	r3, [r2, #0]
	GPIOE->MODER |= (2 << 2*9);
 8000a18:	4b14      	ldr	r3, [pc, #80]	@ (8000a6c <PWM_TIM1_CH1_Init+0x64>)
 8000a1a:	681b      	ldr	r3, [r3, #0]
 8000a1c:	4a13      	ldr	r2, [pc, #76]	@ (8000a6c <PWM_TIM1_CH1_Init+0x64>)
 8000a1e:	f443 2300 	orr.w	r3, r3, #524288	@ 0x80000
 8000a22:	6013      	str	r3, [r2, #0]
	GPIOE->AFRH &= ~(0xF << 4);
 8000a24:	4b11      	ldr	r3, [pc, #68]	@ (8000a6c <PWM_TIM1_CH1_Init+0x64>)
 8000a26:	6a5b      	ldr	r3, [r3, #36]	@ 0x24
 8000a28:	4a10      	ldr	r2, [pc, #64]	@ (8000a6c <PWM_TIM1_CH1_Init+0x64>)
 8000a2a:	f023 03f0 	bic.w	r3, r3, #240	@ 0xf0
 8000a2e:	6253      	str	r3, [r2, #36]	@ 0x24
	GPIOE->AFRH |= (1 << 4);
 8000a30:	4b0e      	ldr	r3, [pc, #56]	@ (8000a6c <PWM_TIM1_CH1_Init+0x64>)
 8000a32:	6a5b      	ldr	r3, [r3, #36]	@ 0x24
 8000a34:	4a0d      	ldr	r2, [pc, #52]	@ (8000a6c <PWM_TIM1_CH1_Init+0x64>)
 8000a36:	f043 0310 	orr.w	r3, r3, #16
 8000a3a:	6253      	str	r3, [r2, #36]	@ 0x24

	TIM1->CCMR1 &= ~(0xFF << 0);
 8000a3c:	4b0c      	ldr	r3, [pc, #48]	@ (8000a70 <PWM_TIM1_CH1_Init+0x68>)
 8000a3e:	699b      	ldr	r3, [r3, #24]
 8000a40:	4a0b      	ldr	r2, [pc, #44]	@ (8000a70 <PWM_TIM1_CH1_Init+0x68>)
 8000a42:	f023 03ff 	bic.w	r3, r3, #255	@ 0xff
 8000a46:	6193      	str	r3, [r2, #24]
	TIM1->CCMR1 |= (6 << 4) | (1 << 3); // PWM Mode 1 + Preload
 8000a48:	4b09      	ldr	r3, [pc, #36]	@ (8000a70 <PWM_TIM1_CH1_Init+0x68>)
 8000a4a:	699b      	ldr	r3, [r3, #24]
 8000a4c:	4a08      	ldr	r2, [pc, #32]	@ (8000a70 <PWM_TIM1_CH1_Init+0x68>)
 8000a4e:	f043 0368 	orr.w	r3, r3, #104	@ 0x68
 8000a52:	6193      	str	r3, [r2, #24]
	TIM1->CCER |= (1 << 0); // CC1E
 8000a54:	4b06      	ldr	r3, [pc, #24]	@ (8000a70 <PWM_TIM1_CH1_Init+0x68>)
 8000a56:	6a1b      	ldr	r3, [r3, #32]
 8000a58:	4a05      	ldr	r2, [pc, #20]	@ (8000a70 <PWM_TIM1_CH1_Init+0x68>)
 8000a5a:	f043 0301 	orr.w	r3, r3, #1
 8000a5e:	6213      	str	r3, [r2, #32]
}
 8000a60:	bf00      	nop
 8000a62:	46bd      	mov	sp, r7
 8000a64:	f85d 7b04 	ldr.w	r7, [sp], #4
 8000a68:	4770      	bx	lr
 8000a6a:	bf00      	nop
 8000a6c:	40021000 	.word	0x40021000
 8000a70:	40010000 	.word	0x40010000

08000a74 <PWM_TIM1_CH1_Setduty>:
void PWM_TIM1_CH1_Setduty(float duty_per){
 8000a74:	b480      	push	{r7}
 8000a76:	b083      	sub	sp, #12
 8000a78:	af00      	add	r7, sp, #0
 8000a7a:	ed87 0a01 	vstr	s0, [r7, #4]
	TIM1->CCR1 = (uint32_t)((float)(TIM1->ARR + 1) * (duty_per));
 8000a7e:	4b0b      	ldr	r3, [pc, #44]	@ (8000aac <PWM_TIM1_CH1_Setduty+0x38>)
 8000a80:	6adb      	ldr	r3, [r3, #44]	@ 0x2c
 8000a82:	3301      	adds	r3, #1
 8000a84:	ee07 3a90 	vmov	s15, r3
 8000a88:	eeb8 7a67 	vcvt.f32.u32	s14, s15
 8000a8c:	edd7 7a01 	vldr	s15, [r7, #4]
 8000a90:	ee67 7a27 	vmul.f32	s15, s14, s15
 8000a94:	4b05      	ldr	r3, [pc, #20]	@ (8000aac <PWM_TIM1_CH1_Setduty+0x38>)
 8000a96:	eefc 7ae7 	vcvt.u32.f32	s15, s15
 8000a9a:	ee17 2a90 	vmov	r2, s15
 8000a9e:	635a      	str	r2, [r3, #52]	@ 0x34
}
 8000aa0:	bf00      	nop
 8000aa2:	370c      	adds	r7, #12
 8000aa4:	46bd      	mov	sp, r7
 8000aa6:	f85d 7b04 	ldr.w	r7, [sp], #4
 8000aaa:	4770      	bx	lr
 8000aac:	40010000 	.word	0x40010000

08000ab0 <PWM_TIM1_CH2_Init>:
//PE11
void PWM_TIM1_CH2_Init(){
 8000ab0:	b480      	push	{r7}
 8000ab2:	af00      	add	r7, sp, #0
	GPIOE->MODER &= ~(3 << 2*11);
 8000ab4:	4b17      	ldr	r3, [pc, #92]	@ (8000b14 <PWM_TIM1_CH2_Init+0x64>)
 8000ab6:	681b      	ldr	r3, [r3, #0]
 8000ab8:	4a16      	ldr	r2, [pc, #88]	@ (8000b14 <PWM_TIM1_CH2_Init+0x64>)
 8000aba:	f423 0340 	bic.w	r3, r3, #12582912	@ 0xc00000
 8000abe:	6013      	str	r3, [r2, #0]
	GPIOE->MODER |= (2 << 2*11);
 8000ac0:	4b14      	ldr	r3, [pc, #80]	@ (8000b14 <PWM_TIM1_CH2_Init+0x64>)
 8000ac2:	681b      	ldr	r3, [r3, #0]
 8000ac4:	4a13      	ldr	r2, [pc, #76]	@ (8000b14 <PWM_TIM1_CH2_Init+0x64>)
 8000ac6:	f443 0300 	orr.w	r3, r3, #8388608	@ 0x800000
 8000aca:	6013      	str	r3, [r2, #0]
	GPIOE->AFRH &= ~(0xF << 12);
 8000acc:	4b11      	ldr	r3, [pc, #68]	@ (8000b14 <PWM_TIM1_CH2_Init+0x64>)
 8000ace:	6a5b      	ldr	r3, [r3, #36]	@ 0x24
 8000ad0:	4a10      	ldr	r2, [pc, #64]	@ (8000b14 <PWM_TIM1_CH2_Init+0x64>)
 8000ad2:	f423 4370 	bic.w	r3, r3, #61440	@ 0xf000
 8000ad6:	6253      	str	r3, [r2, #36]	@ 0x24
	GPIOE->AFRH |= (1 << 12);
 8000ad8:	4b0e      	ldr	r3, [pc, #56]	@ (8000b14 <PWM_TIM1_CH2_Init+0x64>)
 8000ada:	6a5b      	ldr	r3, [r3, #36]	@ 0x24
 8000adc:	4a0d      	ldr	r2, [pc, #52]	@ (8000b14 <PWM_TIM1_CH2_Init+0x64>)
 8000ade:	f443 5380 	orr.w	r3, r3, #4096	@ 0x1000
 8000ae2:	6253      	str	r3, [r2, #36]	@ 0x24

	TIM1->CCMR1 &= ~(0xFF << 8);
 8000ae4:	4b0c      	ldr	r3, [pc, #48]	@ (8000b18 <PWM_TIM1_CH2_Init+0x68>)
 8000ae6:	699b      	ldr	r3, [r3, #24]
 8000ae8:	4a0b      	ldr	r2, [pc, #44]	@ (8000b18 <PWM_TIM1_CH2_Init+0x68>)
 8000aea:	f423 437f 	bic.w	r3, r3, #65280	@ 0xff00
 8000aee:	6193      	str	r3, [r2, #24]
	TIM1->CCMR1 |= (6 << 12) | (1 << 11); // PWM Mode 1 + Preload
 8000af0:	4b09      	ldr	r3, [pc, #36]	@ (8000b18 <PWM_TIM1_CH2_Init+0x68>)
 8000af2:	699b      	ldr	r3, [r3, #24]
 8000af4:	4a08      	ldr	r2, [pc, #32]	@ (8000b18 <PWM_TIM1_CH2_Init+0x68>)
 8000af6:	f443 43d0 	orr.w	r3, r3, #26624	@ 0x6800
 8000afa:	6193      	str	r3, [r2, #24]
	TIM1->CCER |= (1 << 4); // CC2E
 8000afc:	4b06      	ldr	r3, [pc, #24]	@ (8000b18 <PWM_TIM1_CH2_Init+0x68>)
 8000afe:	6a1b      	ldr	r3, [r3, #32]
 8000b00:	4a05      	ldr	r2, [pc, #20]	@ (8000b18 <PWM_TIM1_CH2_Init+0x68>)
 8000b02:	f043 0310 	orr.w	r3, r3, #16
 8000b06:	6213      	str	r3, [r2, #32]
}
 8000b08:	bf00      	nop
 8000b0a:	46bd      	mov	sp, r7
 8000b0c:	f85d 7b04 	ldr.w	r7, [sp], #4
 8000b10:	4770      	bx	lr
 8000b12:	bf00      	nop
 8000b14:	40021000 	.word	0x40021000
 8000b18:	40010000 	.word	0x40010000

08000b1c <PWM_TIM1_CH2_Setduty>:
void PWM_TIM1_CH2_Setduty(float duty_per){
 8000b1c:	b480      	push	{r7}
 8000b1e:	b083      	sub	sp, #12
 8000b20:	af00      	add	r7, sp, #0
 8000b22:	ed87 0a01 	vstr	s0, [r7, #4]
	TIM1->CCR2 = (uint32_t)((float)(TIM1->ARR + 1) * (duty_per));
 8000b26:	4b0b      	ldr	r3, [pc, #44]	@ (8000b54 <PWM_TIM1_CH2_Setduty+0x38>)
 8000b28:	6adb      	ldr	r3, [r3, #44]	@ 0x2c
 8000b2a:	3301      	adds	r3, #1
 8000b2c:	ee07 3a90 	vmov	s15, r3
 8000b30:	eeb8 7a67 	vcvt.f32.u32	s14, s15
 8000b34:	edd7 7a01 	vldr	s15, [r7, #4]
 8000b38:	ee67 7a27 	vmul.f32	s15, s14, s15
 8000b3c:	4b05      	ldr	r3, [pc, #20]	@ (8000b54 <PWM_TIM1_CH2_Setduty+0x38>)
 8000b3e:	eefc 7ae7 	vcvt.u32.f32	s15, s15
 8000b42:	ee17 2a90 	vmov	r2, s15
 8000b46:	639a      	str	r2, [r3, #56]	@ 0x38
}
 8000b48:	bf00      	nop
 8000b4a:	370c      	adds	r7, #12
 8000b4c:	46bd      	mov	sp, r7
 8000b4e:	f85d 7b04 	ldr.w	r7, [sp], #4
 8000b52:	4770      	bx	lr
 8000b54:	40010000 	.word	0x40010000

08000b58 <DMA_Init>:


uint32_t src_data[4] = {0x12345678, 0xABCDEF01, 0x98765432, 0xDEADBEEF};
uint32_t dest_data[4] = {0,};

void DMA_Init(){
 8000b58:	b480      	push	{r7}
 8000b5a:	b083      	sub	sp, #12
 8000b5c:	af00      	add	r7, sp, #0
	RCC->AHB1ENR |= (1 << 21); //DMA1번 켜기
 8000b5e:	4b0a      	ldr	r3, [pc, #40]	@ (8000b88 <DMA_Init+0x30>)
 8000b60:	6b1b      	ldr	r3, [r3, #48]	@ 0x30
 8000b62:	4a09      	ldr	r2, [pc, #36]	@ (8000b88 <DMA_Init+0x30>)
 8000b64:	f443 1300 	orr.w	r3, r3, #2097152	@ 0x200000
 8000b68:	6313      	str	r3, [r2, #48]	@ 0x30
	RCC->AHB1ENR |= (1 << 22); //DMA2번 켜기
 8000b6a:	4b07      	ldr	r3, [pc, #28]	@ (8000b88 <DMA_Init+0x30>)
 8000b6c:	6b1b      	ldr	r3, [r3, #48]	@ 0x30
 8000b6e:	4a06      	ldr	r2, [pc, #24]	@ (8000b88 <DMA_Init+0x30>)
 8000b70:	f443 0380 	orr.w	r3, r3, #4194304	@ 0x400000
 8000b74:	6313      	str	r3, [r2, #48]	@ 0x30
	uint32_t dummy = RCC->AHB1ENR;
 8000b76:	4b04      	ldr	r3, [pc, #16]	@ (8000b88 <DMA_Init+0x30>)
 8000b78:	6b1b      	ldr	r3, [r3, #48]	@ 0x30
 8000b7a:	607b      	str	r3, [r7, #4]
	(void)dummy;

	//시작
	//RCC->CR |= (1<<16);
	//while(!(RCC->CR&(1<<17)));
}
 8000b7c:	bf00      	nop
 8000b7e:	370c      	adds	r7, #12
 8000b80:	46bd      	mov	sp, r7
 8000b82:	f85d 7b04 	ldr.w	r7, [sp], #4
 8000b86:	4770      	bx	lr
 8000b88:	40023800 	.word	0x40023800

08000b8c <Encoder_TIM4_Init>:
#include "encoder.h"


//PD12 PD13
void Encoder_TIM4_Init(void) {
 8000b8c:	b480      	push	{r7}
 8000b8e:	af00      	add	r7, sp, #0
    // 1. 클럭 활성화 (GPIOD, TIM4)
    RCC->AHB1ENR |= (1 << 3);  // GPIOD
 8000b90:	4b2b      	ldr	r3, [pc, #172]	@ (8000c40 <Encoder_TIM4_Init+0xb4>)
 8000b92:	6b1b      	ldr	r3, [r3, #48]	@ 0x30
 8000b94:	4a2a      	ldr	r2, [pc, #168]	@ (8000c40 <Encoder_TIM4_Init+0xb4>)
 8000b96:	f043 0308 	orr.w	r3, r3, #8
 8000b9a:	6313      	str	r3, [r2, #48]	@ 0x30
    RCC->APB1ENR |= (1 << 2);  // TIM4
 8000b9c:	4b28      	ldr	r3, [pc, #160]	@ (8000c40 <Encoder_TIM4_Init+0xb4>)
 8000b9e:	6c1b      	ldr	r3, [r3, #64]	@ 0x40
 8000ba0:	4a27      	ldr	r2, [pc, #156]	@ (8000c40 <Encoder_TIM4_Init+0xb4>)
 8000ba2:	f043 0304 	orr.w	r3, r3, #4
 8000ba6:	6413      	str	r3, [r2, #64]	@ 0x40

    // 2. GPIO 설정 (PD12, PD13 -> AF2)
    GPIOD->MODER   &= ~((3 << 24) | (3 << 26));
 8000ba8:	4b26      	ldr	r3, [pc, #152]	@ (8000c44 <Encoder_TIM4_Init+0xb8>)
 8000baa:	681b      	ldr	r3, [r3, #0]
 8000bac:	4a25      	ldr	r2, [pc, #148]	@ (8000c44 <Encoder_TIM4_Init+0xb8>)
 8000bae:	f023 6370 	bic.w	r3, r3, #251658240	@ 0xf000000
 8000bb2:	6013      	str	r3, [r2, #0]
    GPIOD->MODER   |=  ((2 << 24) | (2 << 26)); // Alternate Function
 8000bb4:	4b23      	ldr	r3, [pc, #140]	@ (8000c44 <Encoder_TIM4_Init+0xb8>)
 8000bb6:	681b      	ldr	r3, [r3, #0]
 8000bb8:	4a22      	ldr	r2, [pc, #136]	@ (8000c44 <Encoder_TIM4_Init+0xb8>)
 8000bba:	f043 6320 	orr.w	r3, r3, #167772160	@ 0xa000000
 8000bbe:	6013      	str	r3, [r2, #0]
    GPIOD->AFRH  &= ~((0xF << 16) | (0xF << 20));
 8000bc0:	4b20      	ldr	r3, [pc, #128]	@ (8000c44 <Encoder_TIM4_Init+0xb8>)
 8000bc2:	6a5b      	ldr	r3, [r3, #36]	@ 0x24
 8000bc4:	4a1f      	ldr	r2, [pc, #124]	@ (8000c44 <Encoder_TIM4_Init+0xb8>)
 8000bc6:	f423 037f 	bic.w	r3, r3, #16711680	@ 0xff0000
 8000bca:	6253      	str	r3, [r2, #36]	@ 0x24
    GPIOD->AFRH  |=  ((2 << 16) | (2 << 20));   // AF2 (TIM4)
 8000bcc:	4b1d      	ldr	r3, [pc, #116]	@ (8000c44 <Encoder_TIM4_Init+0xb8>)
 8000bce:	6a5b      	ldr	r3, [r3, #36]	@ 0x24
 8000bd0:	4a1c      	ldr	r2, [pc, #112]	@ (8000c44 <Encoder_TIM4_Init+0xb8>)
 8000bd2:	f443 1308 	orr.w	r3, r3, #2228224	@ 0x220000
 8000bd6:	6253      	str	r3, [r2, #36]	@ 0x24

    // 3. 엔코더 모드 설정
    TIM4->PSC = 0;              // 프리스케일러는 0 (엔코더 신호 그대로 카운트)
 8000bd8:	4b1b      	ldr	r3, [pc, #108]	@ (8000c48 <Encoder_TIM4_Init+0xbc>)
 8000bda:	2200      	movs	r2, #0
 8000bdc:	629a      	str	r2, [r3, #40]	@ 0x28
    TIM4->ARR = 0xFFFF;         // 16비트 최대 카운트
 8000bde:	4b1a      	ldr	r3, [pc, #104]	@ (8000c48 <Encoder_TIM4_Init+0xbc>)
 8000be0:	f64f 72ff 	movw	r2, #65535	@ 0xffff
 8000be4:	62da      	str	r2, [r3, #44]	@ 0x2c

    // CCMR1: CC1S=01 (TI1 매핑), CC2S=01 (TI2 매핑)
    TIM4->CCMR1 &= ~((0x3 << 0) | (0x3 << 8));
 8000be6:	4b18      	ldr	r3, [pc, #96]	@ (8000c48 <Encoder_TIM4_Init+0xbc>)
 8000be8:	699a      	ldr	r2, [r3, #24]
 8000bea:	4917      	ldr	r1, [pc, #92]	@ (8000c48 <Encoder_TIM4_Init+0xbc>)
 8000bec:	4b17      	ldr	r3, [pc, #92]	@ (8000c4c <Encoder_TIM4_Init+0xc0>)
 8000bee:	4013      	ands	r3, r2
 8000bf0:	618b      	str	r3, [r1, #24]
    TIM4->CCMR1 |=  ((1 << 0) | (1 << 8));
 8000bf2:	4b15      	ldr	r3, [pc, #84]	@ (8000c48 <Encoder_TIM4_Init+0xbc>)
 8000bf4:	699a      	ldr	r2, [r3, #24]
 8000bf6:	4914      	ldr	r1, [pc, #80]	@ (8000c48 <Encoder_TIM4_Init+0xbc>)
 8000bf8:	f240 1301 	movw	r3, #257	@ 0x101
 8000bfc:	4313      	orrs	r3, r2
 8000bfe:	618b      	str	r3, [r1, #24]

    // CCER: 엣지 설정 (기본값 0: 상승 엣지에서 트리거)
    TIM4->CCER &= ~((1 << 1) | (1 << 5));
 8000c00:	4b11      	ldr	r3, [pc, #68]	@ (8000c48 <Encoder_TIM4_Init+0xbc>)
 8000c02:	6a1b      	ldr	r3, [r3, #32]
 8000c04:	4a10      	ldr	r2, [pc, #64]	@ (8000c48 <Encoder_TIM4_Init+0xbc>)
 8000c06:	f023 0322 	bic.w	r3, r3, #34	@ 0x22
 8000c0a:	6213      	str	r3, [r2, #32]

    // SMCR: SMS=011 (Encoder Mode 3 - TI1, TI2 둘 다 카운트)
    TIM4->SMCR &= ~(0x7);
 8000c0c:	4b0e      	ldr	r3, [pc, #56]	@ (8000c48 <Encoder_TIM4_Init+0xbc>)
 8000c0e:	689b      	ldr	r3, [r3, #8]
 8000c10:	4a0d      	ldr	r2, [pc, #52]	@ (8000c48 <Encoder_TIM4_Init+0xbc>)
 8000c12:	f023 0307 	bic.w	r3, r3, #7
 8000c16:	6093      	str	r3, [r2, #8]
    TIM4->SMCR |= 3;
 8000c18:	4b0b      	ldr	r3, [pc, #44]	@ (8000c48 <Encoder_TIM4_Init+0xbc>)
 8000c1a:	689b      	ldr	r3, [r3, #8]
 8000c1c:	4a0a      	ldr	r2, [pc, #40]	@ (8000c48 <Encoder_TIM4_Init+0xbc>)
 8000c1e:	f043 0303 	orr.w	r3, r3, #3
 8000c22:	6093      	str	r3, [r2, #8]

    // 4. 타이머 활성화
    TIM4->CNT = 0;              // 카운터 초기화
 8000c24:	4b08      	ldr	r3, [pc, #32]	@ (8000c48 <Encoder_TIM4_Init+0xbc>)
 8000c26:	2200      	movs	r2, #0
 8000c28:	625a      	str	r2, [r3, #36]	@ 0x24
    TIM4->CR1 |= (1 << 0);      // CEN: Counter Enable
 8000c2a:	4b07      	ldr	r3, [pc, #28]	@ (8000c48 <Encoder_TIM4_Init+0xbc>)
 8000c2c:	681b      	ldr	r3, [r3, #0]
 8000c2e:	4a06      	ldr	r2, [pc, #24]	@ (8000c48 <Encoder_TIM4_Init+0xbc>)
 8000c30:	f043 0301 	orr.w	r3, r3, #1
 8000c34:	6013      	str	r3, [r2, #0]
}
 8000c36:	bf00      	nop
 8000c38:	46bd      	mov	sp, r7
 8000c3a:	f85d 7b04 	ldr.w	r7, [sp], #4
 8000c3e:	4770      	bx	lr
 8000c40:	40023800 	.word	0x40023800
 8000c44:	40020c00 	.word	0x40020c00
 8000c48:	40000800 	.word	0x40000800
 8000c4c:	fffffcfc 	.word	0xfffffcfc

08000c50 <Get_Encoder_Count>:

uint16_t Get_Encoder_Count(void) {
 8000c50:	b480      	push	{r7}
 8000c52:	af00      	add	r7, sp, #0
    return TIM4->CNT;
 8000c54:	4b03      	ldr	r3, [pc, #12]	@ (8000c64 <Get_Encoder_Count+0x14>)
 8000c56:	6a5b      	ldr	r3, [r3, #36]	@ 0x24
 8000c58:	b29b      	uxth	r3, r3
}
 8000c5a:	4618      	mov	r0, r3
 8000c5c:	46bd      	mov	sp, r7
 8000c5e:	f85d 7b04 	ldr.w	r7, [sp], #4
 8000c62:	4770      	bx	lr
 8000c64:	40000800 	.word	0x40000800

08000c68 <ST7735_Init>:

FontDef Font_7x10 = {7,10,Font7x10};
FontDef Font_11x18 = {11,18,Font11x18};
FontDef Font_16x26 = {16,26,Font16x26};

void ST7735_Init() {
 8000c68:	b580      	push	{r7, lr}
 8000c6a:	af00      	add	r7, sp, #0
	GPIO_Clock_Enable(GPIOF);
 8000c6c:	4819      	ldr	r0, [pc, #100]	@ (8000cd4 <ST7735_Init+0x6c>)
 8000c6e:	f000 f9f9 	bl	8001064 <GPIO_Clock_Enable>
	GPIO_pin_Mode(GPIOF, 12, 1); //A0
 8000c72:	2201      	movs	r2, #1
 8000c74:	210c      	movs	r1, #12
 8000c76:	4817      	ldr	r0, [pc, #92]	@ (8000cd4 <ST7735_Init+0x6c>)
 8000c78:	f000 f9b0 	bl	8000fdc <GPIO_pin_Mode>
	GPIO_Speed_Set(GPIOF, 12, 3);
 8000c7c:	2203      	movs	r2, #3
 8000c7e:	210c      	movs	r1, #12
 8000c80:	4814      	ldr	r0, [pc, #80]	@ (8000cd4 <ST7735_Init+0x6c>)
 8000c82:	f000 fa8d 	bl	80011a0 <GPIO_Speed_Set>
	GPIO_pin_Mode(GPIOF, 13, 1); // RESET
 8000c86:	2201      	movs	r2, #1
 8000c88:	210d      	movs	r1, #13
 8000c8a:	4812      	ldr	r0, [pc, #72]	@ (8000cd4 <ST7735_Init+0x6c>)
 8000c8c:	f000 f9a6 	bl	8000fdc <GPIO_pin_Mode>
	GPIO_Speed_Set(GPIOF, 13, 3);
 8000c90:	2203      	movs	r2, #3
 8000c92:	210d      	movs	r1, #13
 8000c94:	480f      	ldr	r0, [pc, #60]	@ (8000cd4 <ST7735_Init+0x6c>)
 8000c96:	f000 fa83 	bl	80011a0 <GPIO_Speed_Set>
    ST7735_HW_Reset(); // 이전에 만든 리셋 함수 호출
 8000c9a:	f000 f87b 	bl	8000d94 <ST7735_HW_Reset>

    ST7735_WriteCommand(0x01); // Software Reset
 8000c9e:	2001      	movs	r0, #1
 8000ca0:	f000 f88c 	bl	8000dbc <ST7735_WriteCommand>
    delay_ms(150);
 8000ca4:	2096      	movs	r0, #150	@ 0x96
 8000ca6:	f000 fdc1 	bl	800182c <delay_ms>

    ST7735_WriteCommand(0x11); // Sleep Out
 8000caa:	2011      	movs	r0, #17
 8000cac:	f000 f886 	bl	8000dbc <ST7735_WriteCommand>
    delay_ms(150);
 8000cb0:	2096      	movs	r0, #150	@ 0x96
 8000cb2:	f000 fdbb 	bl	800182c <delay_ms>

    // 색상 포맷 설정 (16-bit color)
    ST7735_WriteCommand(0x3A);
 8000cb6:	203a      	movs	r0, #58	@ 0x3a
 8000cb8:	f000 f880 	bl	8000dbc <ST7735_WriteCommand>
    ST7735_WriteData(0x05);
 8000cbc:	2005      	movs	r0, #5
 8000cbe:	f000 f89b 	bl	8000df8 <ST7735_WriteData>

    // 디스플레이 켜기
    ST7735_WriteCommand(0x29);
 8000cc2:	2029      	movs	r0, #41	@ 0x29
 8000cc4:	f000 f87a 	bl	8000dbc <ST7735_WriteCommand>

    delay_ms(100);
 8000cc8:	2064      	movs	r0, #100	@ 0x64
 8000cca:	f000 fdaf 	bl	800182c <delay_ms>
}
 8000cce:	bf00      	nop
 8000cd0:	bd80      	pop	{r7, pc}
 8000cd2:	bf00      	nop
 8000cd4:	40021400 	.word	0x40021400

08000cd8 <ST7735_SetAddressWindow>:
void ST7735_SetAddressWindow(uint8_t x0, uint8_t y0, uint8_t x1, uint8_t y1) {
 8000cd8:	b590      	push	{r4, r7, lr}
 8000cda:	b083      	sub	sp, #12
 8000cdc:	af00      	add	r7, sp, #0
 8000cde:	4604      	mov	r4, r0
 8000ce0:	4608      	mov	r0, r1
 8000ce2:	4611      	mov	r1, r2
 8000ce4:	461a      	mov	r2, r3
 8000ce6:	4623      	mov	r3, r4
 8000ce8:	71fb      	strb	r3, [r7, #7]
 8000cea:	4603      	mov	r3, r0
 8000cec:	71bb      	strb	r3, [r7, #6]
 8000cee:	460b      	mov	r3, r1
 8000cf0:	717b      	strb	r3, [r7, #5]
 8000cf2:	4613      	mov	r3, r2
 8000cf4:	713b      	strb	r3, [r7, #4]
    ST7735_WriteCommand(0x2A); // Column Address Set
 8000cf6:	202a      	movs	r0, #42	@ 0x2a
 8000cf8:	f000 f860 	bl	8000dbc <ST7735_WriteCommand>
    ST7735_WriteData(0x00);
 8000cfc:	2000      	movs	r0, #0
 8000cfe:	f000 f87b 	bl	8000df8 <ST7735_WriteData>
    ST7735_WriteData(x0);
 8000d02:	79fb      	ldrb	r3, [r7, #7]
 8000d04:	4618      	mov	r0, r3
 8000d06:	f000 f877 	bl	8000df8 <ST7735_WriteData>
    ST7735_WriteData(0x00);
 8000d0a:	2000      	movs	r0, #0
 8000d0c:	f000 f874 	bl	8000df8 <ST7735_WriteData>
    ST7735_WriteData(x1);
 8000d10:	797b      	ldrb	r3, [r7, #5]
 8000d12:	4618      	mov	r0, r3
 8000d14:	f000 f870 	bl	8000df8 <ST7735_WriteData>

    ST7735_WriteCommand(0x2B); // Row Address Set
 8000d18:	202b      	movs	r0, #43	@ 0x2b
 8000d1a:	f000 f84f 	bl	8000dbc <ST7735_WriteCommand>
    ST7735_WriteData(0x00);
 8000d1e:	2000      	movs	r0, #0
 8000d20:	f000 f86a 	bl	8000df8 <ST7735_WriteData>
    ST7735_WriteData(y0);
 8000d24:	79bb      	ldrb	r3, [r7, #6]
 8000d26:	4618      	mov	r0, r3
 8000d28:	f000 f866 	bl	8000df8 <ST7735_WriteData>
    ST7735_WriteData(0x00);
 8000d2c:	2000      	movs	r0, #0
 8000d2e:	f000 f863 	bl	8000df8 <ST7735_WriteData>
    ST7735_WriteData(y1);
 8000d32:	793b      	ldrb	r3, [r7, #4]
 8000d34:	4618      	mov	r0, r3
 8000d36:	f000 f85f 	bl	8000df8 <ST7735_WriteData>

    ST7735_WriteCommand(0x2C); // Memory Write
 8000d3a:	202c      	movs	r0, #44	@ 0x2c
 8000d3c:	f000 f83e 	bl	8000dbc <ST7735_WriteCommand>
}
 8000d40:	bf00      	nop
 8000d42:	370c      	adds	r7, #12
 8000d44:	46bd      	mov	sp, r7
 8000d46:	bd90      	pop	{r4, r7, pc}

08000d48 <ST7735_FillScreen>:
void ST7735_FillScreen(uint16_t color) {
 8000d48:	b580      	push	{r7, lr}
 8000d4a:	b084      	sub	sp, #16
 8000d4c:	af00      	add	r7, sp, #0
 8000d4e:	4603      	mov	r3, r0
 8000d50:	80fb      	strh	r3, [r7, #6]
    ST7735_SetAddressWindow(0, 0, 127, 159);
 8000d52:	239f      	movs	r3, #159	@ 0x9f
 8000d54:	227f      	movs	r2, #127	@ 0x7f
 8000d56:	2100      	movs	r1, #0
 8000d58:	2000      	movs	r0, #0
 8000d5a:	f7ff ffbd 	bl	8000cd8 <ST7735_SetAddressWindow>
    for (int i = 0; i < 128 * 160; i++) {
 8000d5e:	2300      	movs	r3, #0
 8000d60:	60fb      	str	r3, [r7, #12]
 8000d62:	e00e      	b.n	8000d82 <ST7735_FillScreen+0x3a>
            ST7735_WriteData(color >> 8);   // 색상의 상위 8비트
 8000d64:	88fb      	ldrh	r3, [r7, #6]
 8000d66:	0a1b      	lsrs	r3, r3, #8
 8000d68:	b29b      	uxth	r3, r3
 8000d6a:	b2db      	uxtb	r3, r3
 8000d6c:	4618      	mov	r0, r3
 8000d6e:	f000 f843 	bl	8000df8 <ST7735_WriteData>
            ST7735_WriteData(color & 0xFF); // 색상의 하위 8비트
 8000d72:	88fb      	ldrh	r3, [r7, #6]
 8000d74:	b2db      	uxtb	r3, r3
 8000d76:	4618      	mov	r0, r3
 8000d78:	f000 f83e 	bl	8000df8 <ST7735_WriteData>
    for (int i = 0; i < 128 * 160; i++) {
 8000d7c:	68fb      	ldr	r3, [r7, #12]
 8000d7e:	3301      	adds	r3, #1
 8000d80:	60fb      	str	r3, [r7, #12]
 8000d82:	68fb      	ldr	r3, [r7, #12]
 8000d84:	f5b3 4fa0 	cmp.w	r3, #20480	@ 0x5000
 8000d88:	dbec      	blt.n	8000d64 <ST7735_FillScreen+0x1c>
        }
}
 8000d8a:	bf00      	nop
 8000d8c:	bf00      	nop
 8000d8e:	3710      	adds	r7, #16
 8000d90:	46bd      	mov	sp, r7
 8000d92:	bd80      	pop	{r7, pc}

08000d94 <ST7735_HW_Reset>:
void ST7735_HW_Reset() {
 8000d94:	b580      	push	{r7, lr}
 8000d96:	af00      	add	r7, sp, #0
    RESET_pin_set();   // 1. 일단 High로 시작
 8000d98:	f000 f908 	bl	8000fac <RESET_pin_set>
    delay_ms(10);     // 잠시 대기
 8000d9c:	200a      	movs	r0, #10
 8000d9e:	f000 fd45 	bl	800182c <delay_ms>

    RESET_pin_reset(); // 2. Low로 떨어뜨려 리셋 신호 발생
 8000da2:	f000 f90f 	bl	8000fc4 <RESET_pin_reset>
    delay_ms(20);    // 데이터시트상 최소 시간 유지 (보통 10~20ms)
 8000da6:	2014      	movs	r0, #20
 8000da8:	f000 fd40 	bl	800182c <delay_ms>

    RESET_pin_set();   // 3. 다시 High로 올려서 리셋 종료
 8000dac:	f000 f8fe 	bl	8000fac <RESET_pin_set>
    delay_ms(100);    // 4. 칩이 내부 정리를 마칠 때까지 대기 (중요!)
 8000db0:	2064      	movs	r0, #100	@ 0x64
 8000db2:	f000 fd3b 	bl	800182c <delay_ms>
}
 8000db6:	bf00      	nop
 8000db8:	bd80      	pop	{r7, pc}
	...

08000dbc <ST7735_WriteCommand>:
void ST7735_WriteCommand(uint8_t cmd) {
 8000dbc:	b580      	push	{r7, lr}
 8000dbe:	b082      	sub	sp, #8
 8000dc0:	af00      	add	r7, sp, #0
 8000dc2:	4603      	mov	r3, r0
 8000dc4:	71fb      	strb	r3, [r7, #7]
    A0_pin_reset(); // A0를 Low로 내려서 지금 보내는 건 '명령어'라고 알림
 8000dc6:	f000 f8e5 	bl	8000f94 <A0_pin_reset>
    CS_ON();
 8000dca:	f000 fe01 	bl	80019d0 <CS_ON>
    SPI1_DMA_transfer(&cmd, 1);
 8000dce:	1dfb      	adds	r3, r7, #7
 8000dd0:	2101      	movs	r1, #1
 8000dd2:	4618      	mov	r0, r3
 8000dd4:	f000 fdb2 	bl	800193c <SPI1_DMA_transfer>
   // SPI1_WriteByte_Polling(cmd);
    while (SPI1->SR & (1 << 15));
 8000dd8:	bf00      	nop
 8000dda:	4b06      	ldr	r3, [pc, #24]	@ (8000df4 <ST7735_WriteCommand+0x38>)
 8000ddc:	689b      	ldr	r3, [r3, #8]
 8000dde:	f403 4300 	and.w	r3, r3, #32768	@ 0x8000
 8000de2:	2b00      	cmp	r3, #0
 8000de4:	d1f9      	bne.n	8000dda <ST7735_WriteCommand+0x1e>
    CS_OFF();
 8000de6:	f000 fdff 	bl	80019e8 <CS_OFF>
}
 8000dea:	bf00      	nop
 8000dec:	3708      	adds	r7, #8
 8000dee:	46bd      	mov	sp, r7
 8000df0:	bd80      	pop	{r7, pc}
 8000df2:	bf00      	nop
 8000df4:	40013000 	.word	0x40013000

08000df8 <ST7735_WriteData>:

void ST7735_WriteData(uint8_t data) {
 8000df8:	b580      	push	{r7, lr}
 8000dfa:	b082      	sub	sp, #8
 8000dfc:	af00      	add	r7, sp, #0
 8000dfe:	4603      	mov	r3, r0
 8000e00:	71fb      	strb	r3, [r7, #7]
    A0_pin_set();   // A0를 High로 올려서 지금 보내는 건 '데이터'라고 알림
 8000e02:	f000 f8bb 	bl	8000f7c <A0_pin_set>
    CS_ON();
 8000e06:	f000 fde3 	bl	80019d0 <CS_ON>
    SPI1_DMA_transfer(&data, 1);
 8000e0a:	1dfb      	adds	r3, r7, #7
 8000e0c:	2101      	movs	r1, #1
 8000e0e:	4618      	mov	r0, r3
 8000e10:	f000 fd94 	bl	800193c <SPI1_DMA_transfer>
   // SPI1_WriteByte_Polling(data);
    while (SPI1->SR & (1 << 15)); // BSY 확인
 8000e14:	bf00      	nop
 8000e16:	4b06      	ldr	r3, [pc, #24]	@ (8000e30 <ST7735_WriteData+0x38>)
 8000e18:	689b      	ldr	r3, [r3, #8]
 8000e1a:	f403 4300 	and.w	r3, r3, #32768	@ 0x8000
 8000e1e:	2b00      	cmp	r3, #0
 8000e20:	d1f9      	bne.n	8000e16 <ST7735_WriteData+0x1e>
    CS_OFF();
 8000e22:	f000 fde1 	bl	80019e8 <CS_OFF>
}
 8000e26:	bf00      	nop
 8000e28:	3708      	adds	r7, #8
 8000e2a:	46bd      	mov	sp, r7
 8000e2c:	bd80      	pop	{r7, pc}
 8000e2e:	bf00      	nop
 8000e30:	40013000 	.word	0x40013000

08000e34 <ST7735_WriteString>:
void ST7735_WriteString(uint16_t x, uint16_t y, const char* str, FontDef font, uint16_t color, uint16_t bgcolor) {
 8000e34:	b082      	sub	sp, #8
 8000e36:	b580      	push	{r7, lr}
 8000e38:	b086      	sub	sp, #24
 8000e3a:	af04      	add	r7, sp, #16
 8000e3c:	603a      	str	r2, [r7, #0]
 8000e3e:	617b      	str	r3, [r7, #20]
 8000e40:	4603      	mov	r3, r0
 8000e42:	80fb      	strh	r3, [r7, #6]
 8000e44:	460b      	mov	r3, r1
 8000e46:	80bb      	strh	r3, [r7, #4]
    while(*str) {
 8000e48:	e019      	b.n	8000e7e <ST7735_WriteString+0x4a>
        // 화면 범위를 벗어나면 다음 줄로 넘기거나 중단하는 로직을 넣을 수 있습니다.
        if(x + font.width >= 128) break;
 8000e4a:	88fb      	ldrh	r3, [r7, #6]
 8000e4c:	7d3a      	ldrb	r2, [r7, #20]
 8000e4e:	4413      	add	r3, r2
 8000e50:	2b7f      	cmp	r3, #127	@ 0x7f
 8000e52:	dc19      	bgt.n	8000e88 <ST7735_WriteString+0x54>

        ST7735_DrawChar(x, y, *str, font, color, bgcolor);
 8000e54:	683b      	ldr	r3, [r7, #0]
 8000e56:	781a      	ldrb	r2, [r3, #0]
 8000e58:	88b9      	ldrh	r1, [r7, #4]
 8000e5a:	88f8      	ldrh	r0, [r7, #6]
 8000e5c:	8c3b      	ldrh	r3, [r7, #32]
 8000e5e:	9302      	str	r3, [sp, #8]
 8000e60:	8bbb      	ldrh	r3, [r7, #28]
 8000e62:	9301      	str	r3, [sp, #4]
 8000e64:	69bb      	ldr	r3, [r7, #24]
 8000e66:	9300      	str	r3, [sp, #0]
 8000e68:	697b      	ldr	r3, [r7, #20]
 8000e6a:	f000 f815 	bl	8000e98 <ST7735_DrawChar>
        x += font.width; // 다음 글자 위치로 이동
 8000e6e:	7d3b      	ldrb	r3, [r7, #20]
 8000e70:	461a      	mov	r2, r3
 8000e72:	88fb      	ldrh	r3, [r7, #6]
 8000e74:	4413      	add	r3, r2
 8000e76:	80fb      	strh	r3, [r7, #6]
        str++;
 8000e78:	683b      	ldr	r3, [r7, #0]
 8000e7a:	3301      	adds	r3, #1
 8000e7c:	603b      	str	r3, [r7, #0]
    while(*str) {
 8000e7e:	683b      	ldr	r3, [r7, #0]
 8000e80:	781b      	ldrb	r3, [r3, #0]
 8000e82:	2b00      	cmp	r3, #0
 8000e84:	d1e1      	bne.n	8000e4a <ST7735_WriteString+0x16>
    }
}
 8000e86:	e000      	b.n	8000e8a <ST7735_WriteString+0x56>
        if(x + font.width >= 128) break;
 8000e88:	bf00      	nop
}
 8000e8a:	bf00      	nop
 8000e8c:	3708      	adds	r7, #8
 8000e8e:	46bd      	mov	sp, r7
 8000e90:	e8bd 4080 	ldmia.w	sp!, {r7, lr}
 8000e94:	b002      	add	sp, #8
 8000e96:	4770      	bx	lr

08000e98 <ST7735_DrawChar>:
void ST7735_DrawChar(uint16_t x, uint16_t y, char ch, FontDef font, uint16_t color, uint16_t bgcolor) {
 8000e98:	b082      	sub	sp, #8
 8000e9a:	b590      	push	{r4, r7, lr}
 8000e9c:	b087      	sub	sp, #28
 8000e9e:	af00      	add	r7, sp, #0
 8000ea0:	62fb      	str	r3, [r7, #44]	@ 0x2c
 8000ea2:	4603      	mov	r3, r0
 8000ea4:	80fb      	strh	r3, [r7, #6]
 8000ea6:	460b      	mov	r3, r1
 8000ea8:	80bb      	strh	r3, [r7, #4]
 8000eaa:	4613      	mov	r3, r2
 8000eac:	70fb      	strb	r3, [r7, #3]
    uint32_t i, b, j;

    // 1. 주소 창 설정 (글자 크기만큼)
    ST7735_SetAddressWindow(x, y, x + font.width - 1, y + font.height - 1);
 8000eae:	88fb      	ldrh	r3, [r7, #6]
 8000eb0:	b2d8      	uxtb	r0, r3
 8000eb2:	88bb      	ldrh	r3, [r7, #4]
 8000eb4:	b2d9      	uxtb	r1, r3
 8000eb6:	88fb      	ldrh	r3, [r7, #6]
 8000eb8:	b2da      	uxtb	r2, r3
 8000eba:	f897 302c 	ldrb.w	r3, [r7, #44]	@ 0x2c
 8000ebe:	4413      	add	r3, r2
 8000ec0:	b2db      	uxtb	r3, r3
 8000ec2:	3b01      	subs	r3, #1
 8000ec4:	b2dc      	uxtb	r4, r3
 8000ec6:	88bb      	ldrh	r3, [r7, #4]
 8000ec8:	b2da      	uxtb	r2, r3
 8000eca:	f897 302d 	ldrb.w	r3, [r7, #45]	@ 0x2d
 8000ece:	4413      	add	r3, r2
 8000ed0:	b2db      	uxtb	r3, r3
 8000ed2:	3b01      	subs	r3, #1
 8000ed4:	b2db      	uxtb	r3, r3
 8000ed6:	4622      	mov	r2, r4
 8000ed8:	f7ff fefe 	bl	8000cd8 <ST7735_SetAddressWindow>

    // 2. 폰트 데이터에서 해당 문자의 시작 위치 계산 (ASCII 32번 'Space'부터 시작함)
    for(i = 0; i < font.height; i++) {
 8000edc:	2300      	movs	r3, #0
 8000ede:	617b      	str	r3, [r7, #20]
 8000ee0:	e03d      	b.n	8000f5e <ST7735_DrawChar+0xc6>
        b = font.data[(ch - 32) * font.height + i];
 8000ee2:	6b3a      	ldr	r2, [r7, #48]	@ 0x30
 8000ee4:	78fb      	ldrb	r3, [r7, #3]
 8000ee6:	3b20      	subs	r3, #32
 8000ee8:	f897 102d 	ldrb.w	r1, [r7, #45]	@ 0x2d
 8000eec:	fb01 f303 	mul.w	r3, r1, r3
 8000ef0:	4619      	mov	r1, r3
 8000ef2:	697b      	ldr	r3, [r7, #20]
 8000ef4:	440b      	add	r3, r1
 8000ef6:	005b      	lsls	r3, r3, #1
 8000ef8:	4413      	add	r3, r2
 8000efa:	881b      	ldrh	r3, [r3, #0]
 8000efc:	60fb      	str	r3, [r7, #12]
        for(j = 0; j < font.width; j++) {
 8000efe:	2300      	movs	r3, #0
 8000f00:	613b      	str	r3, [r7, #16]
 8000f02:	e023      	b.n	8000f4c <ST7735_DrawChar+0xb4>
            // 비트가 1이면 글자색, 0이면 배경색 (MSB부터 검사)
            if((b << j) & 0x8000)  {
 8000f04:	68fa      	ldr	r2, [r7, #12]
 8000f06:	693b      	ldr	r3, [r7, #16]
 8000f08:	fa02 f303 	lsl.w	r3, r2, r3
 8000f0c:	f403 4300 	and.w	r3, r3, #32768	@ 0x8000
 8000f10:	2b00      	cmp	r3, #0
 8000f12:	d00c      	beq.n	8000f2e <ST7735_DrawChar+0x96>
                ST7735_WriteData(color >> 8);
 8000f14:	8ebb      	ldrh	r3, [r7, #52]	@ 0x34
 8000f16:	0a1b      	lsrs	r3, r3, #8
 8000f18:	b29b      	uxth	r3, r3
 8000f1a:	b2db      	uxtb	r3, r3
 8000f1c:	4618      	mov	r0, r3
 8000f1e:	f7ff ff6b 	bl	8000df8 <ST7735_WriteData>
                ST7735_WriteData(color & 0xFF);
 8000f22:	8ebb      	ldrh	r3, [r7, #52]	@ 0x34
 8000f24:	b2db      	uxtb	r3, r3
 8000f26:	4618      	mov	r0, r3
 8000f28:	f7ff ff66 	bl	8000df8 <ST7735_WriteData>
 8000f2c:	e00b      	b.n	8000f46 <ST7735_DrawChar+0xae>
            } else {
                ST7735_WriteData(bgcolor >> 8);
 8000f2e:	8f3b      	ldrh	r3, [r7, #56]	@ 0x38
 8000f30:	0a1b      	lsrs	r3, r3, #8
 8000f32:	b29b      	uxth	r3, r3
 8000f34:	b2db      	uxtb	r3, r3
 8000f36:	4618      	mov	r0, r3
 8000f38:	f7ff ff5e 	bl	8000df8 <ST7735_WriteData>
                ST7735_WriteData(bgcolor & 0xFF);
 8000f3c:	8f3b      	ldrh	r3, [r7, #56]	@ 0x38
 8000f3e:	b2db      	uxtb	r3, r3
 8000f40:	4618      	mov	r0, r3
 8000f42:	f7ff ff59 	bl	8000df8 <ST7735_WriteData>
        for(j = 0; j < font.width; j++) {
 8000f46:	693b      	ldr	r3, [r7, #16]
 8000f48:	3301      	adds	r3, #1
 8000f4a:	613b      	str	r3, [r7, #16]
 8000f4c:	f897 302c 	ldrb.w	r3, [r7, #44]	@ 0x2c
 8000f50:	461a      	mov	r2, r3
 8000f52:	693b      	ldr	r3, [r7, #16]
 8000f54:	4293      	cmp	r3, r2
 8000f56:	d3d5      	bcc.n	8000f04 <ST7735_DrawChar+0x6c>
    for(i = 0; i < font.height; i++) {
 8000f58:	697b      	ldr	r3, [r7, #20]
 8000f5a:	3301      	adds	r3, #1
 8000f5c:	617b      	str	r3, [r7, #20]
 8000f5e:	f897 302d 	ldrb.w	r3, [r7, #45]	@ 0x2d
 8000f62:	461a      	mov	r2, r3
 8000f64:	697b      	ldr	r3, [r7, #20]
 8000f66:	4293      	cmp	r3, r2
 8000f68:	d3bb      	bcc.n	8000ee2 <ST7735_DrawChar+0x4a>
            }
        }
    }
}
 8000f6a:	bf00      	nop
 8000f6c:	bf00      	nop
 8000f6e:	371c      	adds	r7, #28
 8000f70:	46bd      	mov	sp, r7
 8000f72:	e8bd 4090 	ldmia.w	sp!, {r4, r7, lr}
 8000f76:	b002      	add	sp, #8
 8000f78:	4770      	bx	lr
	...

08000f7c <A0_pin_set>:
void A0_pin_set(){
 8000f7c:	b580      	push	{r7, lr}
 8000f7e:	af00      	add	r7, sp, #0
	GPIO_Write_Pin(GPIOF, 12, 1);
 8000f80:	2201      	movs	r2, #1
 8000f82:	210c      	movs	r1, #12
 8000f84:	4802      	ldr	r0, [pc, #8]	@ (8000f90 <A0_pin_set+0x14>)
 8000f86:	f000 f84c 	bl	8001022 <GPIO_Write_Pin>
}
 8000f8a:	bf00      	nop
 8000f8c:	bd80      	pop	{r7, pc}
 8000f8e:	bf00      	nop
 8000f90:	40021400 	.word	0x40021400

08000f94 <A0_pin_reset>:
void A0_pin_reset(){
 8000f94:	b580      	push	{r7, lr}
 8000f96:	af00      	add	r7, sp, #0
	GPIO_Write_Pin(GPIOF, 12, 0);
 8000f98:	2200      	movs	r2, #0
 8000f9a:	210c      	movs	r1, #12
 8000f9c:	4802      	ldr	r0, [pc, #8]	@ (8000fa8 <A0_pin_reset+0x14>)
 8000f9e:	f000 f840 	bl	8001022 <GPIO_Write_Pin>
}
 8000fa2:	bf00      	nop
 8000fa4:	bd80      	pop	{r7, pc}
 8000fa6:	bf00      	nop
 8000fa8:	40021400 	.word	0x40021400

08000fac <RESET_pin_set>:
void RESET_pin_set(){
 8000fac:	b580      	push	{r7, lr}
 8000fae:	af00      	add	r7, sp, #0
	GPIO_Write_Pin(GPIOF, 13, 1);
 8000fb0:	2201      	movs	r2, #1
 8000fb2:	210d      	movs	r1, #13
 8000fb4:	4802      	ldr	r0, [pc, #8]	@ (8000fc0 <RESET_pin_set+0x14>)
 8000fb6:	f000 f834 	bl	8001022 <GPIO_Write_Pin>
}
 8000fba:	bf00      	nop
 8000fbc:	bd80      	pop	{r7, pc}
 8000fbe:	bf00      	nop
 8000fc0:	40021400 	.word	0x40021400

08000fc4 <RESET_pin_reset>:
void RESET_pin_reset(){
 8000fc4:	b580      	push	{r7, lr}
 8000fc6:	af00      	add	r7, sp, #0
	GPIO_Write_Pin(GPIOF, 13, 0);
 8000fc8:	2200      	movs	r2, #0
 8000fca:	210d      	movs	r1, #13
 8000fcc:	4802      	ldr	r0, [pc, #8]	@ (8000fd8 <RESET_pin_reset+0x14>)
 8000fce:	f000 f828 	bl	8001022 <GPIO_Write_Pin>
}
 8000fd2:	bf00      	nop
 8000fd4:	bd80      	pop	{r7, pc}
 8000fd6:	bf00      	nop
 8000fd8:	40021400 	.word	0x40021400

08000fdc <GPIO_pin_Mode>:
#include "gpio.h"

void GPIO_pin_Mode(Gpio_Struct* GPIOx, uint8_t pin, uint8_t mode){
 8000fdc:	b480      	push	{r7}
 8000fde:	b083      	sub	sp, #12
 8000fe0:	af00      	add	r7, sp, #0
 8000fe2:	6078      	str	r0, [r7, #4]
 8000fe4:	460b      	mov	r3, r1
 8000fe6:	70fb      	strb	r3, [r7, #3]
 8000fe8:	4613      	mov	r3, r2
 8000fea:	70bb      	strb	r3, [r7, #2]
	GPIOx->MODER &= ~(3UL << (pin * 2)); // 초기화
 8000fec:	687b      	ldr	r3, [r7, #4]
 8000fee:	681a      	ldr	r2, [r3, #0]
 8000ff0:	78fb      	ldrb	r3, [r7, #3]
 8000ff2:	005b      	lsls	r3, r3, #1
 8000ff4:	2103      	movs	r1, #3
 8000ff6:	fa01 f303 	lsl.w	r3, r1, r3
 8000ffa:	43db      	mvns	r3, r3
 8000ffc:	401a      	ands	r2, r3
 8000ffe:	687b      	ldr	r3, [r7, #4]
 8001000:	601a      	str	r2, [r3, #0]
	GPIOx->MODER |= (mode<<(pin*2));
 8001002:	687b      	ldr	r3, [r7, #4]
 8001004:	681b      	ldr	r3, [r3, #0]
 8001006:	78b9      	ldrb	r1, [r7, #2]
 8001008:	78fa      	ldrb	r2, [r7, #3]
 800100a:	0052      	lsls	r2, r2, #1
 800100c:	fa01 f202 	lsl.w	r2, r1, r2
 8001010:	431a      	orrs	r2, r3
 8001012:	687b      	ldr	r3, [r7, #4]
 8001014:	601a      	str	r2, [r3, #0]
}
 8001016:	bf00      	nop
 8001018:	370c      	adds	r7, #12
 800101a:	46bd      	mov	sp, r7
 800101c:	f85d 7b04 	ldr.w	r7, [sp], #4
 8001020:	4770      	bx	lr

08001022 <GPIO_Write_Pin>:

void GPIO_Write_Pin(Gpio_Struct* GPIOx, uint8_t pin, uint8_t logic){
 8001022:	b480      	push	{r7}
 8001024:	b083      	sub	sp, #12
 8001026:	af00      	add	r7, sp, #0
 8001028:	6078      	str	r0, [r7, #4]
 800102a:	460b      	mov	r3, r1
 800102c:	70fb      	strb	r3, [r7, #3]
 800102e:	4613      	mov	r3, r2
 8001030:	70bb      	strb	r3, [r7, #2]
	if(logic) GPIOx->BSRR = (1 << pin);
 8001032:	78bb      	ldrb	r3, [r7, #2]
 8001034:	2b00      	cmp	r3, #0
 8001036:	d007      	beq.n	8001048 <GPIO_Write_Pin+0x26>
 8001038:	78fb      	ldrb	r3, [r7, #3]
 800103a:	2201      	movs	r2, #1
 800103c:	fa02 f303 	lsl.w	r3, r2, r3
 8001040:	461a      	mov	r2, r3
 8001042:	687b      	ldr	r3, [r7, #4]
 8001044:	619a      	str	r2, [r3, #24]
	else GPIOx->BSRR = (1 << (pin+16));
}
 8001046:	e007      	b.n	8001058 <GPIO_Write_Pin+0x36>
	else GPIOx->BSRR = (1 << (pin+16));
 8001048:	78fb      	ldrb	r3, [r7, #3]
 800104a:	3310      	adds	r3, #16
 800104c:	2201      	movs	r2, #1
 800104e:	fa02 f303 	lsl.w	r3, r2, r3
 8001052:	461a      	mov	r2, r3
 8001054:	687b      	ldr	r3, [r7, #4]
 8001056:	619a      	str	r2, [r3, #24]
}
 8001058:	bf00      	nop
 800105a:	370c      	adds	r7, #12
 800105c:	46bd      	mov	sp, r7
 800105e:	f85d 7b04 	ldr.w	r7, [sp], #4
 8001062:	4770      	bx	lr

08001064 <GPIO_Clock_Enable>:

uint8_t GPIO_Read_Pin(Gpio_Struct* GPIOx, uint8_t pin){
	return ((GPIOx->IDR & (1 << pin)) ? 1 : 0);
}
void GPIO_Clock_Enable(Gpio_Struct* GPIOx) {
 8001064:	b480      	push	{r7}
 8001066:	b085      	sub	sp, #20
 8001068:	af00      	add	r7, sp, #0
 800106a:	6078      	str	r0, [r7, #4]
    if      (GPIOx == GPIOA) RCC->AHB1ENR |= (1 << 0);
 800106c:	687b      	ldr	r3, [r7, #4]
 800106e:	4a40      	ldr	r2, [pc, #256]	@ (8001170 <GPIO_Clock_Enable+0x10c>)
 8001070:	4293      	cmp	r3, r2
 8001072:	d106      	bne.n	8001082 <GPIO_Clock_Enable+0x1e>
 8001074:	4b3f      	ldr	r3, [pc, #252]	@ (8001174 <GPIO_Clock_Enable+0x110>)
 8001076:	6b1b      	ldr	r3, [r3, #48]	@ 0x30
 8001078:	4a3e      	ldr	r2, [pc, #248]	@ (8001174 <GPIO_Clock_Enable+0x110>)
 800107a:	f043 0301 	orr.w	r3, r3, #1
 800107e:	6313      	str	r3, [r2, #48]	@ 0x30
 8001080:	e06c      	b.n	800115c <GPIO_Clock_Enable+0xf8>
    else if (GPIOx == GPIOB) RCC->AHB1ENR |= (1 << 1);
 8001082:	687b      	ldr	r3, [r7, #4]
 8001084:	4a3c      	ldr	r2, [pc, #240]	@ (8001178 <GPIO_Clock_Enable+0x114>)
 8001086:	4293      	cmp	r3, r2
 8001088:	d106      	bne.n	8001098 <GPIO_Clock_Enable+0x34>
 800108a:	4b3a      	ldr	r3, [pc, #232]	@ (8001174 <GPIO_Clock_Enable+0x110>)
 800108c:	6b1b      	ldr	r3, [r3, #48]	@ 0x30
 800108e:	4a39      	ldr	r2, [pc, #228]	@ (8001174 <GPIO_Clock_Enable+0x110>)
 8001090:	f043 0302 	orr.w	r3, r3, #2
 8001094:	6313      	str	r3, [r2, #48]	@ 0x30
 8001096:	e061      	b.n	800115c <GPIO_Clock_Enable+0xf8>
    else if (GPIOx == GPIOC) RCC->AHB1ENR |= (1 << 2);
 8001098:	687b      	ldr	r3, [r7, #4]
 800109a:	4a38      	ldr	r2, [pc, #224]	@ (800117c <GPIO_Clock_Enable+0x118>)
 800109c:	4293      	cmp	r3, r2
 800109e:	d106      	bne.n	80010ae <GPIO_Clock_Enable+0x4a>
 80010a0:	4b34      	ldr	r3, [pc, #208]	@ (8001174 <GPIO_Clock_Enable+0x110>)
 80010a2:	6b1b      	ldr	r3, [r3, #48]	@ 0x30
 80010a4:	4a33      	ldr	r2, [pc, #204]	@ (8001174 <GPIO_Clock_Enable+0x110>)
 80010a6:	f043 0304 	orr.w	r3, r3, #4
 80010aa:	6313      	str	r3, [r2, #48]	@ 0x30
 80010ac:	e056      	b.n	800115c <GPIO_Clock_Enable+0xf8>
    else if (GPIOx == GPIOD) RCC->AHB1ENR |= (1 << 3);
 80010ae:	687b      	ldr	r3, [r7, #4]
 80010b0:	4a33      	ldr	r2, [pc, #204]	@ (8001180 <GPIO_Clock_Enable+0x11c>)
 80010b2:	4293      	cmp	r3, r2
 80010b4:	d106      	bne.n	80010c4 <GPIO_Clock_Enable+0x60>
 80010b6:	4b2f      	ldr	r3, [pc, #188]	@ (8001174 <GPIO_Clock_Enable+0x110>)
 80010b8:	6b1b      	ldr	r3, [r3, #48]	@ 0x30
 80010ba:	4a2e      	ldr	r2, [pc, #184]	@ (8001174 <GPIO_Clock_Enable+0x110>)
 80010bc:	f043 0308 	orr.w	r3, r3, #8
 80010c0:	6313      	str	r3, [r2, #48]	@ 0x30
 80010c2:	e04b      	b.n	800115c <GPIO_Clock_Enable+0xf8>
    else if (GPIOx == GPIOE) RCC->AHB1ENR |= (1 << 4);
 80010c4:	687b      	ldr	r3, [r7, #4]
 80010c6:	4a2f      	ldr	r2, [pc, #188]	@ (8001184 <GPIO_Clock_Enable+0x120>)
 80010c8:	4293      	cmp	r3, r2
 80010ca:	d106      	bne.n	80010da <GPIO_Clock_Enable+0x76>
 80010cc:	4b29      	ldr	r3, [pc, #164]	@ (8001174 <GPIO_Clock_Enable+0x110>)
 80010ce:	6b1b      	ldr	r3, [r3, #48]	@ 0x30
 80010d0:	4a28      	ldr	r2, [pc, #160]	@ (8001174 <GPIO_Clock_Enable+0x110>)
 80010d2:	f043 0310 	orr.w	r3, r3, #16
 80010d6:	6313      	str	r3, [r2, #48]	@ 0x30
 80010d8:	e040      	b.n	800115c <GPIO_Clock_Enable+0xf8>
    else if (GPIOx == GPIOF) RCC->AHB1ENR |= (1 << 5);
 80010da:	687b      	ldr	r3, [r7, #4]
 80010dc:	4a2a      	ldr	r2, [pc, #168]	@ (8001188 <GPIO_Clock_Enable+0x124>)
 80010de:	4293      	cmp	r3, r2
 80010e0:	d106      	bne.n	80010f0 <GPIO_Clock_Enable+0x8c>
 80010e2:	4b24      	ldr	r3, [pc, #144]	@ (8001174 <GPIO_Clock_Enable+0x110>)
 80010e4:	6b1b      	ldr	r3, [r3, #48]	@ 0x30
 80010e6:	4a23      	ldr	r2, [pc, #140]	@ (8001174 <GPIO_Clock_Enable+0x110>)
 80010e8:	f043 0320 	orr.w	r3, r3, #32
 80010ec:	6313      	str	r3, [r2, #48]	@ 0x30
 80010ee:	e035      	b.n	800115c <GPIO_Clock_Enable+0xf8>
    else if (GPIOx == GPIOG) RCC->AHB1ENR |= (1 << 6);
 80010f0:	687b      	ldr	r3, [r7, #4]
 80010f2:	4a26      	ldr	r2, [pc, #152]	@ (800118c <GPIO_Clock_Enable+0x128>)
 80010f4:	4293      	cmp	r3, r2
 80010f6:	d106      	bne.n	8001106 <GPIO_Clock_Enable+0xa2>
 80010f8:	4b1e      	ldr	r3, [pc, #120]	@ (8001174 <GPIO_Clock_Enable+0x110>)
 80010fa:	6b1b      	ldr	r3, [r3, #48]	@ 0x30
 80010fc:	4a1d      	ldr	r2, [pc, #116]	@ (8001174 <GPIO_Clock_Enable+0x110>)
 80010fe:	f043 0340 	orr.w	r3, r3, #64	@ 0x40
 8001102:	6313      	str	r3, [r2, #48]	@ 0x30
 8001104:	e02a      	b.n	800115c <GPIO_Clock_Enable+0xf8>
    else if (GPIOx == GPIOH) RCC->AHB1ENR |= (1 << 7);
 8001106:	687b      	ldr	r3, [r7, #4]
 8001108:	4a21      	ldr	r2, [pc, #132]	@ (8001190 <GPIO_Clock_Enable+0x12c>)
 800110a:	4293      	cmp	r3, r2
 800110c:	d106      	bne.n	800111c <GPIO_Clock_Enable+0xb8>
 800110e:	4b19      	ldr	r3, [pc, #100]	@ (8001174 <GPIO_Clock_Enable+0x110>)
 8001110:	6b1b      	ldr	r3, [r3, #48]	@ 0x30
 8001112:	4a18      	ldr	r2, [pc, #96]	@ (8001174 <GPIO_Clock_Enable+0x110>)
 8001114:	f043 0380 	orr.w	r3, r3, #128	@ 0x80
 8001118:	6313      	str	r3, [r2, #48]	@ 0x30
 800111a:	e01f      	b.n	800115c <GPIO_Clock_Enable+0xf8>
    else if (GPIOx == GPIOI) RCC->AHB1ENR |= (1 << 8);
 800111c:	687b      	ldr	r3, [r7, #4]
 800111e:	4a1d      	ldr	r2, [pc, #116]	@ (8001194 <GPIO_Clock_Enable+0x130>)
 8001120:	4293      	cmp	r3, r2
 8001122:	d106      	bne.n	8001132 <GPIO_Clock_Enable+0xce>
 8001124:	4b13      	ldr	r3, [pc, #76]	@ (8001174 <GPIO_Clock_Enable+0x110>)
 8001126:	6b1b      	ldr	r3, [r3, #48]	@ 0x30
 8001128:	4a12      	ldr	r2, [pc, #72]	@ (8001174 <GPIO_Clock_Enable+0x110>)
 800112a:	f443 7380 	orr.w	r3, r3, #256	@ 0x100
 800112e:	6313      	str	r3, [r2, #48]	@ 0x30
 8001130:	e014      	b.n	800115c <GPIO_Clock_Enable+0xf8>
    else if (GPIOx == GPIOJ) RCC->AHB1ENR |= (1 << 9);
 8001132:	687b      	ldr	r3, [r7, #4]
 8001134:	4a18      	ldr	r2, [pc, #96]	@ (8001198 <GPIO_Clock_Enable+0x134>)
 8001136:	4293      	cmp	r3, r2
 8001138:	d106      	bne.n	8001148 <GPIO_Clock_Enable+0xe4>
 800113a:	4b0e      	ldr	r3, [pc, #56]	@ (8001174 <GPIO_Clock_Enable+0x110>)
 800113c:	6b1b      	ldr	r3, [r3, #48]	@ 0x30
 800113e:	4a0d      	ldr	r2, [pc, #52]	@ (8001174 <GPIO_Clock_Enable+0x110>)
 8001140:	f443 7300 	orr.w	r3, r3, #512	@ 0x200
 8001144:	6313      	str	r3, [r2, #48]	@ 0x30
 8001146:	e009      	b.n	800115c <GPIO_Clock_Enable+0xf8>
    else if (GPIOx == GPIOK) RCC->AHB1ENR |= (1 << 10);
 8001148:	687b      	ldr	r3, [r7, #4]
 800114a:	4a14      	ldr	r2, [pc, #80]	@ (800119c <GPIO_Clock_Enable+0x138>)
 800114c:	4293      	cmp	r3, r2
 800114e:	d105      	bne.n	800115c <GPIO_Clock_Enable+0xf8>
 8001150:	4b08      	ldr	r3, [pc, #32]	@ (8001174 <GPIO_Clock_Enable+0x110>)
 8001152:	6b1b      	ldr	r3, [r3, #48]	@ 0x30
 8001154:	4a07      	ldr	r2, [pc, #28]	@ (8001174 <GPIO_Clock_Enable+0x110>)
 8001156:	f443 6380 	orr.w	r3, r3, #1024	@ 0x400
 800115a:	6313      	str	r3, [r2, #48]	@ 0x30

    volatile uint32_t dummy = RCC->AHB1ENR;
 800115c:	4b05      	ldr	r3, [pc, #20]	@ (8001174 <GPIO_Clock_Enable+0x110>)
 800115e:	6b1b      	ldr	r3, [r3, #48]	@ 0x30
 8001160:	60fb      	str	r3, [r7, #12]
    (void)dummy;
 8001162:	68fb      	ldr	r3, [r7, #12]
}
 8001164:	bf00      	nop
 8001166:	3714      	adds	r7, #20
 8001168:	46bd      	mov	sp, r7
 800116a:	f85d 7b04 	ldr.w	r7, [sp], #4
 800116e:	4770      	bx	lr
 8001170:	40020000 	.word	0x40020000
 8001174:	40023800 	.word	0x40023800
 8001178:	40020400 	.word	0x40020400
 800117c:	40020800 	.word	0x40020800
 8001180:	40020c00 	.word	0x40020c00
 8001184:	40021000 	.word	0x40021000
 8001188:	40021400 	.word	0x40021400
 800118c:	40021800 	.word	0x40021800
 8001190:	40021c00 	.word	0x40021c00
 8001194:	40022000 	.word	0x40022000
 8001198:	40022400 	.word	0x40022400
 800119c:	40022800 	.word	0x40022800

080011a0 <GPIO_Speed_Set>:

void GPIO_Speed_Set(Gpio_Struct* GPIOx, uint8_t pin, uint8_t speed){
 80011a0:	b480      	push	{r7}
 80011a2:	b083      	sub	sp, #12
 80011a4:	af00      	add	r7, sp, #0
 80011a6:	6078      	str	r0, [r7, #4]
 80011a8:	460b      	mov	r3, r1
 80011aa:	70fb      	strb	r3, [r7, #3]
 80011ac:	4613      	mov	r3, r2
 80011ae:	70bb      	strb	r3, [r7, #2]
	GPIOx->OSPEEDR &= ~(3UL << (pin * 2));
 80011b0:	687b      	ldr	r3, [r7, #4]
 80011b2:	689a      	ldr	r2, [r3, #8]
 80011b4:	78fb      	ldrb	r3, [r7, #3]
 80011b6:	005b      	lsls	r3, r3, #1
 80011b8:	2103      	movs	r1, #3
 80011ba:	fa01 f303 	lsl.w	r3, r1, r3
 80011be:	43db      	mvns	r3, r3
 80011c0:	401a      	ands	r2, r3
 80011c2:	687b      	ldr	r3, [r7, #4]
 80011c4:	609a      	str	r2, [r3, #8]
	GPIOx->OSPEEDR |= (speed<<(pin*2));
 80011c6:	687b      	ldr	r3, [r7, #4]
 80011c8:	689b      	ldr	r3, [r3, #8]
 80011ca:	78b9      	ldrb	r1, [r7, #2]
 80011cc:	78fa      	ldrb	r2, [r7, #3]
 80011ce:	0052      	lsls	r2, r2, #1
 80011d0:	fa01 f202 	lsl.w	r2, r1, r2
 80011d4:	431a      	orrs	r2, r3
 80011d6:	687b      	ldr	r3, [r7, #4]
 80011d8:	609a      	str	r2, [r3, #8]
}
 80011da:	bf00      	nop
 80011dc:	370c      	adds	r7, #12
 80011de:	46bd      	mov	sp, r7
 80011e0:	f85d 7b04 	ldr.w	r7, [sp], #4
 80011e4:	4770      	bx	lr
	...

080011e8 <PWM_TIM5_CH1_Init>:
#include <gpwm.h>
#include "gpio.h"

//PA0
void PWM_TIM5_CH1_Init(uint32_t freq){
 80011e8:	b480      	push	{r7}
 80011ea:	b083      	sub	sp, #12
 80011ec:	af00      	add	r7, sp, #0
 80011ee:	6078      	str	r0, [r7, #4]
	RCC->AHB1ENR |= (1<<0);
 80011f0:	4b30      	ldr	r3, [pc, #192]	@ (80012b4 <PWM_TIM5_CH1_Init+0xcc>)
 80011f2:	6b1b      	ldr	r3, [r3, #48]	@ 0x30
 80011f4:	4a2f      	ldr	r2, [pc, #188]	@ (80012b4 <PWM_TIM5_CH1_Init+0xcc>)
 80011f6:	f043 0301 	orr.w	r3, r3, #1
 80011fa:	6313      	str	r3, [r2, #48]	@ 0x30
	RCC->APB1ENR |= (1<<3);
 80011fc:	4b2d      	ldr	r3, [pc, #180]	@ (80012b4 <PWM_TIM5_CH1_Init+0xcc>)
 80011fe:	6c1b      	ldr	r3, [r3, #64]	@ 0x40
 8001200:	4a2c      	ldr	r2, [pc, #176]	@ (80012b4 <PWM_TIM5_CH1_Init+0xcc>)
 8001202:	f043 0308 	orr.w	r3, r3, #8
 8001206:	6413      	str	r3, [r2, #64]	@ 0x40

	GPIOA->MODER &= ~(3<<(0*2));
 8001208:	4b2b      	ldr	r3, [pc, #172]	@ (80012b8 <PWM_TIM5_CH1_Init+0xd0>)
 800120a:	681b      	ldr	r3, [r3, #0]
 800120c:	4a2a      	ldr	r2, [pc, #168]	@ (80012b8 <PWM_TIM5_CH1_Init+0xd0>)
 800120e:	f023 0303 	bic.w	r3, r3, #3
 8001212:	6013      	str	r3, [r2, #0]
	GPIOA->MODER |= (2<<(0*2));
 8001214:	4b28      	ldr	r3, [pc, #160]	@ (80012b8 <PWM_TIM5_CH1_Init+0xd0>)
 8001216:	681b      	ldr	r3, [r3, #0]
 8001218:	4a27      	ldr	r2, [pc, #156]	@ (80012b8 <PWM_TIM5_CH1_Init+0xd0>)
 800121a:	f043 0302 	orr.w	r3, r3, #2
 800121e:	6013      	str	r3, [r2, #0]

	GPIOA->AFRL &= ~(0xF<<(0*4));
 8001220:	4b25      	ldr	r3, [pc, #148]	@ (80012b8 <PWM_TIM5_CH1_Init+0xd0>)
 8001222:	6a1b      	ldr	r3, [r3, #32]
 8001224:	4a24      	ldr	r2, [pc, #144]	@ (80012b8 <PWM_TIM5_CH1_Init+0xd0>)
 8001226:	f023 030f 	bic.w	r3, r3, #15
 800122a:	6213      	str	r3, [r2, #32]
	GPIOA->AFRL |=  (0x02 << (0 * 4));
 800122c:	4b22      	ldr	r3, [pc, #136]	@ (80012b8 <PWM_TIM5_CH1_Init+0xd0>)
 800122e:	6a1b      	ldr	r3, [r3, #32]
 8001230:	4a21      	ldr	r2, [pc, #132]	@ (80012b8 <PWM_TIM5_CH1_Init+0xd0>)
 8001232:	f043 0302 	orr.w	r3, r3, #2
 8001236:	6213      	str	r3, [r2, #32]
	GPIOA->OSPEEDR |= (3<<(0*2));
 8001238:	4b1f      	ldr	r3, [pc, #124]	@ (80012b8 <PWM_TIM5_CH1_Init+0xd0>)
 800123a:	689b      	ldr	r3, [r3, #8]
 800123c:	4a1e      	ldr	r2, [pc, #120]	@ (80012b8 <PWM_TIM5_CH1_Init+0xd0>)
 800123e:	f043 0303 	orr.w	r3, r3, #3
 8001242:	6093      	str	r3, [r2, #8]

	TIM5->PSC = 0; //분주비0 108Mhz
 8001244:	4b1d      	ldr	r3, [pc, #116]	@ (80012bc <PWM_TIM5_CH1_Init+0xd4>)
 8001246:	2200      	movs	r2, #0
 8001248:	629a      	str	r2, [r3, #40]	@ 0x28
	TIM5->ARR = (108000000 / freq) - 1;
 800124a:	4a1d      	ldr	r2, [pc, #116]	@ (80012c0 <PWM_TIM5_CH1_Init+0xd8>)
 800124c:	687b      	ldr	r3, [r7, #4]
 800124e:	fbb2 f3f3 	udiv	r3, r2, r3
 8001252:	4a1a      	ldr	r2, [pc, #104]	@ (80012bc <PWM_TIM5_CH1_Init+0xd4>)
 8001254:	3b01      	subs	r3, #1
 8001256:	62d3      	str	r3, [r2, #44]	@ 0x2c

	TIM5->CCMR1 &= ~(7 << 4); // 기존 4,5,6번 비트 청소
 8001258:	4b18      	ldr	r3, [pc, #96]	@ (80012bc <PWM_TIM5_CH1_Init+0xd4>)
 800125a:	699b      	ldr	r3, [r3, #24]
 800125c:	4a17      	ldr	r2, [pc, #92]	@ (80012bc <PWM_TIM5_CH1_Init+0xd4>)
 800125e:	f023 0370 	bic.w	r3, r3, #112	@ 0x70
 8001262:	6193      	str	r3, [r2, #24]
	TIM5->CCMR1 |= (6 << 4);  // PWM Mode 1
 8001264:	4b15      	ldr	r3, [pc, #84]	@ (80012bc <PWM_TIM5_CH1_Init+0xd4>)
 8001266:	699b      	ldr	r3, [r3, #24]
 8001268:	4a14      	ldr	r2, [pc, #80]	@ (80012bc <PWM_TIM5_CH1_Init+0xd4>)
 800126a:	f043 0360 	orr.w	r3, r3, #96	@ 0x60
 800126e:	6193      	str	r3, [r2, #24]
	TIM5->CCMR1 |= (1<<3); //preload
 8001270:	4b12      	ldr	r3, [pc, #72]	@ (80012bc <PWM_TIM5_CH1_Init+0xd4>)
 8001272:	699b      	ldr	r3, [r3, #24]
 8001274:	4a11      	ldr	r2, [pc, #68]	@ (80012bc <PWM_TIM5_CH1_Init+0xd4>)
 8001276:	f043 0308 	orr.w	r3, r3, #8
 800127a:	6193      	str	r3, [r2, #24]

	TIM5->CCER |= (1<<0);
 800127c:	4b0f      	ldr	r3, [pc, #60]	@ (80012bc <PWM_TIM5_CH1_Init+0xd4>)
 800127e:	6a1b      	ldr	r3, [r3, #32]
 8001280:	4a0e      	ldr	r2, [pc, #56]	@ (80012bc <PWM_TIM5_CH1_Init+0xd4>)
 8001282:	f043 0301 	orr.w	r3, r3, #1
 8001286:	6213      	str	r3, [r2, #32]

	TIM5->CR1 |= (1<<0);
 8001288:	4b0c      	ldr	r3, [pc, #48]	@ (80012bc <PWM_TIM5_CH1_Init+0xd4>)
 800128a:	681b      	ldr	r3, [r3, #0]
 800128c:	4a0b      	ldr	r2, [pc, #44]	@ (80012bc <PWM_TIM5_CH1_Init+0xd4>)
 800128e:	f043 0301 	orr.w	r3, r3, #1
 8001292:	6013      	str	r3, [r2, #0]
	TIM5->CR1 |= (1<<7);
 8001294:	4b09      	ldr	r3, [pc, #36]	@ (80012bc <PWM_TIM5_CH1_Init+0xd4>)
 8001296:	681b      	ldr	r3, [r3, #0]
 8001298:	4a08      	ldr	r2, [pc, #32]	@ (80012bc <PWM_TIM5_CH1_Init+0xd4>)
 800129a:	f043 0380 	orr.w	r3, r3, #128	@ 0x80
 800129e:	6013      	str	r3, [r2, #0]

	TIM5->CCR1 = 0; //초기듀티 0;
 80012a0:	4b06      	ldr	r3, [pc, #24]	@ (80012bc <PWM_TIM5_CH1_Init+0xd4>)
 80012a2:	2200      	movs	r2, #0
 80012a4:	635a      	str	r2, [r3, #52]	@ 0x34

}
 80012a6:	bf00      	nop
 80012a8:	370c      	adds	r7, #12
 80012aa:	46bd      	mov	sp, r7
 80012ac:	f85d 7b04 	ldr.w	r7, [sp], #4
 80012b0:	4770      	bx	lr
 80012b2:	bf00      	nop
 80012b4:	40023800 	.word	0x40023800
 80012b8:	40020000 	.word	0x40020000
 80012bc:	40000c00 	.word	0x40000c00
 80012c0:	066ff300 	.word	0x066ff300

080012c4 <PWM_TIM5_CH1_Setduty>:

void PWM_TIM5_CH1_Setduty(float duty_per){
 80012c4:	b480      	push	{r7}
 80012c6:	b083      	sub	sp, #12
 80012c8:	af00      	add	r7, sp, #0
 80012ca:	ed87 0a01 	vstr	s0, [r7, #4]
	if(duty_per>100) duty_per = 100;
 80012ce:	edd7 7a01 	vldr	s15, [r7, #4]
 80012d2:	ed9f 7a16 	vldr	s14, [pc, #88]	@ 800132c <PWM_TIM5_CH1_Setduty+0x68>
 80012d6:	eef4 7ac7 	vcmpe.f32	s15, s14
 80012da:	eef1 fa10 	vmrs	APSR_nzcv, fpscr
 80012de:	dd01      	ble.n	80012e4 <PWM_TIM5_CH1_Setduty+0x20>
 80012e0:	4b13      	ldr	r3, [pc, #76]	@ (8001330 <PWM_TIM5_CH1_Setduty+0x6c>)
 80012e2:	607b      	str	r3, [r7, #4]
	if(duty_per<0) duty_per = 0;
 80012e4:	edd7 7a01 	vldr	s15, [r7, #4]
 80012e8:	eef5 7ac0 	vcmpe.f32	s15, #0.0
 80012ec:	eef1 fa10 	vmrs	APSR_nzcv, fpscr
 80012f0:	d502      	bpl.n	80012f8 <PWM_TIM5_CH1_Setduty+0x34>
 80012f2:	f04f 0300 	mov.w	r3, #0
 80012f6:	607b      	str	r3, [r7, #4]
	TIM5->CCR1 = (TIM5->ARR)*duty_per/100;
 80012f8:	4b0e      	ldr	r3, [pc, #56]	@ (8001334 <PWM_TIM5_CH1_Setduty+0x70>)
 80012fa:	6adb      	ldr	r3, [r3, #44]	@ 0x2c
 80012fc:	ee07 3a90 	vmov	s15, r3
 8001300:	eeb8 7a67 	vcvt.f32.u32	s14, s15
 8001304:	edd7 7a01 	vldr	s15, [r7, #4]
 8001308:	ee27 7a27 	vmul.f32	s14, s14, s15
 800130c:	eddf 6a07 	vldr	s13, [pc, #28]	@ 800132c <PWM_TIM5_CH1_Setduty+0x68>
 8001310:	eec7 7a26 	vdiv.f32	s15, s14, s13
 8001314:	4b07      	ldr	r3, [pc, #28]	@ (8001334 <PWM_TIM5_CH1_Setduty+0x70>)
 8001316:	eefc 7ae7 	vcvt.u32.f32	s15, s15
 800131a:	ee17 2a90 	vmov	r2, s15
 800131e:	635a      	str	r2, [r3, #52]	@ 0x34
}
 8001320:	bf00      	nop
 8001322:	370c      	adds	r7, #12
 8001324:	46bd      	mov	sp, r7
 8001326:	f85d 7b04 	ldr.w	r7, [sp], #4
 800132a:	4770      	bx	lr
 800132c:	42c80000 	.word	0x42c80000
 8001330:	42c80000 	.word	0x42c80000
 8001334:	40000c00 	.word	0x40000c00

08001338 <motor_input>:
char buf[32];
uint32_t debug1 = 0;
uint32_t debug2 = 0;
uint32_t cnt_cur = 0;
uint32_t cnt_prev = 0;
void motor_input(float input){
 8001338:	b580      	push	{r7, lr}
 800133a:	b082      	sub	sp, #8
 800133c:	af00      	add	r7, sp, #0
 800133e:	ed87 0a01 	vstr	s0, [r7, #4]
	D = input / 12;
 8001342:	ed97 7a01 	vldr	s14, [r7, #4]
 8001346:	eef2 6a08 	vmov.f32	s13, #40	@ 0x41400000  12.0
 800134a:	eec7 7a26 	vdiv.f32	s15, s14, s13
 800134e:	4b26      	ldr	r3, [pc, #152]	@ (80013e8 <motor_input+0xb0>)
 8001350:	edc3 7a00 	vstr	s15, [r3]
	if(D > 1) D = 1;
 8001354:	4b24      	ldr	r3, [pc, #144]	@ (80013e8 <motor_input+0xb0>)
 8001356:	edd3 7a00 	vldr	s15, [r3]
 800135a:	eeb7 7a00 	vmov.f32	s14, #112	@ 0x3f800000  1.0
 800135e:	eef4 7ac7 	vcmpe.f32	s15, s14
 8001362:	eef1 fa10 	vmrs	APSR_nzcv, fpscr
 8001366:	dd04      	ble.n	8001372 <motor_input+0x3a>
 8001368:	4b1f      	ldr	r3, [pc, #124]	@ (80013e8 <motor_input+0xb0>)
 800136a:	f04f 527e 	mov.w	r2, #1065353216	@ 0x3f800000
 800136e:	601a      	str	r2, [r3, #0]
 8001370:	e00c      	b.n	800138c <motor_input+0x54>
	else if(D < -1) D = -1;
 8001372:	4b1d      	ldr	r3, [pc, #116]	@ (80013e8 <motor_input+0xb0>)
 8001374:	edd3 7a00 	vldr	s15, [r3]
 8001378:	eebf 7a00 	vmov.f32	s14, #240	@ 0xbf800000 -1.0
 800137c:	eef4 7ac7 	vcmpe.f32	s15, s14
 8001380:	eef1 fa10 	vmrs	APSR_nzcv, fpscr
 8001384:	d502      	bpl.n	800138c <motor_input+0x54>
 8001386:	4b18      	ldr	r3, [pc, #96]	@ (80013e8 <motor_input+0xb0>)
 8001388:	4a18      	ldr	r2, [pc, #96]	@ (80013ec <motor_input+0xb4>)
 800138a:	601a      	str	r2, [r3, #0]
	d1 = (1+D)/2;
 800138c:	4b16      	ldr	r3, [pc, #88]	@ (80013e8 <motor_input+0xb0>)
 800138e:	edd3 7a00 	vldr	s15, [r3]
 8001392:	eeb7 7a00 	vmov.f32	s14, #112	@ 0x3f800000  1.0
 8001396:	ee37 7a87 	vadd.f32	s14, s15, s14
 800139a:	eef0 6a00 	vmov.f32	s13, #0	@ 0x40000000  2.0
 800139e:	eec7 7a26 	vdiv.f32	s15, s14, s13
 80013a2:	4b13      	ldr	r3, [pc, #76]	@ (80013f0 <motor_input+0xb8>)
 80013a4:	edc3 7a00 	vstr	s15, [r3]
	d2 = (1-D)/2;
 80013a8:	4b0f      	ldr	r3, [pc, #60]	@ (80013e8 <motor_input+0xb0>)
 80013aa:	edd3 7a00 	vldr	s15, [r3]
 80013ae:	eeb7 7a00 	vmov.f32	s14, #112	@ 0x3f800000  1.0
 80013b2:	ee37 7a67 	vsub.f32	s14, s14, s15
 80013b6:	eef0 6a00 	vmov.f32	s13, #0	@ 0x40000000  2.0
 80013ba:	eec7 7a26 	vdiv.f32	s15, s14, s13
 80013be:	4b0d      	ldr	r3, [pc, #52]	@ (80013f4 <motor_input+0xbc>)
 80013c0:	edc3 7a00 	vstr	s15, [r3]
	PWM_TIM1_CH1_Setduty(d1);
 80013c4:	4b0a      	ldr	r3, [pc, #40]	@ (80013f0 <motor_input+0xb8>)
 80013c6:	edd3 7a00 	vldr	s15, [r3]
 80013ca:	eeb0 0a67 	vmov.f32	s0, s15
 80013ce:	f7ff fb51 	bl	8000a74 <PWM_TIM1_CH1_Setduty>
	PWM_TIM1_CH2_Setduty(d2);
 80013d2:	4b08      	ldr	r3, [pc, #32]	@ (80013f4 <motor_input+0xbc>)
 80013d4:	edd3 7a00 	vldr	s15, [r3]
 80013d8:	eeb0 0a67 	vmov.f32	s0, s15
 80013dc:	f7ff fb9e 	bl	8000b1c <PWM_TIM1_CH2_Setduty>
}
 80013e0:	bf00      	nop
 80013e2:	3708      	adds	r7, #8
 80013e4:	46bd      	mov	sp, r7
 80013e6:	bd80      	pop	{r7, pc}
 80013e8:	20000394 	.word	0x20000394
 80013ec:	bf800000 	.word	0xbf800000
 80013f0:	2000038c 	.word	0x2000038c
 80013f4:	20000390 	.word	0x20000390

080013f8 <get_motor_status>:
void get_motor_status(){
 80013f8:	b580      	push	{r7, lr}
 80013fa:	b082      	sub	sp, #8
 80013fc:	af00      	add	r7, sp, #0
	cnt_cur = Get_Encoder_Count();
 80013fe:	f7ff fc27 	bl	8000c50 <Get_Encoder_Count>
 8001402:	4603      	mov	r3, r0
 8001404:	461a      	mov	r2, r3
 8001406:	4b38      	ldr	r3, [pc, #224]	@ (80014e8 <get_motor_status+0xf0>)
 8001408:	601a      	str	r2, [r3, #0]
	int16_t delta_cnt = (int16_t)(cnt_cur - cnt_prev);
 800140a:	4b37      	ldr	r3, [pc, #220]	@ (80014e8 <get_motor_status+0xf0>)
 800140c:	681b      	ldr	r3, [r3, #0]
 800140e:	b29a      	uxth	r2, r3
 8001410:	4b36      	ldr	r3, [pc, #216]	@ (80014ec <get_motor_status+0xf4>)
 8001412:	681b      	ldr	r3, [r3, #0]
 8001414:	b29b      	uxth	r3, r3
 8001416:	1ad3      	subs	r3, r2, r3
 8001418:	b29b      	uxth	r3, r3
 800141a:	80fb      	strh	r3, [r7, #6]
		    delta_cnt += 65536;
		}
		else if (delta_cnt > 32768) {
		    delta_cnt -= 65536;
		}
		cnt_prev = cnt_cur;
 800141c:	4b32      	ldr	r3, [pc, #200]	@ (80014e8 <get_motor_status+0xf0>)
 800141e:	681b      	ldr	r3, [r3, #0]
 8001420:	4a32      	ldr	r2, [pc, #200]	@ (80014ec <get_motor_status+0xf4>)
 8001422:	6013      	str	r3, [r2, #0]
		speed_rad = ((float)delta_cnt/(float)ENCODER_RESOLUTION)* 2 * pi / Ts;
 8001424:	f9b7 3006 	ldrsh.w	r3, [r7, #6]
 8001428:	ee07 3a90 	vmov	s15, r3
 800142c:	eef8 6ae7 	vcvt.f32.s32	s13, s15
 8001430:	eddf 7a2f 	vldr	s15, [pc, #188]	@ 80014f0 <get_motor_status+0xf8>
 8001434:	eeb8 7a67 	vcvt.f32.u32	s14, s15
 8001438:	eec6 7a87 	vdiv.f32	s15, s13, s14
 800143c:	ee37 7aa7 	vadd.f32	s14, s15, s15
 8001440:	4b2c      	ldr	r3, [pc, #176]	@ (80014f4 <get_motor_status+0xfc>)
 8001442:	edd3 7a00 	vldr	s15, [r3]
 8001446:	ee67 6a27 	vmul.f32	s13, s14, s15
 800144a:	4b2b      	ldr	r3, [pc, #172]	@ (80014f8 <get_motor_status+0x100>)
 800144c:	ed93 7a00 	vldr	s14, [r3]
 8001450:	eec6 7a87 	vdiv.f32	s15, s13, s14
 8001454:	4b29      	ldr	r3, [pc, #164]	@ (80014fc <get_motor_status+0x104>)
 8001456:	edc3 7a00 	vstr	s15, [r3]
		speed_rpm = speed_rad *30 / pi;
 800145a:	4b28      	ldr	r3, [pc, #160]	@ (80014fc <get_motor_status+0x104>)
 800145c:	edd3 7a00 	vldr	s15, [r3]
 8001460:	eeb3 7a0e 	vmov.f32	s14, #62	@ 0x41f00000  30.0
 8001464:	ee67 6a87 	vmul.f32	s13, s15, s14
 8001468:	4b22      	ldr	r3, [pc, #136]	@ (80014f4 <get_motor_status+0xfc>)
 800146a:	ed93 7a00 	vldr	s14, [r3]
 800146e:	eec6 7a87 	vdiv.f32	s15, s13, s14
 8001472:	4b23      	ldr	r3, [pc, #140]	@ (8001500 <get_motor_status+0x108>)
 8001474:	edc3 7a00 	vstr	s15, [r3]
		theta_rad += ((float)delta_cnt/(float)ENCODER_RESOLUTION) * 2 * pi;
 8001478:	f9b7 3006 	ldrsh.w	r3, [r7, #6]
 800147c:	ee07 3a90 	vmov	s15, r3
 8001480:	eef8 6ae7 	vcvt.f32.s32	s13, s15
 8001484:	eddf 7a1a 	vldr	s15, [pc, #104]	@ 80014f0 <get_motor_status+0xf8>
 8001488:	eeb8 7a67 	vcvt.f32.u32	s14, s15
 800148c:	eec6 7a87 	vdiv.f32	s15, s13, s14
 8001490:	ee37 7aa7 	vadd.f32	s14, s15, s15
 8001494:	4b17      	ldr	r3, [pc, #92]	@ (80014f4 <get_motor_status+0xfc>)
 8001496:	edd3 7a00 	vldr	s15, [r3]
 800149a:	ee27 7a27 	vmul.f32	s14, s14, s15
 800149e:	4b19      	ldr	r3, [pc, #100]	@ (8001504 <get_motor_status+0x10c>)
 80014a0:	edd3 7a00 	vldr	s15, [r3]
 80014a4:	ee77 7a27 	vadd.f32	s15, s14, s15
 80014a8:	4b16      	ldr	r3, [pc, #88]	@ (8001504 <get_motor_status+0x10c>)
 80014aa:	edc3 7a00 	vstr	s15, [r3]
		theta_degree += ((float)delta_cnt/(float)ENCODER_RESOLUTION) * 360;
 80014ae:	f9b7 3006 	ldrsh.w	r3, [r7, #6]
 80014b2:	ee07 3a90 	vmov	s15, r3
 80014b6:	eef8 6ae7 	vcvt.f32.s32	s13, s15
 80014ba:	eddf 7a0d 	vldr	s15, [pc, #52]	@ 80014f0 <get_motor_status+0xf8>
 80014be:	eeb8 7a67 	vcvt.f32.u32	s14, s15
 80014c2:	eec6 7a87 	vdiv.f32	s15, s13, s14
 80014c6:	ed9f 7a10 	vldr	s14, [pc, #64]	@ 8001508 <get_motor_status+0x110>
 80014ca:	ee27 7a87 	vmul.f32	s14, s15, s14
 80014ce:	4b0f      	ldr	r3, [pc, #60]	@ (800150c <get_motor_status+0x114>)
 80014d0:	edd3 7a00 	vldr	s15, [r3]
 80014d4:	ee77 7a27 	vadd.f32	s15, s14, s15
 80014d8:	4b0c      	ldr	r3, [pc, #48]	@ (800150c <get_motor_status+0x114>)
 80014da:	edc3 7a00 	vstr	s15, [r3]
}
 80014de:	bf00      	nop
 80014e0:	3708      	adds	r7, #8
 80014e2:	46bd      	mov	sp, r7
 80014e4:	bd80      	pop	{r7, pc}
 80014e6:	bf00      	nop
 80014e8:	200003c8 	.word	0x200003c8
 80014ec:	200003cc 	.word	0x200003cc
 80014f0:	00000528 	.word	0x00000528
 80014f4:	20000008 	.word	0x20000008
 80014f8:	2000000c 	.word	0x2000000c
 80014fc:	20000398 	.word	0x20000398
 8001500:	2000039c 	.word	0x2000039c
 8001504:	200003a0 	.word	0x200003a0
 8001508:	43b40000 	.word	0x43b40000
 800150c:	200003a4 	.word	0x200003a4

08001510 <TIM2_IRQHandler>:
void TIM2_IRQHandler(void) {
 8001510:	b580      	push	{r7, lr}
 8001512:	af00      	add	r7, sp, #0
    if (TIM2->SR & (1<<0)) {
 8001514:	f04f 4380 	mov.w	r3, #1073741824	@ 0x40000000
 8001518:	691b      	ldr	r3, [r3, #16]
 800151a:	f003 0301 	and.w	r3, r3, #1
 800151e:	2b00      	cmp	r3, #0
 8001520:	d033      	beq.n	800158a <TIM2_IRQHandler+0x7a>
        TIM2->SR &= ~(1<<0);
 8001522:	f04f 4380 	mov.w	r3, #1073741824	@ 0x40000000
 8001526:	691b      	ldr	r3, [r3, #16]
 8001528:	f04f 4280 	mov.w	r2, #1073741824	@ 0x40000000
 800152c:	f023 0301 	bic.w	r3, r3, #1
 8001530:	6113      	str	r3, [r2, #16]
        get_motor_status();
 8001532:	f7ff ff61 	bl	80013f8 <get_motor_status>
        rtU.theta = theta_rad;   // 위치 피드백 연결
 8001536:	4b16      	ldr	r3, [pc, #88]	@ (8001590 <TIM2_IRQHandler+0x80>)
 8001538:	edd3 7a00 	vldr	s15, [r3]
 800153c:	eeb7 7ae7 	vcvt.f64.f32	d7, s15
 8001540:	4b14      	ldr	r3, [pc, #80]	@ (8001594 <TIM2_IRQHandler+0x84>)
 8001542:	ed83 7b00 	vstr	d7, [r3]
        rtU.speed_rad = speed_rad;    // 속도 피드백 연결
 8001546:	4b14      	ldr	r3, [pc, #80]	@ (8001598 <TIM2_IRQHandler+0x88>)
 8001548:	edd3 7a00 	vldr	s15, [r3]
 800154c:	eeb7 7ae7 	vcvt.f64.f32	d7, s15
 8001550:	4b10      	ldr	r3, [pc, #64]	@ (8001594 <TIM2_IRQHandler+0x84>)
 8001552:	ed83 7b02 	vstr	d7, [r3, #8]
        Subsystem_step();
 8001556:	f7ff f81f 	bl	8000598 <Subsystem_step>
        motor_input((float)rtY.input);
 800155a:	4b10      	ldr	r3, [pc, #64]	@ (800159c <TIM2_IRQHandler+0x8c>)
 800155c:	ed93 7b00 	vldr	d7, [r3]
 8001560:	eef7 7bc7 	vcvt.f32.f64	s15, d7
 8001564:	eeb0 0a67 	vmov.f32	s0, s15
 8001568:	f7ff fee6 	bl	8001338 <motor_input>
       	gCount += Ts;
 800156c:	4b0c      	ldr	r3, [pc, #48]	@ (80015a0 <TIM2_IRQHandler+0x90>)
 800156e:	ed93 7a00 	vldr	s14, [r3]
 8001572:	4b0c      	ldr	r3, [pc, #48]	@ (80015a4 <TIM2_IRQHandler+0x94>)
 8001574:	edd3 7a00 	vldr	s15, [r3]
 8001578:	ee77 7a27 	vadd.f32	s15, s14, s15
 800157c:	4b08      	ldr	r3, [pc, #32]	@ (80015a0 <TIM2_IRQHandler+0x90>)
 800157e:	edc3 7a00 	vstr	s15, [r3]
        time = gCount;
 8001582:	4b07      	ldr	r3, [pc, #28]	@ (80015a0 <TIM2_IRQHandler+0x90>)
 8001584:	681b      	ldr	r3, [r3, #0]
 8001586:	4a08      	ldr	r2, [pc, #32]	@ (80015a8 <TIM2_IRQHandler+0x98>)
 8001588:	6013      	str	r3, [r2, #0]
    }
}
 800158a:	bf00      	nop
 800158c:	bd80      	pop	{r7, pc}
 800158e:	bf00      	nop
 8001590:	200003a0 	.word	0x200003a0
 8001594:	20000240 	.word	0x20000240
 8001598:	20000398 	.word	0x20000398
 800159c:	20000250 	.word	0x20000250
 80015a0:	20000384 	.word	0x20000384
 80015a4:	2000000c 	.word	0x2000000c
 80015a8:	20000388 	.word	0x20000388

080015ac <main>:
int main(void)
{
 80015ac:	b580      	push	{r7, lr}
 80015ae:	b086      	sub	sp, #24
 80015b0:	af04      	add	r7, sp, #16
	msTicks = 0;
 80015b2:	4b3a      	ldr	r3, [pc, #232]	@ (800169c <main+0xf0>)
 80015b4:	2200      	movs	r2, #0
 80015b6:	601a      	str	r2, [r3, #0]
	__asm__("CPSIE i");
 80015b8:	b662      	cpsie	i
	SystemClock_Config_Max();
 80015ba:	f000 f887 	bl	80016cc <SystemClock_Config_Max>
	SysTick_Init(216000000);
 80015be:	4838      	ldr	r0, [pc, #224]	@ (80016a0 <main+0xf4>)
 80015c0:	f000 f90a 	bl	80017d8 <SysTick_Init>

	SPI_GPIO_Init();
 80015c4:	f000 fa1c 	bl	8001a00 <SPI_GPIO_Init>
	DMA_Init();
 80015c8:	f7ff fac6 	bl	8000b58 <DMA_Init>
	uint8_t test_data[4] = {0xAA, 0xBB, 0xCC, 0xDD};
 80015cc:	4b35      	ldr	r3, [pc, #212]	@ (80016a4 <main+0xf8>)
 80015ce:	607b      	str	r3, [r7, #4]
	DMA2_config_SPI1_TX((uint32_t)test_data, 4);
 80015d0:	1d3b      	adds	r3, r7, #4
 80015d2:	2104      	movs	r1, #4
 80015d4:	4618      	mov	r0, r3
 80015d6:	f000 f941 	bl	800185c <DMA2_config_SPI1_TX>

	ST7735_Init();              // 1. 초기화 (이전 단계에서 만든 함수)
 80015da:	f7ff fb45 	bl	8000c68 <ST7735_Init>
	ST7735_FillScreen(0x0000);  // 2. 검정색으로 배경 채우기
 80015de:	2000      	movs	r0, #0
 80015e0:	f7ff fbb2 	bl	8000d48 <ST7735_FillScreen>
	ST7735_WriteString(10, 50, "Hello World", Font_7x10, 0xFFFF, 0x0000);
 80015e4:	4b30      	ldr	r3, [pc, #192]	@ (80016a8 <main+0xfc>)
 80015e6:	2200      	movs	r2, #0
 80015e8:	9202      	str	r2, [sp, #8]
 80015ea:	f64f 72ff 	movw	r2, #65535	@ 0xffff
 80015ee:	9201      	str	r2, [sp, #4]
 80015f0:	685a      	ldr	r2, [r3, #4]
 80015f2:	9200      	str	r2, [sp, #0]
 80015f4:	681b      	ldr	r3, [r3, #0]
 80015f6:	4a2d      	ldr	r2, [pc, #180]	@ (80016ac <main+0x100>)
 80015f8:	2132      	movs	r1, #50	@ 0x32
 80015fa:	200a      	movs	r0, #10
 80015fc:	f7ff fc1a 	bl	8000e34 <ST7735_WriteString>
	PWM_TIM5_CH1_Init(1000);
 8001600:	f44f 707a 	mov.w	r0, #1000	@ 0x3e8
 8001604:	f7ff fdf0 	bl	80011e8 <PWM_TIM5_CH1_Init>
	PWM_TIM5_CH1_Setduty(80); //80% pwm duty
 8001608:	ed9f 0a29 	vldr	s0, [pc, #164]	@ 80016b0 <main+0x104>
 800160c:	f7ff fe5a 	bl	80012c4 <PWM_TIM5_CH1_Setduty>
	PWM_TIM1_Base_Init(1000);
 8001610:	f44f 707a 	mov.w	r0, #1000	@ 0x3e8
 8001614:	f7ff f9c0 	bl	8000998 <PWM_TIM1_Base_Init>
	PWM_TIM1_CH1_Init();
 8001618:	f7ff f9f6 	bl	8000a08 <PWM_TIM1_CH1_Init>
	PWM_TIM1_CH2_Init();
 800161c:	f7ff fa48 	bl	8000ab0 <PWM_TIM1_CH2_Init>
	Encoder_TIM4_Init();
 8001620:	f7ff fab4 	bl	8000b8c <Encoder_TIM4_Init>
	Usart3_TX_Init(115200);
 8001624:	f44f 30e1 	mov.w	r0, #115200	@ 0x1c200
 8001628:	f000 fb62 	bl	8001cf0 <Usart3_TX_Init>
	DMA_USART3_Init();
 800162c:	f000 fba6 	bl	8001d7c <DMA_USART3_Init>
	TIM2_Init();
 8001630:	f000 fb26 	bl	8001c80 <TIM2_Init>
  \details Enables IRQ interrupts by clearing the I-bit in the CPSR.
           Can only be executed in Privileged modes.
 */
__STATIC_FORCEINLINE void __enable_irq(void)
{
  __ASM volatile ("cpsie i" : : : "memory");
 8001634:	b662      	cpsie	i
}
 8001636:	bf00      	nop


	__enable_irq();
	Subsystem_initialize();
 8001638:	f7ff f972 	bl	8000920 <Subsystem_initialize>
  while (1)
  {
	  printf("%.2f, %.2f\n", time, speed_rad);
 800163c:	4b1d      	ldr	r3, [pc, #116]	@ (80016b4 <main+0x108>)
 800163e:	edd3 7a00 	vldr	s15, [r3]
 8001642:	eeb7 6ae7 	vcvt.f64.f32	d6, s15
 8001646:	4b1c      	ldr	r3, [pc, #112]	@ (80016b8 <main+0x10c>)
 8001648:	edd3 7a00 	vldr	s15, [r3]
 800164c:	eeb7 7ae7 	vcvt.f64.f32	d7, s15
 8001650:	ed8d 7b00 	vstr	d7, [sp]
 8001654:	ec53 2b16 	vmov	r2, r3, d6
 8001658:	4818      	ldr	r0, [pc, #96]	@ (80016bc <main+0x110>)
 800165a:	f001 fb05 	bl	8002c68 <iprintf>
	  sprintf(buf, "RPM: %5d", (int)speed_rpm);
 800165e:	4b18      	ldr	r3, [pc, #96]	@ (80016c0 <main+0x114>)
 8001660:	edd3 7a00 	vldr	s15, [r3]
 8001664:	eefd 7ae7 	vcvt.s32.f32	s15, s15
 8001668:	ee17 2a90 	vmov	r2, s15
 800166c:	4915      	ldr	r1, [pc, #84]	@ (80016c4 <main+0x118>)
 800166e:	4816      	ldr	r0, [pc, #88]	@ (80016c8 <main+0x11c>)
 8001670:	f001 fb0c 	bl	8002c8c <siprintf>
	  ST7735_WriteString(10, 50, buf, Font_7x10, 0xFFFF, 0x0000);
 8001674:	4b0c      	ldr	r3, [pc, #48]	@ (80016a8 <main+0xfc>)
 8001676:	2200      	movs	r2, #0
 8001678:	9202      	str	r2, [sp, #8]
 800167a:	f64f 72ff 	movw	r2, #65535	@ 0xffff
 800167e:	9201      	str	r2, [sp, #4]
 8001680:	685a      	ldr	r2, [r3, #4]
 8001682:	9200      	str	r2, [sp, #0]
 8001684:	681b      	ldr	r3, [r3, #0]
 8001686:	4a10      	ldr	r2, [pc, #64]	@ (80016c8 <main+0x11c>)
 8001688:	2132      	movs	r1, #50	@ 0x32
 800168a:	200a      	movs	r0, #10
 800168c:	f7ff fbd2 	bl	8000e34 <ST7735_WriteString>
	  delay_ms(10);
 8001690:	200a      	movs	r0, #10
 8001692:	f000 f8cb 	bl	800182c <delay_ms>
	  printf("%.2f, %.2f\n", time, speed_rad);
 8001696:	bf00      	nop
 8001698:	e7d0      	b.n	800163c <main+0x90>
 800169a:	bf00      	nop
 800169c:	20000380 	.word	0x20000380
 80016a0:	0cdfe600 	.word	0x0cdfe600
 80016a4:	ddccbbaa 	.word	0xddccbbaa
 80016a8:	20000000 	.word	0x20000000
 80016ac:	0800635c 	.word	0x0800635c
 80016b0:	42a00000 	.word	0x42a00000
 80016b4:	20000388 	.word	0x20000388
 80016b8:	20000398 	.word	0x20000398
 80016bc:	08006368 	.word	0x08006368
 80016c0:	2000039c 	.word	0x2000039c
 80016c4:	08006374 	.word	0x08006374
 80016c8:	200003a8 	.word	0x200003a8

080016cc <SystemClock_Config_Max>:
#include "rcc.h"
#include "system.h"
//uint32_t SystemCoreClock = 216000000;
extern volatile uint32_t msTicks;
void SystemClock_Config_Max(void) {
 80016cc:	b480      	push	{r7}
 80016ce:	b083      	sub	sp, #12
 80016d0:	af00      	add	r7, sp, #0

	uint32_t SystemCoreClock = 216000000;
 80016d2:	4b3c      	ldr	r3, [pc, #240]	@ (80017c4 <SystemClock_Config_Max+0xf8>)
 80016d4:	603b      	str	r3, [r7, #0]

    RCC->CR |= (1 << 16); // HSEON
 80016d6:	4b3c      	ldr	r3, [pc, #240]	@ (80017c8 <SystemClock_Config_Max+0xfc>)
 80016d8:	681b      	ldr	r3, [r3, #0]
 80016da:	4a3b      	ldr	r2, [pc, #236]	@ (80017c8 <SystemClock_Config_Max+0xfc>)
 80016dc:	f443 3380 	orr.w	r3, r3, #65536	@ 0x10000
 80016e0:	6013      	str	r3, [r2, #0]
    while (!(RCC->CR & (1 << 17))); // HSERDY 대기
 80016e2:	bf00      	nop
 80016e4:	4b38      	ldr	r3, [pc, #224]	@ (80017c8 <SystemClock_Config_Max+0xfc>)
 80016e6:	681b      	ldr	r3, [r3, #0]
 80016e8:	f403 3300 	and.w	r3, r3, #131072	@ 0x20000
 80016ec:	2b00      	cmp	r3, #0
 80016ee:	d0f9      	beq.n	80016e4 <SystemClock_Config_Max+0x18>


    RCC->APB1ENR |= (1 << 28); // PWREN
 80016f0:	4b35      	ldr	r3, [pc, #212]	@ (80017c8 <SystemClock_Config_Max+0xfc>)
 80016f2:	6c1b      	ldr	r3, [r3, #64]	@ 0x40
 80016f4:	4a34      	ldr	r2, [pc, #208]	@ (80017c8 <SystemClock_Config_Max+0xfc>)
 80016f6:	f043 5380 	orr.w	r3, r3, #268435456	@ 0x10000000
 80016fa:	6413      	str	r3, [r2, #64]	@ 0x40
    (void)RCC->APB1ENR; // 클럭 안정화를 위한 더미 읽기
 80016fc:	4b32      	ldr	r3, [pc, #200]	@ (80017c8 <SystemClock_Config_Max+0xfc>)
 80016fe:	6c1b      	ldr	r3, [r3, #64]	@ 0x40

    //VOS Scale 1 설정 최고성능
    PWR->CR1 |= (3 << 14);
 8001700:	4b32      	ldr	r3, [pc, #200]	@ (80017cc <SystemClock_Config_Max+0x100>)
 8001702:	681b      	ldr	r3, [r3, #0]
 8001704:	4a31      	ldr	r2, [pc, #196]	@ (80017cc <SystemClock_Config_Max+0x100>)
 8001706:	f443 4340 	orr.w	r3, r3, #49152	@ 0xc000
 800170a:	6013      	str	r3, [r2, #0]

    // VOSRDY 대기
    uint32_t timeout = 0xFFFF;
 800170c:	f64f 73ff 	movw	r3, #65535	@ 0xffff
 8001710:	607b      	str	r3, [r7, #4]
    while (!(PWR->CR1 & (1 << 14)) && timeout--);
 8001712:	bf00      	nop
 8001714:	4b2d      	ldr	r3, [pc, #180]	@ (80017cc <SystemClock_Config_Max+0x100>)
 8001716:	681b      	ldr	r3, [r3, #0]
 8001718:	f403 4380 	and.w	r3, r3, #16384	@ 0x4000
 800171c:	2b00      	cmp	r3, #0
 800171e:	d104      	bne.n	800172a <SystemClock_Config_Max+0x5e>
 8001720:	687b      	ldr	r3, [r7, #4]
 8001722:	1e5a      	subs	r2, r3, #1
 8001724:	607a      	str	r2, [r7, #4]
 8001726:	2b00      	cmp	r3, #0
 8001728:	d1f4      	bne.n	8001714 <SystemClock_Config_Max+0x48>

    //
    PWR->CR1 |= (1 << 16); // ODEN
 800172a:	4b28      	ldr	r3, [pc, #160]	@ (80017cc <SystemClock_Config_Max+0x100>)
 800172c:	681b      	ldr	r3, [r3, #0]
 800172e:	4a27      	ldr	r2, [pc, #156]	@ (80017cc <SystemClock_Config_Max+0x100>)
 8001730:	f443 3380 	orr.w	r3, r3, #65536	@ 0x10000
 8001734:	6013      	str	r3, [r2, #0]
    while (!(PWR->CSR1 & (1 << 16))); // ODRDY 대기
 8001736:	bf00      	nop
 8001738:	4b24      	ldr	r3, [pc, #144]	@ (80017cc <SystemClock_Config_Max+0x100>)
 800173a:	685b      	ldr	r3, [r3, #4]
 800173c:	f403 3380 	and.w	r3, r3, #65536	@ 0x10000
 8001740:	2b00      	cmp	r3, #0
 8001742:	d0f9      	beq.n	8001738 <SystemClock_Config_Max+0x6c>

    PWR->CR1 |= (1 << 17); // ODSWEN
 8001744:	4b21      	ldr	r3, [pc, #132]	@ (80017cc <SystemClock_Config_Max+0x100>)
 8001746:	681b      	ldr	r3, [r3, #0]
 8001748:	4a20      	ldr	r2, [pc, #128]	@ (80017cc <SystemClock_Config_Max+0x100>)
 800174a:	f443 3300 	orr.w	r3, r3, #131072	@ 0x20000
 800174e:	6013      	str	r3, [r2, #0]
    while (!(PWR->CSR1 & (1 << 17))); // ODSWRDY 대기
 8001750:	bf00      	nop
 8001752:	4b1e      	ldr	r3, [pc, #120]	@ (80017cc <SystemClock_Config_Max+0x100>)
 8001754:	685b      	ldr	r3, [r3, #4]
 8001756:	f403 3300 	and.w	r3, r3, #131072	@ 0x20000
 800175a:	2b00      	cmp	r3, #0
 800175c:	d0f9      	beq.n	8001752 <SystemClock_Config_Max+0x86>

    FLASH->ACR |= (1 << 11);
 800175e:	4b1c      	ldr	r3, [pc, #112]	@ (80017d0 <SystemClock_Config_Max+0x104>)
 8001760:	681b      	ldr	r3, [r3, #0]
 8001762:	4a1b      	ldr	r2, [pc, #108]	@ (80017d0 <SystemClock_Config_Max+0x104>)
 8001764:	f443 6300 	orr.w	r3, r3, #2048	@ 0x800
 8001768:	6013      	str	r3, [r2, #0]
    FLASH->ACR = (1 << 9)| (1 << 8) | (7 << 0);
 800176a:	4b19      	ldr	r3, [pc, #100]	@ (80017d0 <SystemClock_Config_Max+0x104>)
 800176c:	f240 3207 	movw	r2, #775	@ 0x307
 8001770:	601a      	str	r2, [r3, #0]

    RCC->PLLCFGR = (4 << 0) | (216 << 6) | (0 << 16) | (1 << 22);
 8001772:	4b15      	ldr	r3, [pc, #84]	@ (80017c8 <SystemClock_Config_Max+0xfc>)
 8001774:	4a17      	ldr	r2, [pc, #92]	@ (80017d4 <SystemClock_Config_Max+0x108>)
 8001776:	605a      	str	r2, [r3, #4]


    RCC->CR |= (1 << 24); // PLLON
 8001778:	4b13      	ldr	r3, [pc, #76]	@ (80017c8 <SystemClock_Config_Max+0xfc>)
 800177a:	681b      	ldr	r3, [r3, #0]
 800177c:	4a12      	ldr	r2, [pc, #72]	@ (80017c8 <SystemClock_Config_Max+0xfc>)
 800177e:	f043 7380 	orr.w	r3, r3, #16777216	@ 0x1000000
 8001782:	6013      	str	r3, [r2, #0]
    while (!(RCC->CR & (1 << 25))); // PLLRDY 대기
 8001784:	bf00      	nop
 8001786:	4b10      	ldr	r3, [pc, #64]	@ (80017c8 <SystemClock_Config_Max+0xfc>)
 8001788:	681b      	ldr	r3, [r3, #0]
 800178a:	f003 7300 	and.w	r3, r3, #33554432	@ 0x2000000
 800178e:	2b00      	cmp	r3, #0
 8001790:	d0f9      	beq.n	8001786 <SystemClock_Config_Max+0xba>

    RCC->CFGR = (0 << 4) | (5 << 10) | (4 << 13);
 8001792:	4b0d      	ldr	r3, [pc, #52]	@ (80017c8 <SystemClock_Config_Max+0xfc>)
 8001794:	f44f 4214 	mov.w	r2, #37888	@ 0x9400
 8001798:	609a      	str	r2, [r3, #8]


    RCC->CFGR |= (2 << 0); // SW = PLL
 800179a:	4b0b      	ldr	r3, [pc, #44]	@ (80017c8 <SystemClock_Config_Max+0xfc>)
 800179c:	689b      	ldr	r3, [r3, #8]
 800179e:	4a0a      	ldr	r2, [pc, #40]	@ (80017c8 <SystemClock_Config_Max+0xfc>)
 80017a0:	f043 0302 	orr.w	r3, r3, #2
 80017a4:	6093      	str	r3, [r2, #8]
    while ((RCC->CFGR & (0x0C)) != (0x08)); // SWS가 PLL(10)인지 확인
 80017a6:	bf00      	nop
 80017a8:	4b07      	ldr	r3, [pc, #28]	@ (80017c8 <SystemClock_Config_Max+0xfc>)
 80017aa:	689b      	ldr	r3, [r3, #8]
 80017ac:	f003 030c 	and.w	r3, r3, #12
 80017b0:	2b08      	cmp	r3, #8
 80017b2:	d1f9      	bne.n	80017a8 <SystemClock_Config_Max+0xdc>
}
 80017b4:	bf00      	nop
 80017b6:	bf00      	nop
 80017b8:	370c      	adds	r7, #12
 80017ba:	46bd      	mov	sp, r7
 80017bc:	f85d 7b04 	ldr.w	r7, [sp], #4
 80017c0:	4770      	bx	lr
 80017c2:	bf00      	nop
 80017c4:	0cdfe600 	.word	0x0cdfe600
 80017c8:	40023800 	.word	0x40023800
 80017cc:	40007000 	.word	0x40007000
 80017d0:	40023c00 	.word	0x40023c00
 80017d4:	00403604 	.word	0x00403604

080017d8 <SysTick_Init>:

void SysTick_Init(uint32_t core) {
 80017d8:	b480      	push	{r7}
 80017da:	b083      	sub	sp, #12
 80017dc:	af00      	add	r7, sp, #0
 80017de:	6078      	str	r0, [r7, #4]
    SysTick->LOAD = (core / 1000) - 1;
 80017e0:	687b      	ldr	r3, [r7, #4]
 80017e2:	4a09      	ldr	r2, [pc, #36]	@ (8001808 <SysTick_Init+0x30>)
 80017e4:	fba2 2303 	umull	r2, r3, r2, r3
 80017e8:	099b      	lsrs	r3, r3, #6
 80017ea:	4a08      	ldr	r2, [pc, #32]	@ (800180c <SysTick_Init+0x34>)
 80017ec:	3b01      	subs	r3, #1
 80017ee:	6053      	str	r3, [r2, #4]
    SysTick->VAL = 0;
 80017f0:	4b06      	ldr	r3, [pc, #24]	@ (800180c <SysTick_Init+0x34>)
 80017f2:	2200      	movs	r2, #0
 80017f4:	609a      	str	r2, [r3, #8]
    SysTick->CTRL = (1 << 2) | (1 << 1) | (1 << 0);
 80017f6:	4b05      	ldr	r3, [pc, #20]	@ (800180c <SysTick_Init+0x34>)
 80017f8:	2207      	movs	r2, #7
 80017fa:	601a      	str	r2, [r3, #0]
}
 80017fc:	bf00      	nop
 80017fe:	370c      	adds	r7, #12
 8001800:	46bd      	mov	sp, r7
 8001802:	f85d 7b04 	ldr.w	r7, [sp], #4
 8001806:	4770      	bx	lr
 8001808:	10624dd3 	.word	0x10624dd3
 800180c:	e000e010 	.word	0xe000e010

08001810 <SysTick_Handler>:
void SysTick_Handler(void) {
 8001810:	b480      	push	{r7}
 8001812:	af00      	add	r7, sp, #0
    msTicks++;
 8001814:	4b04      	ldr	r3, [pc, #16]	@ (8001828 <SysTick_Handler+0x18>)
 8001816:	681b      	ldr	r3, [r3, #0]
 8001818:	3301      	adds	r3, #1
 800181a:	4a03      	ldr	r2, [pc, #12]	@ (8001828 <SysTick_Handler+0x18>)
 800181c:	6013      	str	r3, [r2, #0]
}
 800181e:	bf00      	nop
 8001820:	46bd      	mov	sp, r7
 8001822:	f85d 7b04 	ldr.w	r7, [sp], #4
 8001826:	4770      	bx	lr
 8001828:	20000380 	.word	0x20000380

0800182c <delay_ms>:

// 3. 정확한 delay 함수
void delay_ms(uint32_t ms) {
 800182c:	b480      	push	{r7}
 800182e:	b085      	sub	sp, #20
 8001830:	af00      	add	r7, sp, #0
 8001832:	6078      	str	r0, [r7, #4]
    uint32_t start = msTicks;
 8001834:	4b08      	ldr	r3, [pc, #32]	@ (8001858 <delay_ms+0x2c>)
 8001836:	681b      	ldr	r3, [r3, #0]
 8001838:	60fb      	str	r3, [r7, #12]
    while ((msTicks - start) < ms);
 800183a:	bf00      	nop
 800183c:	4b06      	ldr	r3, [pc, #24]	@ (8001858 <delay_ms+0x2c>)
 800183e:	681a      	ldr	r2, [r3, #0]
 8001840:	68fb      	ldr	r3, [r7, #12]
 8001842:	1ad3      	subs	r3, r2, r3
 8001844:	687a      	ldr	r2, [r7, #4]
 8001846:	429a      	cmp	r2, r3
 8001848:	d8f8      	bhi.n	800183c <delay_ms+0x10>
}
 800184a:	bf00      	nop
 800184c:	bf00      	nop
 800184e:	3714      	adds	r7, #20
 8001850:	46bd      	mov	sp, r7
 8001852:	f85d 7b04 	ldr.w	r7, [sp], #4
 8001856:	4770      	bx	lr
 8001858:	20000380 	.word	0x20000380

0800185c <DMA2_config_SPI1_TX>:
#include "spi.h"

void DMA2_config_SPI1_TX(uint32_t buffer_addr, uint32_t size){
 800185c:	b480      	push	{r7}
 800185e:	b083      	sub	sp, #12
 8001860:	af00      	add	r7, sp, #0
 8001862:	6078      	str	r0, [r7, #4]
 8001864:	6039      	str	r1, [r7, #0]
    /* 1. 클럭 활성화 */
    RCC->APB2ENR |= (1 << 12); // SPI1 Clock
 8001866:	4b30      	ldr	r3, [pc, #192]	@ (8001928 <DMA2_config_SPI1_TX+0xcc>)
 8001868:	6c5b      	ldr	r3, [r3, #68]	@ 0x44
 800186a:	4a2f      	ldr	r2, [pc, #188]	@ (8001928 <DMA2_config_SPI1_TX+0xcc>)
 800186c:	f443 5380 	orr.w	r3, r3, #4096	@ 0x1000
 8001870:	6453      	str	r3, [r2, #68]	@ 0x44
    RCC->AHB1ENR |= (1 << 22); // DMA2 Clock
 8001872:	4b2d      	ldr	r3, [pc, #180]	@ (8001928 <DMA2_config_SPI1_TX+0xcc>)
 8001874:	6b1b      	ldr	r3, [r3, #48]	@ 0x30
 8001876:	4a2c      	ldr	r2, [pc, #176]	@ (8001928 <DMA2_config_SPI1_TX+0xcc>)
 8001878:	f443 0380 	orr.w	r3, r3, #4194304	@ 0x400000
 800187c:	6313      	str	r3, [r2, #48]	@ 0x30

    DMA2->S[3].CR &= ~(1 << 0);           // EN = 0
 800187e:	4b2b      	ldr	r3, [pc, #172]	@ (800192c <DMA2_config_SPI1_TX+0xd0>)
 8001880:	6d9b      	ldr	r3, [r3, #88]	@ 0x58
 8001882:	4a2a      	ldr	r2, [pc, #168]	@ (800192c <DMA2_config_SPI1_TX+0xd0>)
 8001884:	f023 0301 	bic.w	r3, r3, #1
 8001888:	6593      	str	r3, [r2, #88]	@ 0x58
    while (DMA2->S[3].CR & (1 << 0));      // 하드웨어가 꺼질 때까지 대기
 800188a:	bf00      	nop
 800188c:	4b27      	ldr	r3, [pc, #156]	@ (800192c <DMA2_config_SPI1_TX+0xd0>)
 800188e:	6d9b      	ldr	r3, [r3, #88]	@ 0x58
 8001890:	f003 0301 	and.w	r3, r3, #1
 8001894:	2b00      	cmp	r3, #0
 8001896:	d1f9      	bne.n	800188c <DMA2_config_SPI1_TX+0x30>

    DMA2->S[3].PAR  = (uint32_t)&(SPI1->DR);
 8001898:	4b24      	ldr	r3, [pc, #144]	@ (800192c <DMA2_config_SPI1_TX+0xd0>)
 800189a:	4a25      	ldr	r2, [pc, #148]	@ (8001930 <DMA2_config_SPI1_TX+0xd4>)
 800189c:	661a      	str	r2, [r3, #96]	@ 0x60
    DMA2->S[3].M0AR = buffer_addr;
 800189e:	4a23      	ldr	r2, [pc, #140]	@ (800192c <DMA2_config_SPI1_TX+0xd0>)
 80018a0:	687b      	ldr	r3, [r7, #4]
 80018a2:	6653      	str	r3, [r2, #100]	@ 0x64
    DMA2->S[3].NDTR = size;
 80018a4:	4a21      	ldr	r2, [pc, #132]	@ (800192c <DMA2_config_SPI1_TX+0xd0>)
 80018a6:	683b      	ldr	r3, [r7, #0]
 80018a8:	65d3      	str	r3, [r2, #92]	@ 0x5c

    DMA2->S[3].CR = (3 << 25) | (1 << 10) | (1 << 6);
 80018aa:	4b20      	ldr	r3, [pc, #128]	@ (800192c <DMA2_config_SPI1_TX+0xd0>)
 80018ac:	4a21      	ldr	r2, [pc, #132]	@ (8001934 <DMA2_config_SPI1_TX+0xd8>)
 80018ae:	659a      	str	r2, [r3, #88]	@ 0x58


    SPI1->CR1 &= ~(1 << 6); // 일단 SPI 끄기 (설정 변경을 위해)
 80018b0:	4b21      	ldr	r3, [pc, #132]	@ (8001938 <DMA2_config_SPI1_TX+0xdc>)
 80018b2:	681b      	ldr	r3, [r3, #0]
 80018b4:	4a20      	ldr	r2, [pc, #128]	@ (8001938 <DMA2_config_SPI1_TX+0xdc>)
 80018b6:	f023 0340 	bic.w	r3, r3, #64	@ 0x40
 80018ba:	6013      	str	r3, [r2, #0]

    // Baud Rate: 108MHz
    SPI1->CR1 &= ~(7 << 3);
 80018bc:	4b1e      	ldr	r3, [pc, #120]	@ (8001938 <DMA2_config_SPI1_TX+0xdc>)
 80018be:	681b      	ldr	r3, [r3, #0]
 80018c0:	4a1d      	ldr	r2, [pc, #116]	@ (8001938 <DMA2_config_SPI1_TX+0xdc>)
 80018c2:	f023 0338 	bic.w	r3, r3, #56	@ 0x38
 80018c6:	6013      	str	r3, [r2, #0]
    SPI1->CR1 |=  (3 << 3);
 80018c8:	4b1b      	ldr	r3, [pc, #108]	@ (8001938 <DMA2_config_SPI1_TX+0xdc>)
 80018ca:	681b      	ldr	r3, [r3, #0]
 80018cc:	4a1a      	ldr	r2, [pc, #104]	@ (8001938 <DMA2_config_SPI1_TX+0xdc>)
 80018ce:	f043 0318 	orr.w	r3, r3, #24
 80018d2:	6013      	str	r3, [r2, #0]
    SPI1->CR1 &= ~(1 << 0); // CPHA = 0
 80018d4:	4b18      	ldr	r3, [pc, #96]	@ (8001938 <DMA2_config_SPI1_TX+0xdc>)
 80018d6:	681b      	ldr	r3, [r3, #0]
 80018d8:	4a17      	ldr	r2, [pc, #92]	@ (8001938 <DMA2_config_SPI1_TX+0xdc>)
 80018da:	f023 0301 	bic.w	r3, r3, #1
 80018de:	6013      	str	r3, [r2, #0]
    SPI1->CR1 &= ~(1 << 1); // CPOL = 0
 80018e0:	4b15      	ldr	r3, [pc, #84]	@ (8001938 <DMA2_config_SPI1_TX+0xdc>)
 80018e2:	681b      	ldr	r3, [r3, #0]
 80018e4:	4a14      	ldr	r2, [pc, #80]	@ (8001938 <DMA2_config_SPI1_TX+0xdc>)
 80018e6:	f023 0302 	bic.w	r3, r3, #2
 80018ea:	6013      	str	r3, [r2, #0]


    SPI1->CR2 &= ~(0xF << 8);
 80018ec:	4b12      	ldr	r3, [pc, #72]	@ (8001938 <DMA2_config_SPI1_TX+0xdc>)
 80018ee:	685b      	ldr	r3, [r3, #4]
 80018f0:	4a11      	ldr	r2, [pc, #68]	@ (8001938 <DMA2_config_SPI1_TX+0xdc>)
 80018f2:	f423 6370 	bic.w	r3, r3, #3840	@ 0xf00
 80018f6:	6053      	str	r3, [r2, #4]
    SPI1->CR2 |=  (0x7 << 8);
 80018f8:	4b0f      	ldr	r3, [pc, #60]	@ (8001938 <DMA2_config_SPI1_TX+0xdc>)
 80018fa:	685b      	ldr	r3, [r3, #4]
 80018fc:	4a0e      	ldr	r2, [pc, #56]	@ (8001938 <DMA2_config_SPI1_TX+0xdc>)
 80018fe:	f443 63e0 	orr.w	r3, r3, #1792	@ 0x700
 8001902:	6053      	str	r3, [r2, #4]

    SPI1->CR2 |= (1 << 12);
 8001904:	4b0c      	ldr	r3, [pc, #48]	@ (8001938 <DMA2_config_SPI1_TX+0xdc>)
 8001906:	685b      	ldr	r3, [r3, #4]
 8001908:	4a0b      	ldr	r2, [pc, #44]	@ (8001938 <DMA2_config_SPI1_TX+0xdc>)
 800190a:	f443 5380 	orr.w	r3, r3, #4096	@ 0x1000
 800190e:	6053      	str	r3, [r2, #4]

    SPI1->CR1 |= (1 << 6) | (1 << 2) | (1 << 8) | (1 << 9);
 8001910:	4b09      	ldr	r3, [pc, #36]	@ (8001938 <DMA2_config_SPI1_TX+0xdc>)
 8001912:	681b      	ldr	r3, [r3, #0]
 8001914:	4a08      	ldr	r2, [pc, #32]	@ (8001938 <DMA2_config_SPI1_TX+0xdc>)
 8001916:	f443 7351 	orr.w	r3, r3, #836	@ 0x344
 800191a:	6013      	str	r3, [r2, #0]
}
 800191c:	bf00      	nop
 800191e:	370c      	adds	r7, #12
 8001920:	46bd      	mov	sp, r7
 8001922:	f85d 7b04 	ldr.w	r7, [sp], #4
 8001926:	4770      	bx	lr
 8001928:	40023800 	.word	0x40023800
 800192c:	40026400 	.word	0x40026400
 8001930:	4001300c 	.word	0x4001300c
 8001934:	06000440 	.word	0x06000440
 8001938:	40013000 	.word	0x40013000

0800193c <SPI1_DMA_transfer>:

void SPI1_DMA_transfer(uint8_t *addr, uint32_t len) {
 800193c:	b480      	push	{r7}
 800193e:	b083      	sub	sp, #12
 8001940:	af00      	add	r7, sp, #0
 8001942:	6078      	str	r0, [r7, #4]
 8001944:	6039      	str	r1, [r7, #0]
	SPI1->CR2 |= (1 << 1);
 8001946:	4b20      	ldr	r3, [pc, #128]	@ (80019c8 <SPI1_DMA_transfer+0x8c>)
 8001948:	685b      	ldr	r3, [r3, #4]
 800194a:	4a1f      	ldr	r2, [pc, #124]	@ (80019c8 <SPI1_DMA_transfer+0x8c>)
 800194c:	f043 0302 	orr.w	r3, r3, #2
 8001950:	6053      	str	r3, [r2, #4]
	// DMA 스트림 비활성화
    DMA2->S[3].CR &= ~(1 << 0);
 8001952:	4b1e      	ldr	r3, [pc, #120]	@ (80019cc <SPI1_DMA_transfer+0x90>)
 8001954:	6d9b      	ldr	r3, [r3, #88]	@ 0x58
 8001956:	4a1d      	ldr	r2, [pc, #116]	@ (80019cc <SPI1_DMA_transfer+0x90>)
 8001958:	f023 0301 	bic.w	r3, r3, #1
 800195c:	6593      	str	r3, [r2, #88]	@ 0x58
    while (DMA2->S[3].CR & (1 << 0)); // 완전히 꺼질 때까지 대기
 800195e:	bf00      	nop
 8001960:	4b1a      	ldr	r3, [pc, #104]	@ (80019cc <SPI1_DMA_transfer+0x90>)
 8001962:	6d9b      	ldr	r3, [r3, #88]	@ 0x58
 8001964:	f003 0301 	and.w	r3, r3, #1
 8001968:	2b00      	cmp	r3, #0
 800196a:	d1f9      	bne.n	8001960 <SPI1_DMA_transfer+0x24>

    // 새로운 메모리 주소(M0AR)와 데이터 개수(NDTR) 설정
    DMA2->S[3].M0AR = (uint32_t)addr;
 800196c:	4a17      	ldr	r2, [pc, #92]	@ (80019cc <SPI1_DMA_transfer+0x90>)
 800196e:	687b      	ldr	r3, [r7, #4]
 8001970:	6653      	str	r3, [r2, #100]	@ 0x64
    DMA2->S[3].NDTR = len;
 8001972:	4a16      	ldr	r2, [pc, #88]	@ (80019cc <SPI1_DMA_transfer+0x90>)
 8001974:	683b      	ldr	r3, [r7, #0]
 8001976:	65d3      	str	r3, [r2, #92]	@ 0x5c

    //  이전 전송 플래그들 모두 청소 (LIFCR)
    DMA2->LIFCR = (0x3D << 22);
 8001978:	4b14      	ldr	r3, [pc, #80]	@ (80019cc <SPI1_DMA_transfer+0x90>)
 800197a:	f04f 6274 	mov.w	r2, #255852544	@ 0xf400000
 800197e:	609a      	str	r2, [r3, #8]

    // DMA 스트림 다시 활성화
    DMA2->S[3].CR |= (1 << 0);
 8001980:	4b12      	ldr	r3, [pc, #72]	@ (80019cc <SPI1_DMA_transfer+0x90>)
 8001982:	6d9b      	ldr	r3, [r3, #88]	@ 0x58
 8001984:	4a11      	ldr	r2, [pc, #68]	@ (80019cc <SPI1_DMA_transfer+0x90>)
 8001986:	f043 0301 	orr.w	r3, r3, #1
 800198a:	6593      	str	r3, [r2, #88]	@ 0x58

    //  전송 완료(TC) 플래그 대기
    while (!(DMA2->LISR & (1 << 27)));
 800198c:	bf00      	nop
 800198e:	4b0f      	ldr	r3, [pc, #60]	@ (80019cc <SPI1_DMA_transfer+0x90>)
 8001990:	681b      	ldr	r3, [r3, #0]
 8001992:	f003 6300 	and.w	r3, r3, #134217728	@ 0x8000000
 8001996:	2b00      	cmp	r3, #0
 8001998:	d0f9      	beq.n	800198e <SPI1_DMA_transfer+0x52>

    //  전송 완료 플래그 청소
    DMA2->LIFCR = (1 << 27);
 800199a:	4b0c      	ldr	r3, [pc, #48]	@ (80019cc <SPI1_DMA_transfer+0x90>)
 800199c:	f04f 6200 	mov.w	r2, #134217728	@ 0x8000000
 80019a0:	609a      	str	r2, [r3, #8]
    while (SPI1->SR & (1 << 7)); //대기 **오류 원인**
 80019a2:	bf00      	nop
 80019a4:	4b08      	ldr	r3, [pc, #32]	@ (80019c8 <SPI1_DMA_transfer+0x8c>)
 80019a6:	689b      	ldr	r3, [r3, #8]
 80019a8:	f003 0380 	and.w	r3, r3, #128	@ 0x80
 80019ac:	2b00      	cmp	r3, #0
 80019ae:	d1f9      	bne.n	80019a4 <SPI1_DMA_transfer+0x68>
    SPI1->CR2 &= ~(1 << 1);
 80019b0:	4b05      	ldr	r3, [pc, #20]	@ (80019c8 <SPI1_DMA_transfer+0x8c>)
 80019b2:	685b      	ldr	r3, [r3, #4]
 80019b4:	4a04      	ldr	r2, [pc, #16]	@ (80019c8 <SPI1_DMA_transfer+0x8c>)
 80019b6:	f023 0302 	bic.w	r3, r3, #2
 80019ba:	6053      	str	r3, [r2, #4]
}
 80019bc:	bf00      	nop
 80019be:	370c      	adds	r7, #12
 80019c0:	46bd      	mov	sp, r7
 80019c2:	f85d 7b04 	ldr.w	r7, [sp], #4
 80019c6:	4770      	bx	lr
 80019c8:	40013000 	.word	0x40013000
 80019cc:	40026400 	.word	0x40026400

080019d0 <CS_ON>:
    while (!(SPI1->SR & (1 << 1))); // TXE 대기
    *((volatile uint8_t *)&SPI1->DR) = data;
    while (SPI1->SR & (1 << 7));   // BSY 대기 **오류 원인**
}

void CS_ON(){
 80019d0:	b580      	push	{r7, lr}
 80019d2:	af00      	add	r7, sp, #0
	GPIO_Write_Pin(GPIOD, 14, 0);
 80019d4:	2200      	movs	r2, #0
 80019d6:	210e      	movs	r1, #14
 80019d8:	4802      	ldr	r0, [pc, #8]	@ (80019e4 <CS_ON+0x14>)
 80019da:	f7ff fb22 	bl	8001022 <GPIO_Write_Pin>
}
 80019de:	bf00      	nop
 80019e0:	bd80      	pop	{r7, pc}
 80019e2:	bf00      	nop
 80019e4:	40020c00 	.word	0x40020c00

080019e8 <CS_OFF>:
void CS_OFF(){
 80019e8:	b580      	push	{r7, lr}
 80019ea:	af00      	add	r7, sp, #0
	GPIO_Write_Pin(GPIOD, 14, 1);
 80019ec:	2201      	movs	r2, #1
 80019ee:	210e      	movs	r1, #14
 80019f0:	4802      	ldr	r0, [pc, #8]	@ (80019fc <CS_OFF+0x14>)
 80019f2:	f7ff fb16 	bl	8001022 <GPIO_Write_Pin>
}
 80019f6:	bf00      	nop
 80019f8:	bd80      	pop	{r7, pc}
 80019fa:	bf00      	nop
 80019fc:	40020c00 	.word	0x40020c00

08001a00 <SPI_GPIO_Init>:

void SPI_GPIO_Init(){
 8001a00:	b580      	push	{r7, lr}
 8001a02:	af00      	add	r7, sp, #0
	GPIO_Clock_Enable(GPIOD);
 8001a04:	4825      	ldr	r0, [pc, #148]	@ (8001a9c <SPI_GPIO_Init+0x9c>)
 8001a06:	f7ff fb2d 	bl	8001064 <GPIO_Clock_Enable>
	GPIO_pin_Mode(GPIOD, 14, 1);
 8001a0a:	2201      	movs	r2, #1
 8001a0c:	210e      	movs	r1, #14
 8001a0e:	4823      	ldr	r0, [pc, #140]	@ (8001a9c <SPI_GPIO_Init+0x9c>)
 8001a10:	f7ff fae4 	bl	8000fdc <GPIO_pin_Mode>
	GPIO_Speed_Set(GPIOD, 14, 3);
 8001a14:	2203      	movs	r2, #3
 8001a16:	210e      	movs	r1, #14
 8001a18:	4820      	ldr	r0, [pc, #128]	@ (8001a9c <SPI_GPIO_Init+0x9c>)
 8001a1a:	f7ff fbc1 	bl	80011a0 <GPIO_Speed_Set>
	GPIO_Clock_Enable(GPIOA);
 8001a1e:	4820      	ldr	r0, [pc, #128]	@ (8001aa0 <SPI_GPIO_Init+0xa0>)
 8001a20:	f7ff fb20 	bl	8001064 <GPIO_Clock_Enable>
	GPIO_Clock_Enable(GPIOF);
 8001a24:	481f      	ldr	r0, [pc, #124]	@ (8001aa4 <SPI_GPIO_Init+0xa4>)
 8001a26:	f7ff fb1d 	bl	8001064 <GPIO_Clock_Enable>
	GPIO_pin_Mode(GPIOF, 13, 1);
 8001a2a:	2201      	movs	r2, #1
 8001a2c:	210d      	movs	r1, #13
 8001a2e:	481d      	ldr	r0, [pc, #116]	@ (8001aa4 <SPI_GPIO_Init+0xa4>)
 8001a30:	f7ff fad4 	bl	8000fdc <GPIO_pin_Mode>
	GPIO_Speed_Set(GPIOF, 13, 3);
 8001a34:	2203      	movs	r2, #3
 8001a36:	210d      	movs	r1, #13
 8001a38:	481a      	ldr	r0, [pc, #104]	@ (8001aa4 <SPI_GPIO_Init+0xa4>)
 8001a3a:	f7ff fbb1 	bl	80011a0 <GPIO_Speed_Set>

	GPIO_pin_Mode(GPIOA, 5, 2); // PA5 -> AF Mode
 8001a3e:	2202      	movs	r2, #2
 8001a40:	2105      	movs	r1, #5
 8001a42:	4817      	ldr	r0, [pc, #92]	@ (8001aa0 <SPI_GPIO_Init+0xa0>)
 8001a44:	f7ff faca 	bl	8000fdc <GPIO_pin_Mode>
	GPIO_pin_Mode(GPIOA, 7, 2); // PA7 -> AF M
 8001a48:	2202      	movs	r2, #2
 8001a4a:	2107      	movs	r1, #7
 8001a4c:	4814      	ldr	r0, [pc, #80]	@ (8001aa0 <SPI_GPIO_Init+0xa0>)
 8001a4e:	f7ff fac5 	bl	8000fdc <GPIO_pin_Mode>
	GPIO_Speed_Set(GPIOA, 5, 3);
 8001a52:	2203      	movs	r2, #3
 8001a54:	2105      	movs	r1, #5
 8001a56:	4812      	ldr	r0, [pc, #72]	@ (8001aa0 <SPI_GPIO_Init+0xa0>)
 8001a58:	f7ff fba2 	bl	80011a0 <GPIO_Speed_Set>
	GPIO_Speed_Set(GPIOA, 7, 3);
 8001a5c:	2203      	movs	r2, #3
 8001a5e:	2107      	movs	r1, #7
 8001a60:	480f      	ldr	r0, [pc, #60]	@ (8001aa0 <SPI_GPIO_Init+0xa0>)
 8001a62:	f7ff fb9d 	bl	80011a0 <GPIO_Speed_Set>

	GPIOA->AFRL &= ~(0xF << (5 * 4)); // 초기화
 8001a66:	4b0e      	ldr	r3, [pc, #56]	@ (8001aa0 <SPI_GPIO_Init+0xa0>)
 8001a68:	6a1b      	ldr	r3, [r3, #32]
 8001a6a:	4a0d      	ldr	r2, [pc, #52]	@ (8001aa0 <SPI_GPIO_Init+0xa0>)
 8001a6c:	f423 0370 	bic.w	r3, r3, #15728640	@ 0xf00000
 8001a70:	6213      	str	r3, [r2, #32]
	GPIOA->AFRL |=  (0x5 << (5 * 4)); // AF5(SPI1) 주입
 8001a72:	4b0b      	ldr	r3, [pc, #44]	@ (8001aa0 <SPI_GPIO_Init+0xa0>)
 8001a74:	6a1b      	ldr	r3, [r3, #32]
 8001a76:	4a0a      	ldr	r2, [pc, #40]	@ (8001aa0 <SPI_GPIO_Init+0xa0>)
 8001a78:	f443 03a0 	orr.w	r3, r3, #5242880	@ 0x500000
 8001a7c:	6213      	str	r3, [r2, #32]
	GPIOA->AFRL &= ~(0xF << (7 * 4)); // 초기화
 8001a7e:	4b08      	ldr	r3, [pc, #32]	@ (8001aa0 <SPI_GPIO_Init+0xa0>)
 8001a80:	6a1b      	ldr	r3, [r3, #32]
 8001a82:	4a07      	ldr	r2, [pc, #28]	@ (8001aa0 <SPI_GPIO_Init+0xa0>)
 8001a84:	f023 4370 	bic.w	r3, r3, #4026531840	@ 0xf0000000
 8001a88:	6213      	str	r3, [r2, #32]
	GPIOA->AFRL |=  (0x5 << (7 * 4)); // AF5(SPI1) 주입
 8001a8a:	4b05      	ldr	r3, [pc, #20]	@ (8001aa0 <SPI_GPIO_Init+0xa0>)
 8001a8c:	6a1b      	ldr	r3, [r3, #32]
 8001a8e:	4a04      	ldr	r2, [pc, #16]	@ (8001aa0 <SPI_GPIO_Init+0xa0>)
 8001a90:	f043 43a0 	orr.w	r3, r3, #1342177280	@ 0x50000000
 8001a94:	6213      	str	r3, [r2, #32]
}
 8001a96:	bf00      	nop
 8001a98:	bd80      	pop	{r7, pc}
 8001a9a:	bf00      	nop
 8001a9c:	40020c00 	.word	0x40020c00
 8001aa0:	40020000 	.word	0x40020000
 8001aa4:	40021400 	.word	0x40021400

08001aa8 <_getpid>:
void initialise_monitor_handles()
{
}

int _getpid(void)
{
 8001aa8:	b480      	push	{r7}
 8001aaa:	af00      	add	r7, sp, #0
  return 1;
 8001aac:	2301      	movs	r3, #1
}
 8001aae:	4618      	mov	r0, r3
 8001ab0:	46bd      	mov	sp, r7
 8001ab2:	f85d 7b04 	ldr.w	r7, [sp], #4
 8001ab6:	4770      	bx	lr

08001ab8 <_kill>:

int _kill(int pid, int sig)
{
 8001ab8:	b580      	push	{r7, lr}
 8001aba:	b082      	sub	sp, #8
 8001abc:	af00      	add	r7, sp, #0
 8001abe:	6078      	str	r0, [r7, #4]
 8001ac0:	6039      	str	r1, [r7, #0]
  (void)pid;
  (void)sig;
  errno = EINVAL;
 8001ac2:	f001 f99b 	bl	8002dfc <__errno>
 8001ac6:	4603      	mov	r3, r0
 8001ac8:	2216      	movs	r2, #22
 8001aca:	601a      	str	r2, [r3, #0]
  return -1;
 8001acc:	f04f 33ff 	mov.w	r3, #4294967295
}
 8001ad0:	4618      	mov	r0, r3
 8001ad2:	3708      	adds	r7, #8
 8001ad4:	46bd      	mov	sp, r7
 8001ad6:	bd80      	pop	{r7, pc}

08001ad8 <_exit>:

void _exit (int status)
{
 8001ad8:	b580      	push	{r7, lr}
 8001ada:	b082      	sub	sp, #8
 8001adc:	af00      	add	r7, sp, #0
 8001ade:	6078      	str	r0, [r7, #4]
  _kill(status, -1);
 8001ae0:	f04f 31ff 	mov.w	r1, #4294967295
 8001ae4:	6878      	ldr	r0, [r7, #4]
 8001ae6:	f7ff ffe7 	bl	8001ab8 <_kill>
  while (1) {}    /* Make sure we hang here */
 8001aea:	bf00      	nop
 8001aec:	e7fd      	b.n	8001aea <_exit+0x12>

08001aee <_read>:
}

__attribute__((weak)) int _read(int file, char *ptr, int len)
{
 8001aee:	b580      	push	{r7, lr}
 8001af0:	b086      	sub	sp, #24
 8001af2:	af00      	add	r7, sp, #0
 8001af4:	60f8      	str	r0, [r7, #12]
 8001af6:	60b9      	str	r1, [r7, #8]
 8001af8:	607a      	str	r2, [r7, #4]
  (void)file;
  int DataIdx;

  for (DataIdx = 0; DataIdx < len; DataIdx++)
 8001afa:	2300      	movs	r3, #0
 8001afc:	617b      	str	r3, [r7, #20]
 8001afe:	e00a      	b.n	8001b16 <_read+0x28>
  {
    *ptr++ = __io_getchar();
 8001b00:	f3af 8000 	nop.w
 8001b04:	4601      	mov	r1, r0
 8001b06:	68bb      	ldr	r3, [r7, #8]
 8001b08:	1c5a      	adds	r2, r3, #1
 8001b0a:	60ba      	str	r2, [r7, #8]
 8001b0c:	b2ca      	uxtb	r2, r1
 8001b0e:	701a      	strb	r2, [r3, #0]
  for (DataIdx = 0; DataIdx < len; DataIdx++)
 8001b10:	697b      	ldr	r3, [r7, #20]
 8001b12:	3301      	adds	r3, #1
 8001b14:	617b      	str	r3, [r7, #20]
 8001b16:	697a      	ldr	r2, [r7, #20]
 8001b18:	687b      	ldr	r3, [r7, #4]
 8001b1a:	429a      	cmp	r2, r3
 8001b1c:	dbf0      	blt.n	8001b00 <_read+0x12>
  }

  return len;
 8001b1e:	687b      	ldr	r3, [r7, #4]
}
 8001b20:	4618      	mov	r0, r3
 8001b22:	3718      	adds	r7, #24
 8001b24:	46bd      	mov	sp, r7
 8001b26:	bd80      	pop	{r7, pc}

08001b28 <_close>:
  }
  return len;
}

int _close(int file)
{
 8001b28:	b480      	push	{r7}
 8001b2a:	b083      	sub	sp, #12
 8001b2c:	af00      	add	r7, sp, #0
 8001b2e:	6078      	str	r0, [r7, #4]
  (void)file;
  return -1;
 8001b30:	f04f 33ff 	mov.w	r3, #4294967295
}
 8001b34:	4618      	mov	r0, r3
 8001b36:	370c      	adds	r7, #12
 8001b38:	46bd      	mov	sp, r7
 8001b3a:	f85d 7b04 	ldr.w	r7, [sp], #4
 8001b3e:	4770      	bx	lr

08001b40 <_fstat>:


int _fstat(int file, struct stat *st)
{
 8001b40:	b480      	push	{r7}
 8001b42:	b083      	sub	sp, #12
 8001b44:	af00      	add	r7, sp, #0
 8001b46:	6078      	str	r0, [r7, #4]
 8001b48:	6039      	str	r1, [r7, #0]
  (void)file;
  st->st_mode = S_IFCHR;
 8001b4a:	683b      	ldr	r3, [r7, #0]
 8001b4c:	f44f 5200 	mov.w	r2, #8192	@ 0x2000
 8001b50:	605a      	str	r2, [r3, #4]
  return 0;
 8001b52:	2300      	movs	r3, #0
}
 8001b54:	4618      	mov	r0, r3
 8001b56:	370c      	adds	r7, #12
 8001b58:	46bd      	mov	sp, r7
 8001b5a:	f85d 7b04 	ldr.w	r7, [sp], #4
 8001b5e:	4770      	bx	lr

08001b60 <_isatty>:

int _isatty(int file)
{
 8001b60:	b480      	push	{r7}
 8001b62:	b083      	sub	sp, #12
 8001b64:	af00      	add	r7, sp, #0
 8001b66:	6078      	str	r0, [r7, #4]
  (void)file;
  return 1;
 8001b68:	2301      	movs	r3, #1
}
 8001b6a:	4618      	mov	r0, r3
 8001b6c:	370c      	adds	r7, #12
 8001b6e:	46bd      	mov	sp, r7
 8001b70:	f85d 7b04 	ldr.w	r7, [sp], #4
 8001b74:	4770      	bx	lr

08001b76 <_lseek>:

int _lseek(int file, int ptr, int dir)
{
 8001b76:	b480      	push	{r7}
 8001b78:	b085      	sub	sp, #20
 8001b7a:	af00      	add	r7, sp, #0
 8001b7c:	60f8      	str	r0, [r7, #12]
 8001b7e:	60b9      	str	r1, [r7, #8]
 8001b80:	607a      	str	r2, [r7, #4]
  (void)file;
  (void)ptr;
  (void)dir;
  return 0;
 8001b82:	2300      	movs	r3, #0
}
 8001b84:	4618      	mov	r0, r3
 8001b86:	3714      	adds	r7, #20
 8001b88:	46bd      	mov	sp, r7
 8001b8a:	f85d 7b04 	ldr.w	r7, [sp], #4
 8001b8e:	4770      	bx	lr

08001b90 <_sbrk>:
 *
 * @param incr Memory size
 * @return Pointer to allocated memory
 */
void *_sbrk(ptrdiff_t incr)
{
 8001b90:	b580      	push	{r7, lr}
 8001b92:	b086      	sub	sp, #24
 8001b94:	af00      	add	r7, sp, #0
 8001b96:	6078      	str	r0, [r7, #4]
  extern uint8_t _end; /* Symbol defined in the linker script */
  extern uint8_t _estack; /* Symbol defined in the linker script */
  extern uint32_t _Min_Stack_Size; /* Symbol defined in the linker script */
  const uint32_t stack_limit = (uint32_t)&_estack - (uint32_t)&_Min_Stack_Size;
 8001b98:	4a14      	ldr	r2, [pc, #80]	@ (8001bec <_sbrk+0x5c>)
 8001b9a:	4b15      	ldr	r3, [pc, #84]	@ (8001bf0 <_sbrk+0x60>)
 8001b9c:	1ad3      	subs	r3, r2, r3
 8001b9e:	617b      	str	r3, [r7, #20]
  const uint8_t *max_heap = (uint8_t *)stack_limit;
 8001ba0:	697b      	ldr	r3, [r7, #20]
 8001ba2:	613b      	str	r3, [r7, #16]
  uint8_t *prev_heap_end;

  /* Initialize heap end at first call */
  if (NULL == __sbrk_heap_end)
 8001ba4:	4b13      	ldr	r3, [pc, #76]	@ (8001bf4 <_sbrk+0x64>)
 8001ba6:	681b      	ldr	r3, [r3, #0]
 8001ba8:	2b00      	cmp	r3, #0
 8001baa:	d102      	bne.n	8001bb2 <_sbrk+0x22>
  {
    __sbrk_heap_end = &_end;
 8001bac:	4b11      	ldr	r3, [pc, #68]	@ (8001bf4 <_sbrk+0x64>)
 8001bae:	4a12      	ldr	r2, [pc, #72]	@ (8001bf8 <_sbrk+0x68>)
 8001bb0:	601a      	str	r2, [r3, #0]
  }

  /* Protect heap from growing into the reserved MSP stack */
  if (__sbrk_heap_end + incr > max_heap)
 8001bb2:	4b10      	ldr	r3, [pc, #64]	@ (8001bf4 <_sbrk+0x64>)
 8001bb4:	681a      	ldr	r2, [r3, #0]
 8001bb6:	687b      	ldr	r3, [r7, #4]
 8001bb8:	4413      	add	r3, r2
 8001bba:	693a      	ldr	r2, [r7, #16]
 8001bbc:	429a      	cmp	r2, r3
 8001bbe:	d207      	bcs.n	8001bd0 <_sbrk+0x40>
  {
    errno = ENOMEM;
 8001bc0:	f001 f91c 	bl	8002dfc <__errno>
 8001bc4:	4603      	mov	r3, r0
 8001bc6:	220c      	movs	r2, #12
 8001bc8:	601a      	str	r2, [r3, #0]
    return (void *)-1;
 8001bca:	f04f 33ff 	mov.w	r3, #4294967295
 8001bce:	e009      	b.n	8001be4 <_sbrk+0x54>
  }

  prev_heap_end = __sbrk_heap_end;
 8001bd0:	4b08      	ldr	r3, [pc, #32]	@ (8001bf4 <_sbrk+0x64>)
 8001bd2:	681b      	ldr	r3, [r3, #0]
 8001bd4:	60fb      	str	r3, [r7, #12]
  __sbrk_heap_end += incr;
 8001bd6:	4b07      	ldr	r3, [pc, #28]	@ (8001bf4 <_sbrk+0x64>)
 8001bd8:	681a      	ldr	r2, [r3, #0]
 8001bda:	687b      	ldr	r3, [r7, #4]
 8001bdc:	4413      	add	r3, r2
 8001bde:	4a05      	ldr	r2, [pc, #20]	@ (8001bf4 <_sbrk+0x64>)
 8001be0:	6013      	str	r3, [r2, #0]

  return (void *)prev_heap_end;
 8001be2:	68fb      	ldr	r3, [r7, #12]
}
 8001be4:	4618      	mov	r0, r3
 8001be6:	3718      	adds	r7, #24
 8001be8:	46bd      	mov	sp, r7
 8001bea:	bd80      	pop	{r7, pc}
 8001bec:	20080000 	.word	0x20080000
 8001bf0:	00000400 	.word	0x00000400
 8001bf4:	200003d0 	.word	0x200003d0
 8001bf8:	20000520 	.word	0x20000520

08001bfc <Default_Handler>:

extern uint32_t _estack;
extern uint32_t _sidata, _sdata, _edata, _sbss, _ebss;

void Reset_Handler(void);
void Default_Handler(void) { while(1); }
 8001bfc:	b480      	push	{r7}
 8001bfe:	af00      	add	r7, sp, #0
 8001c00:	bf00      	nop
 8001c02:	e7fd      	b.n	8001c00 <Default_Handler+0x4>

08001c04 <Reset_Handler>:
void NMI_Handler(void)       __attribute__((weak, alias("Default_Handler")));
void HardFault_Handler(void) __attribute__((weak, alias("Default_Handler")));
void SysTick_Handler(void)   __attribute__((weak, alias("Default_Handler")));
void TIM2_IRQHandler(void)   __attribute__((weak, alias("Default_Handler")));

void Reset_Handler(void) {
 8001c04:	b580      	push	{r7, lr}
 8001c06:	b082      	sub	sp, #8
 8001c08:	af00      	add	r7, sp, #0
    // [중요] 1. FPU 활성화 (STM32F7 필수)
    // CP10, CP11 권한을 Full Access로 설정하여 FPU를 켭니다.
    *(volatile uint32_t*)0xE000ED88 |= ((3UL << 20) | (3UL << 22));
 8001c0a:	4b15      	ldr	r3, [pc, #84]	@ (8001c60 <Reset_Handler+0x5c>)
 8001c0c:	681b      	ldr	r3, [r3, #0]
 8001c0e:	4a14      	ldr	r2, [pc, #80]	@ (8001c60 <Reset_Handler+0x5c>)
 8001c10:	f443 0370 	orr.w	r3, r3, #15728640	@ 0xf00000
 8001c14:	6013      	str	r3, [r2, #0]

    // 2. DATA 섹션 복사
    uint32_t *src = &_sidata;
 8001c16:	4b13      	ldr	r3, [pc, #76]	@ (8001c64 <Reset_Handler+0x60>)
 8001c18:	607b      	str	r3, [r7, #4]
    uint32_t *dst = &_sdata;
 8001c1a:	4b13      	ldr	r3, [pc, #76]	@ (8001c68 <Reset_Handler+0x64>)
 8001c1c:	603b      	str	r3, [r7, #0]
    while (dst < &_edata) *dst++ = *src++;
 8001c1e:	e007      	b.n	8001c30 <Reset_Handler+0x2c>
 8001c20:	687a      	ldr	r2, [r7, #4]
 8001c22:	1d13      	adds	r3, r2, #4
 8001c24:	607b      	str	r3, [r7, #4]
 8001c26:	683b      	ldr	r3, [r7, #0]
 8001c28:	1d19      	adds	r1, r3, #4
 8001c2a:	6039      	str	r1, [r7, #0]
 8001c2c:	6812      	ldr	r2, [r2, #0]
 8001c2e:	601a      	str	r2, [r3, #0]
 8001c30:	683b      	ldr	r3, [r7, #0]
 8001c32:	4a0e      	ldr	r2, [pc, #56]	@ (8001c6c <Reset_Handler+0x68>)
 8001c34:	4293      	cmp	r3, r2
 8001c36:	d3f3      	bcc.n	8001c20 <Reset_Handler+0x1c>

    // 3. BSS 섹션 초기화
    dst = &_sbss;
 8001c38:	4b0d      	ldr	r3, [pc, #52]	@ (8001c70 <Reset_Handler+0x6c>)
 8001c3a:	603b      	str	r3, [r7, #0]
    while (dst < &_ebss) *dst++ = 0;
 8001c3c:	e004      	b.n	8001c48 <Reset_Handler+0x44>
 8001c3e:	683b      	ldr	r3, [r7, #0]
 8001c40:	1d1a      	adds	r2, r3, #4
 8001c42:	603a      	str	r2, [r7, #0]
 8001c44:	2200      	movs	r2, #0
 8001c46:	601a      	str	r2, [r3, #0]
 8001c48:	683b      	ldr	r3, [r7, #0]
 8001c4a:	4a0a      	ldr	r2, [pc, #40]	@ (8001c74 <Reset_Handler+0x70>)
 8001c4c:	4293      	cmp	r3, r2
 8001c4e:	d3f6      	bcc.n	8001c3e <Reset_Handler+0x3a>

    // 4. VTOR 설정 (현재 벡터 테이블의 주소를 CPU에 등록)
    extern void (* const g_pfnVectors[])(void);
    *(volatile uint32_t *)0xE000ED08 = (uint32_t)g_pfnVectors;
 8001c50:	4b09      	ldr	r3, [pc, #36]	@ (8001c78 <Reset_Handler+0x74>)
 8001c52:	4a0a      	ldr	r2, [pc, #40]	@ (8001c7c <Reset_Handler+0x78>)
 8001c54:	601a      	str	r2, [r3, #0]

    // 5. main 호출
    extern int main(void);
    main();
 8001c56:	f7ff fca9 	bl	80015ac <main>

    while(1);
 8001c5a:	bf00      	nop
 8001c5c:	e7fd      	b.n	8001c5a <Reset_Handler+0x56>
 8001c5e:	bf00      	nop
 8001c60:	e000ed88 	.word	0xe000ed88
 8001c64:	08006f24 	.word	0x08006f24
 8001c68:	20000000 	.word	0x20000000
 8001c6c:	200001d8 	.word	0x200001d8
 8001c70:	200001d8 	.word	0x200001d8
 8001c74:	20000520 	.word	0x20000520
 8001c78:	e000ed08 	.word	0xe000ed08
 8001c7c:	08000000 	.word	0x08000000

08001c80 <TIM2_Init>:
#include "timer.h"
#include "rcc.h"

void TIM2_Init(void) {
 8001c80:	b480      	push	{r7}
 8001c82:	af00      	add	r7, sp, #0
    RCC->APB1ENR |= (1<<0);
 8001c84:	4b18      	ldr	r3, [pc, #96]	@ (8001ce8 <TIM2_Init+0x68>)
 8001c86:	6c1b      	ldr	r3, [r3, #64]	@ 0x40
 8001c88:	4a17      	ldr	r2, [pc, #92]	@ (8001ce8 <TIM2_Init+0x68>)
 8001c8a:	f043 0301 	orr.w	r3, r3, #1
 8001c8e:	6413      	str	r3, [r2, #64]	@ 0x40


    TIM2->PSC = 108 - 1;
 8001c90:	f04f 4380 	mov.w	r3, #1073741824	@ 0x40000000
 8001c94:	226b      	movs	r2, #107	@ 0x6b
 8001c96:	629a      	str	r2, [r3, #40]	@ 0x28
    TIM2->ARR = 1000 - 1;
 8001c98:	f04f 4380 	mov.w	r3, #1073741824	@ 0x40000000
 8001c9c:	f240 32e7 	movw	r2, #999	@ 0x3e7
 8001ca0:	62da      	str	r2, [r3, #44]	@ 0x2c
    TIM2->DIER |= (1 << 0);
 8001ca2:	f04f 4380 	mov.w	r3, #1073741824	@ 0x40000000
 8001ca6:	68db      	ldr	r3, [r3, #12]
 8001ca8:	f04f 4280 	mov.w	r2, #1073741824	@ 0x40000000
 8001cac:	f043 0301 	orr.w	r3, r3, #1
 8001cb0:	60d3      	str	r3, [r2, #12]

    TIM2->CR1 |= (1 << 0);
 8001cb2:	f04f 4380 	mov.w	r3, #1073741824	@ 0x40000000
 8001cb6:	681b      	ldr	r3, [r3, #0]
 8001cb8:	f04f 4280 	mov.w	r2, #1073741824	@ 0x40000000
 8001cbc:	f043 0301 	orr.w	r3, r3, #1
 8001cc0:	6013      	str	r3, [r2, #0]
    *(volatile uint32_t *)0xE000E100 |= (1 << 28);
 8001cc2:	4b0a      	ldr	r3, [pc, #40]	@ (8001cec <TIM2_Init+0x6c>)
 8001cc4:	681b      	ldr	r3, [r3, #0]
 8001cc6:	4a09      	ldr	r2, [pc, #36]	@ (8001cec <TIM2_Init+0x6c>)
 8001cc8:	f043 5380 	orr.w	r3, r3, #268435456	@ 0x10000000
 8001ccc:	6013      	str	r3, [r2, #0]
    TIM2->CR1 |= (1<<0);
 8001cce:	f04f 4380 	mov.w	r3, #1073741824	@ 0x40000000
 8001cd2:	681b      	ldr	r3, [r3, #0]
 8001cd4:	f04f 4280 	mov.w	r2, #1073741824	@ 0x40000000
 8001cd8:	f043 0301 	orr.w	r3, r3, #1
 8001cdc:	6013      	str	r3, [r2, #0]
}
 8001cde:	bf00      	nop
 8001ce0:	46bd      	mov	sp, r7
 8001ce2:	f85d 7b04 	ldr.w	r7, [sp], #4
 8001ce6:	4770      	bx	lr
 8001ce8:	40023800 	.word	0x40023800
 8001cec:	e000e100 	.word	0xe000e100

08001cf0 <Usart3_TX_Init>:
#include <stdio.h>
#include <stdarg.h>
#include <string.h>


void Usart3_TX_Init(uint32_t baudrate){
 8001cf0:	b480      	push	{r7}
 8001cf2:	b085      	sub	sp, #20
 8001cf4:	af00      	add	r7, sp, #0
 8001cf6:	6078      	str	r0, [r7, #4]
	RCC->AHB1ENR |= (1 << 3);      // GPIOD 활성화
 8001cf8:	4b1c      	ldr	r3, [pc, #112]	@ (8001d6c <Usart3_TX_Init+0x7c>)
 8001cfa:	6b1b      	ldr	r3, [r3, #48]	@ 0x30
 8001cfc:	4a1b      	ldr	r2, [pc, #108]	@ (8001d6c <Usart3_TX_Init+0x7c>)
 8001cfe:	f043 0308 	orr.w	r3, r3, #8
 8001d02:	6313      	str	r3, [r2, #48]	@ 0x30
	RCC->APB1ENR |= (1 << 18);      // USART3 활성화
 8001d04:	4b19      	ldr	r3, [pc, #100]	@ (8001d6c <Usart3_TX_Init+0x7c>)
 8001d06:	6c1b      	ldr	r3, [r3, #64]	@ 0x40
 8001d08:	4a18      	ldr	r2, [pc, #96]	@ (8001d6c <Usart3_TX_Init+0x7c>)
 8001d0a:	f443 2380 	orr.w	r3, r3, #262144	@ 0x40000
 8001d0e:	6413      	str	r3, [r2, #64]	@ 0x40

	GPIOD->MODER &= ~((3 << 16) | (3 << 18)); // PD8 PD9
 8001d10:	4b17      	ldr	r3, [pc, #92]	@ (8001d70 <Usart3_TX_Init+0x80>)
 8001d12:	681b      	ldr	r3, [r3, #0]
 8001d14:	4a16      	ldr	r2, [pc, #88]	@ (8001d70 <Usart3_TX_Init+0x80>)
 8001d16:	f423 2370 	bic.w	r3, r3, #983040	@ 0xf0000
 8001d1a:	6013      	str	r3, [r2, #0]
	GPIOD->MODER |=  ((2 << 16) | (2 << 18)); // AF 모드
 8001d1c:	4b14      	ldr	r3, [pc, #80]	@ (8001d70 <Usart3_TX_Init+0x80>)
 8001d1e:	681b      	ldr	r3, [r3, #0]
 8001d20:	4a13      	ldr	r2, [pc, #76]	@ (8001d70 <Usart3_TX_Init+0x80>)
 8001d22:	f443 2320 	orr.w	r3, r3, #655360	@ 0xa0000
 8001d26:	6013      	str	r3, [r2, #0]

	GPIOD->AFRH |= (7 << 0) | (7 << 4);
 8001d28:	4b11      	ldr	r3, [pc, #68]	@ (8001d70 <Usart3_TX_Init+0x80>)
 8001d2a:	6a5b      	ldr	r3, [r3, #36]	@ 0x24
 8001d2c:	4a10      	ldr	r2, [pc, #64]	@ (8001d70 <Usart3_TX_Init+0x80>)
 8001d2e:	f043 0377 	orr.w	r3, r3, #119	@ 0x77
 8001d32:	6253      	str	r3, [r2, #36]	@ 0x24

	//baud rate 설정
	uint32_t brr_val;
	brr_val = (54000000 + (baudrate / 2)) / baudrate;
 8001d34:	687b      	ldr	r3, [r7, #4]
 8001d36:	085a      	lsrs	r2, r3, #1
 8001d38:	4b0e      	ldr	r3, [pc, #56]	@ (8001d74 <Usart3_TX_Init+0x84>)
 8001d3a:	4413      	add	r3, r2
 8001d3c:	687a      	ldr	r2, [r7, #4]
 8001d3e:	fbb3 f3f2 	udiv	r3, r3, r2
 8001d42:	60fb      	str	r3, [r7, #12]
	USART3->BRR = (uint16_t)brr_val;
 8001d44:	68fb      	ldr	r3, [r7, #12]
 8001d46:	b29a      	uxth	r2, r3
 8001d48:	4b0b      	ldr	r3, [pc, #44]	@ (8001d78 <Usart3_TX_Init+0x88>)
 8001d4a:	60da      	str	r2, [r3, #12]

	USART3->CR1 = (1 << 0) | (1 << 3) | (1 << 2);
 8001d4c:	4b0a      	ldr	r3, [pc, #40]	@ (8001d78 <Usart3_TX_Init+0x88>)
 8001d4e:	220d      	movs	r2, #13
 8001d50:	601a      	str	r2, [r3, #0]
	USART3->CR3 |= (1 << 7); //DMA 허용
 8001d52:	4b09      	ldr	r3, [pc, #36]	@ (8001d78 <Usart3_TX_Init+0x88>)
 8001d54:	689b      	ldr	r3, [r3, #8]
 8001d56:	4a08      	ldr	r2, [pc, #32]	@ (8001d78 <Usart3_TX_Init+0x88>)
 8001d58:	f043 0380 	orr.w	r3, r3, #128	@ 0x80
 8001d5c:	6093      	str	r3, [r2, #8]
}
 8001d5e:	bf00      	nop
 8001d60:	3714      	adds	r7, #20
 8001d62:	46bd      	mov	sp, r7
 8001d64:	f85d 7b04 	ldr.w	r7, [sp], #4
 8001d68:	4770      	bx	lr
 8001d6a:	bf00      	nop
 8001d6c:	40023800 	.word	0x40023800
 8001d70:	40020c00 	.word	0x40020c00
 8001d74:	0337f980 	.word	0x0337f980
 8001d78:	40004800 	.word	0x40004800

08001d7c <DMA_USART3_Init>:

void DMA_USART3_Init(){
 8001d7c:	b480      	push	{r7}
 8001d7e:	af00      	add	r7, sp, #0
	DMA1->S[3].CR &= ~1UL; //초기화
 8001d80:	4b0e      	ldr	r3, [pc, #56]	@ (8001dbc <DMA_USART3_Init+0x40>)
 8001d82:	6d9b      	ldr	r3, [r3, #88]	@ 0x58
 8001d84:	4a0d      	ldr	r2, [pc, #52]	@ (8001dbc <DMA_USART3_Init+0x40>)
 8001d86:	f023 0301 	bic.w	r3, r3, #1
 8001d8a:	6593      	str	r3, [r2, #88]	@ 0x58
	while(DMA1->S[3].CR & 1UL); //대기
 8001d8c:	bf00      	nop
 8001d8e:	4b0b      	ldr	r3, [pc, #44]	@ (8001dbc <DMA_USART3_Init+0x40>)
 8001d90:	6d9b      	ldr	r3, [r3, #88]	@ 0x58
 8001d92:	f003 0301 	and.w	r3, r3, #1
 8001d96:	2b00      	cmp	r3, #0
 8001d98:	d1f9      	bne.n	8001d8e <DMA_USART3_Init+0x12>
	DMA1->LIFCR |= (0x3D << 22); //인터럽트 플래그 클리어
 8001d9a:	4b08      	ldr	r3, [pc, #32]	@ (8001dbc <DMA_USART3_Init+0x40>)
 8001d9c:	689b      	ldr	r3, [r3, #8]
 8001d9e:	4a07      	ldr	r2, [pc, #28]	@ (8001dbc <DMA_USART3_Init+0x40>)
 8001da0:	f043 6374 	orr.w	r3, r3, #255852544	@ 0xf400000
 8001da4:	6093      	str	r3, [r2, #8]


	DMA1->S[3].PAR = (uint32_t)&USART3->TDR; //주소선택 데이터 송신
 8001da6:	4b05      	ldr	r3, [pc, #20]	@ (8001dbc <DMA_USART3_Init+0x40>)
 8001da8:	4a05      	ldr	r2, [pc, #20]	@ (8001dc0 <DMA_USART3_Init+0x44>)
 8001daa:	661a      	str	r2, [r3, #96]	@ 0x60
	// 채널4, 우선순위 중간,MINC ->1, Memory-to-Peripheral
	DMA1->S[3].CR = (4 << 25) | (1 << 16) | (1 << 10) | (1 << 6);
 8001dac:	4b03      	ldr	r3, [pc, #12]	@ (8001dbc <DMA_USART3_Init+0x40>)
 8001dae:	4a05      	ldr	r2, [pc, #20]	@ (8001dc4 <DMA_USART3_Init+0x48>)
 8001db0:	659a      	str	r2, [r3, #88]	@ 0x58
}
 8001db2:	bf00      	nop
 8001db4:	46bd      	mov	sp, r7
 8001db6:	f85d 7b04 	ldr.w	r7, [sp], #4
 8001dba:	4770      	bx	lr
 8001dbc:	40026000 	.word	0x40026000
 8001dc0:	40004828 	.word	0x40004828
 8001dc4:	08010440 	.word	0x08010440

08001dc8 <USART3_DMA_Send>:
void USART3_DMA_Send(uint8_t *data, uint16_t size) {
 8001dc8:	b480      	push	{r7}
 8001dca:	b083      	sub	sp, #12
 8001dcc:	af00      	add	r7, sp, #0
 8001dce:	6078      	str	r0, [r7, #4]
 8001dd0:	460b      	mov	r3, r1
 8001dd2:	807b      	strh	r3, [r7, #2]
    // 전송 중인지 확인 후 중지
    DMA1->S[3].CR &= ~1UL;
 8001dd4:	4b12      	ldr	r3, [pc, #72]	@ (8001e20 <USART3_DMA_Send+0x58>)
 8001dd6:	6d9b      	ldr	r3, [r3, #88]	@ 0x58
 8001dd8:	4a11      	ldr	r2, [pc, #68]	@ (8001e20 <USART3_DMA_Send+0x58>)
 8001dda:	f023 0301 	bic.w	r3, r3, #1
 8001dde:	6593      	str	r3, [r2, #88]	@ 0x58
    while(DMA1->S[3].CR & 1UL);
 8001de0:	bf00      	nop
 8001de2:	4b0f      	ldr	r3, [pc, #60]	@ (8001e20 <USART3_DMA_Send+0x58>)
 8001de4:	6d9b      	ldr	r3, [r3, #88]	@ 0x58
 8001de6:	f003 0301 	and.w	r3, r3, #1
 8001dea:	2b00      	cmp	r3, #0
 8001dec:	d1f9      	bne.n	8001de2 <USART3_DMA_Send+0x1a>

    // 전송 정보 업데이트
    DMA1->S[3].M0AR = (uint32_t)data;   // 전송할 버퍼 주소
 8001dee:	4a0c      	ldr	r2, [pc, #48]	@ (8001e20 <USART3_DMA_Send+0x58>)
 8001df0:	687b      	ldr	r3, [r7, #4]
 8001df2:	6653      	str	r3, [r2, #100]	@ 0x64
    DMA1->S[3].NDTR = size;            // 데이터 개수
 8001df4:	4a0a      	ldr	r2, [pc, #40]	@ (8001e20 <USART3_DMA_Send+0x58>)
 8001df6:	887b      	ldrh	r3, [r7, #2]
 8001df8:	65d3      	str	r3, [r2, #92]	@ 0x5c

    // 인터럽트 플래그 다시 클리어
    DMA1->LIFCR |= (0x3D << 22);
 8001dfa:	4b09      	ldr	r3, [pc, #36]	@ (8001e20 <USART3_DMA_Send+0x58>)
 8001dfc:	689b      	ldr	r3, [r3, #8]
 8001dfe:	4a08      	ldr	r2, [pc, #32]	@ (8001e20 <USART3_DMA_Send+0x58>)
 8001e00:	f043 6374 	orr.w	r3, r3, #255852544	@ 0xf400000
 8001e04:	6093      	str	r3, [r2, #8]

    // DMA 활성화 (전송 시작)
    DMA1->S[3].CR |= 1UL;
 8001e06:	4b06      	ldr	r3, [pc, #24]	@ (8001e20 <USART3_DMA_Send+0x58>)
 8001e08:	6d9b      	ldr	r3, [r3, #88]	@ 0x58
 8001e0a:	4a05      	ldr	r2, [pc, #20]	@ (8001e20 <USART3_DMA_Send+0x58>)
 8001e0c:	f043 0301 	orr.w	r3, r3, #1
 8001e10:	6593      	str	r3, [r2, #88]	@ 0x58
}
 8001e12:	bf00      	nop
 8001e14:	370c      	adds	r7, #12
 8001e16:	46bd      	mov	sp, r7
 8001e18:	f85d 7b04 	ldr.w	r7, [sp], #4
 8001e1c:	4770      	bx	lr
 8001e1e:	bf00      	nop
 8001e20:	40026000 	.word	0x40026000

08001e24 <_write>:
int _write(int file, char *ptr, int len) {
 8001e24:	b580      	push	{r7, lr}
 8001e26:	b084      	sub	sp, #16
 8001e28:	af00      	add	r7, sp, #0
 8001e2a:	60f8      	str	r0, [r7, #12]
 8001e2c:	60b9      	str	r1, [r7, #8]
 8001e2e:	607a      	str	r2, [r7, #4]
    USART3_DMA_Send((uint8_t *)ptr, (uint16_t)len);
 8001e30:	687b      	ldr	r3, [r7, #4]
 8001e32:	b29b      	uxth	r3, r3
 8001e34:	4619      	mov	r1, r3
 8001e36:	68b8      	ldr	r0, [r7, #8]
 8001e38:	f7ff ffc6 	bl	8001dc8 <USART3_DMA_Send>
    while(DMA1->S[3].CR & 1UL);
 8001e3c:	bf00      	nop
 8001e3e:	4b05      	ldr	r3, [pc, #20]	@ (8001e54 <_write+0x30>)
 8001e40:	6d9b      	ldr	r3, [r3, #88]	@ 0x58
 8001e42:	f003 0301 	and.w	r3, r3, #1
 8001e46:	2b00      	cmp	r3, #0
 8001e48:	d1f9      	bne.n	8001e3e <_write+0x1a>
    return len;
 8001e4a:	687b      	ldr	r3, [r7, #4]
}
 8001e4c:	4618      	mov	r0, r3
 8001e4e:	3710      	adds	r7, #16
 8001e50:	46bd      	mov	sp, r7
 8001e52:	bd80      	pop	{r7, pc}
 8001e54:	40026000 	.word	0x40026000

08001e58 <__cvt>:
 8001e58:	b5f0      	push	{r4, r5, r6, r7, lr}
 8001e5a:	ed2d 8b02 	vpush	{d8}
 8001e5e:	eeb0 8b40 	vmov.f64	d8, d0
 8001e62:	b085      	sub	sp, #20
 8001e64:	4617      	mov	r7, r2
 8001e66:	9d0d      	ldr	r5, [sp, #52]	@ 0x34
 8001e68:	9e0c      	ldr	r6, [sp, #48]	@ 0x30
 8001e6a:	ee18 2a90 	vmov	r2, s17
 8001e6e:	f025 0520 	bic.w	r5, r5, #32
 8001e72:	2a00      	cmp	r2, #0
 8001e74:	bfb6      	itet	lt
 8001e76:	222d      	movlt	r2, #45	@ 0x2d
 8001e78:	2200      	movge	r2, #0
 8001e7a:	eeb1 8b40 	vneglt.f64	d8, d0
 8001e7e:	2d46      	cmp	r5, #70	@ 0x46
 8001e80:	460c      	mov	r4, r1
 8001e82:	701a      	strb	r2, [r3, #0]
 8001e84:	d004      	beq.n	8001e90 <__cvt+0x38>
 8001e86:	2d45      	cmp	r5, #69	@ 0x45
 8001e88:	d100      	bne.n	8001e8c <__cvt+0x34>
 8001e8a:	3401      	adds	r4, #1
 8001e8c:	2102      	movs	r1, #2
 8001e8e:	e000      	b.n	8001e92 <__cvt+0x3a>
 8001e90:	2103      	movs	r1, #3
 8001e92:	ab03      	add	r3, sp, #12
 8001e94:	9301      	str	r3, [sp, #4]
 8001e96:	ab02      	add	r3, sp, #8
 8001e98:	9300      	str	r3, [sp, #0]
 8001e9a:	4622      	mov	r2, r4
 8001e9c:	4633      	mov	r3, r6
 8001e9e:	eeb0 0b48 	vmov.f64	d0, d8
 8001ea2:	f001 f845 	bl	8002f30 <_dtoa_r>
 8001ea6:	2d47      	cmp	r5, #71	@ 0x47
 8001ea8:	d114      	bne.n	8001ed4 <__cvt+0x7c>
 8001eaa:	07fb      	lsls	r3, r7, #31
 8001eac:	d50a      	bpl.n	8001ec4 <__cvt+0x6c>
 8001eae:	1902      	adds	r2, r0, r4
 8001eb0:	eeb5 8b40 	vcmp.f64	d8, #0.0
 8001eb4:	eef1 fa10 	vmrs	APSR_nzcv, fpscr
 8001eb8:	bf08      	it	eq
 8001eba:	9203      	streq	r2, [sp, #12]
 8001ebc:	2130      	movs	r1, #48	@ 0x30
 8001ebe:	9b03      	ldr	r3, [sp, #12]
 8001ec0:	4293      	cmp	r3, r2
 8001ec2:	d319      	bcc.n	8001ef8 <__cvt+0xa0>
 8001ec4:	9b03      	ldr	r3, [sp, #12]
 8001ec6:	9a0e      	ldr	r2, [sp, #56]	@ 0x38
 8001ec8:	1a1b      	subs	r3, r3, r0
 8001eca:	6013      	str	r3, [r2, #0]
 8001ecc:	b005      	add	sp, #20
 8001ece:	ecbd 8b02 	vpop	{d8}
 8001ed2:	bdf0      	pop	{r4, r5, r6, r7, pc}
 8001ed4:	2d46      	cmp	r5, #70	@ 0x46
 8001ed6:	eb00 0204 	add.w	r2, r0, r4
 8001eda:	d1e9      	bne.n	8001eb0 <__cvt+0x58>
 8001edc:	7803      	ldrb	r3, [r0, #0]
 8001ede:	2b30      	cmp	r3, #48	@ 0x30
 8001ee0:	d107      	bne.n	8001ef2 <__cvt+0x9a>
 8001ee2:	eeb5 8b40 	vcmp.f64	d8, #0.0
 8001ee6:	eef1 fa10 	vmrs	APSR_nzcv, fpscr
 8001eea:	bf1c      	itt	ne
 8001eec:	f1c4 0401 	rsbne	r4, r4, #1
 8001ef0:	6034      	strne	r4, [r6, #0]
 8001ef2:	6833      	ldr	r3, [r6, #0]
 8001ef4:	441a      	add	r2, r3
 8001ef6:	e7db      	b.n	8001eb0 <__cvt+0x58>
 8001ef8:	1c5c      	adds	r4, r3, #1
 8001efa:	9403      	str	r4, [sp, #12]
 8001efc:	7019      	strb	r1, [r3, #0]
 8001efe:	e7de      	b.n	8001ebe <__cvt+0x66>

08001f00 <__exponent>:
 8001f00:	b5f7      	push	{r0, r1, r2, r4, r5, r6, r7, lr}
 8001f02:	2900      	cmp	r1, #0
 8001f04:	bfba      	itte	lt
 8001f06:	4249      	neglt	r1, r1
 8001f08:	232d      	movlt	r3, #45	@ 0x2d
 8001f0a:	232b      	movge	r3, #43	@ 0x2b
 8001f0c:	2909      	cmp	r1, #9
 8001f0e:	7002      	strb	r2, [r0, #0]
 8001f10:	7043      	strb	r3, [r0, #1]
 8001f12:	dd29      	ble.n	8001f68 <__exponent+0x68>
 8001f14:	f10d 0407 	add.w	r4, sp, #7
 8001f18:	4625      	mov	r5, r4
 8001f1a:	270a      	movs	r7, #10
 8001f1c:	4622      	mov	r2, r4
 8001f1e:	fbb1 f6f7 	udiv	r6, r1, r7
 8001f22:	fb07 1316 	mls	r3, r7, r6, r1
 8001f26:	3330      	adds	r3, #48	@ 0x30
 8001f28:	f802 3c01 	strb.w	r3, [r2, #-1]
 8001f2c:	460b      	mov	r3, r1
 8001f2e:	2b63      	cmp	r3, #99	@ 0x63
 8001f30:	f104 34ff 	add.w	r4, r4, #4294967295
 8001f34:	4631      	mov	r1, r6
 8001f36:	dcf1      	bgt.n	8001f1c <__exponent+0x1c>
 8001f38:	3130      	adds	r1, #48	@ 0x30
 8001f3a:	1e93      	subs	r3, r2, #2
 8001f3c:	f804 1c01 	strb.w	r1, [r4, #-1]
 8001f40:	1c41      	adds	r1, r0, #1
 8001f42:	461c      	mov	r4, r3
 8001f44:	42ab      	cmp	r3, r5
 8001f46:	d30a      	bcc.n	8001f5e <__exponent+0x5e>
 8001f48:	f10d 0309 	add.w	r3, sp, #9
 8001f4c:	1a9b      	subs	r3, r3, r2
 8001f4e:	42a5      	cmp	r5, r4
 8001f50:	bf38      	it	cc
 8001f52:	2300      	movcc	r3, #0
 8001f54:	1c82      	adds	r2, r0, #2
 8001f56:	4413      	add	r3, r2
 8001f58:	1a18      	subs	r0, r3, r0
 8001f5a:	b003      	add	sp, #12
 8001f5c:	bdf0      	pop	{r4, r5, r6, r7, pc}
 8001f5e:	f813 6b01 	ldrb.w	r6, [r3], #1
 8001f62:	f801 6f01 	strb.w	r6, [r1, #1]!
 8001f66:	e7ed      	b.n	8001f44 <__exponent+0x44>
 8001f68:	2330      	movs	r3, #48	@ 0x30
 8001f6a:	3130      	adds	r1, #48	@ 0x30
 8001f6c:	7083      	strb	r3, [r0, #2]
 8001f6e:	70c1      	strb	r1, [r0, #3]
 8001f70:	1d03      	adds	r3, r0, #4
 8001f72:	e7f1      	b.n	8001f58 <__exponent+0x58>
 8001f74:	0000      	movs	r0, r0
	...

08001f78 <_printf_float>:
 8001f78:	e92d 4ff0 	stmdb	sp!, {r4, r5, r6, r7, r8, r9, sl, fp, lr}
 8001f7c:	b08d      	sub	sp, #52	@ 0x34
 8001f7e:	460c      	mov	r4, r1
 8001f80:	f8dd 8058 	ldr.w	r8, [sp, #88]	@ 0x58
 8001f84:	4616      	mov	r6, r2
 8001f86:	461f      	mov	r7, r3
 8001f88:	4605      	mov	r5, r0
 8001f8a:	f000 feed 	bl	8002d68 <_localeconv_r>
 8001f8e:	f8d0 b000 	ldr.w	fp, [r0]
 8001f92:	4658      	mov	r0, fp
 8001f94:	f7fe f904 	bl	80001a0 <strlen>
 8001f98:	2300      	movs	r3, #0
 8001f9a:	930a      	str	r3, [sp, #40]	@ 0x28
 8001f9c:	f8d8 3000 	ldr.w	r3, [r8]
 8001fa0:	f894 9018 	ldrb.w	r9, [r4, #24]
 8001fa4:	6822      	ldr	r2, [r4, #0]
 8001fa6:	9005      	str	r0, [sp, #20]
 8001fa8:	3307      	adds	r3, #7
 8001faa:	f023 0307 	bic.w	r3, r3, #7
 8001fae:	ecb3 0b02 	vldmia	r3!, {d0}
 8001fb2:	ed9f 7b99 	vldr	d7, [pc, #612]	@ 8002218 <_printf_float+0x2a0>
 8001fb6:	eeb0 6bc0 	vabs.f64	d6, d0
 8001fba:	eeb4 6b47 	vcmp.f64	d6, d7
 8001fbe:	eef1 fa10 	vmrs	APSR_nzcv, fpscr
 8001fc2:	f8c8 3000 	str.w	r3, [r8]
 8001fc6:	ed84 0b12 	vstr	d0, [r4, #72]	@ 0x48
 8001fca:	dd24      	ble.n	8002016 <_printf_float+0x9e>
 8001fcc:	eeb5 0bc0 	vcmpe.f64	d0, #0.0
 8001fd0:	eef1 fa10 	vmrs	APSR_nzcv, fpscr
 8001fd4:	d502      	bpl.n	8001fdc <_printf_float+0x64>
 8001fd6:	232d      	movs	r3, #45	@ 0x2d
 8001fd8:	f884 3043 	strb.w	r3, [r4, #67]	@ 0x43
 8001fdc:	4990      	ldr	r1, [pc, #576]	@ (8002220 <_printf_float+0x2a8>)
 8001fde:	4b91      	ldr	r3, [pc, #580]	@ (8002224 <_printf_float+0x2ac>)
 8001fe0:	f1b9 0f47 	cmp.w	r9, #71	@ 0x47
 8001fe4:	bf8c      	ite	hi
 8001fe6:	4688      	movhi	r8, r1
 8001fe8:	4698      	movls	r8, r3
 8001fea:	f022 0204 	bic.w	r2, r2, #4
 8001fee:	2303      	movs	r3, #3
 8001ff0:	6123      	str	r3, [r4, #16]
 8001ff2:	6022      	str	r2, [r4, #0]
 8001ff4:	f04f 0a00 	mov.w	sl, #0
 8001ff8:	9700      	str	r7, [sp, #0]
 8001ffa:	4633      	mov	r3, r6
 8001ffc:	aa0b      	add	r2, sp, #44	@ 0x2c
 8001ffe:	4621      	mov	r1, r4
 8002000:	4628      	mov	r0, r5
 8002002:	f000 f9d3 	bl	80023ac <_printf_common>
 8002006:	3001      	adds	r0, #1
 8002008:	f040 8089 	bne.w	800211e <_printf_float+0x1a6>
 800200c:	f04f 30ff 	mov.w	r0, #4294967295
 8002010:	b00d      	add	sp, #52	@ 0x34
 8002012:	e8bd 8ff0 	ldmia.w	sp!, {r4, r5, r6, r7, r8, r9, sl, fp, pc}
 8002016:	eeb4 0b40 	vcmp.f64	d0, d0
 800201a:	eef1 fa10 	vmrs	APSR_nzcv, fpscr
 800201e:	d709      	bvc.n	8002034 <_printf_float+0xbc>
 8002020:	ee10 3a90 	vmov	r3, s1
 8002024:	2b00      	cmp	r3, #0
 8002026:	bfbc      	itt	lt
 8002028:	232d      	movlt	r3, #45	@ 0x2d
 800202a:	f884 3043 	strblt.w	r3, [r4, #67]	@ 0x43
 800202e:	497e      	ldr	r1, [pc, #504]	@ (8002228 <_printf_float+0x2b0>)
 8002030:	4b7e      	ldr	r3, [pc, #504]	@ (800222c <_printf_float+0x2b4>)
 8002032:	e7d5      	b.n	8001fe0 <_printf_float+0x68>
 8002034:	6863      	ldr	r3, [r4, #4]
 8002036:	1c59      	adds	r1, r3, #1
 8002038:	f009 0adf 	and.w	sl, r9, #223	@ 0xdf
 800203c:	d139      	bne.n	80020b2 <_printf_float+0x13a>
 800203e:	2306      	movs	r3, #6
 8002040:	6063      	str	r3, [r4, #4]
 8002042:	f442 6280 	orr.w	r2, r2, #1024	@ 0x400
 8002046:	2300      	movs	r3, #0
 8002048:	6022      	str	r2, [r4, #0]
 800204a:	9303      	str	r3, [sp, #12]
 800204c:	ab0a      	add	r3, sp, #40	@ 0x28
 800204e:	e9cd 9301 	strd	r9, r3, [sp, #4]
 8002052:	ab09      	add	r3, sp, #36	@ 0x24
 8002054:	9300      	str	r3, [sp, #0]
 8002056:	6861      	ldr	r1, [r4, #4]
 8002058:	f10d 0323 	add.w	r3, sp, #35	@ 0x23
 800205c:	4628      	mov	r0, r5
 800205e:	f7ff fefb 	bl	8001e58 <__cvt>
 8002062:	f1ba 0f47 	cmp.w	sl, #71	@ 0x47
 8002066:	9909      	ldr	r1, [sp, #36]	@ 0x24
 8002068:	4680      	mov	r8, r0
 800206a:	d129      	bne.n	80020c0 <_printf_float+0x148>
 800206c:	1cc8      	adds	r0, r1, #3
 800206e:	db02      	blt.n	8002076 <_printf_float+0xfe>
 8002070:	6863      	ldr	r3, [r4, #4]
 8002072:	428b      	cmp	r3, r1
 8002074:	da41      	bge.n	80020fa <_printf_float+0x182>
 8002076:	f1a9 0902 	sub.w	r9, r9, #2
 800207a:	fa5f f989 	uxtb.w	r9, r9
 800207e:	3901      	subs	r1, #1
 8002080:	464a      	mov	r2, r9
 8002082:	f104 0050 	add.w	r0, r4, #80	@ 0x50
 8002086:	9109      	str	r1, [sp, #36]	@ 0x24
 8002088:	f7ff ff3a 	bl	8001f00 <__exponent>
 800208c:	9a0a      	ldr	r2, [sp, #40]	@ 0x28
 800208e:	1813      	adds	r3, r2, r0
 8002090:	2a01      	cmp	r2, #1
 8002092:	4682      	mov	sl, r0
 8002094:	6123      	str	r3, [r4, #16]
 8002096:	dc02      	bgt.n	800209e <_printf_float+0x126>
 8002098:	6822      	ldr	r2, [r4, #0]
 800209a:	07d2      	lsls	r2, r2, #31
 800209c:	d501      	bpl.n	80020a2 <_printf_float+0x12a>
 800209e:	3301      	adds	r3, #1
 80020a0:	6123      	str	r3, [r4, #16]
 80020a2:	f89d 3023 	ldrb.w	r3, [sp, #35]	@ 0x23
 80020a6:	2b00      	cmp	r3, #0
 80020a8:	d0a6      	beq.n	8001ff8 <_printf_float+0x80>
 80020aa:	232d      	movs	r3, #45	@ 0x2d
 80020ac:	f884 3043 	strb.w	r3, [r4, #67]	@ 0x43
 80020b0:	e7a2      	b.n	8001ff8 <_printf_float+0x80>
 80020b2:	f1ba 0f47 	cmp.w	sl, #71	@ 0x47
 80020b6:	d1c4      	bne.n	8002042 <_printf_float+0xca>
 80020b8:	2b00      	cmp	r3, #0
 80020ba:	d1c2      	bne.n	8002042 <_printf_float+0xca>
 80020bc:	2301      	movs	r3, #1
 80020be:	e7bf      	b.n	8002040 <_printf_float+0xc8>
 80020c0:	f1b9 0f65 	cmp.w	r9, #101	@ 0x65
 80020c4:	d9db      	bls.n	800207e <_printf_float+0x106>
 80020c6:	f1b9 0f66 	cmp.w	r9, #102	@ 0x66
 80020ca:	d118      	bne.n	80020fe <_printf_float+0x186>
 80020cc:	2900      	cmp	r1, #0
 80020ce:	6863      	ldr	r3, [r4, #4]
 80020d0:	dd0b      	ble.n	80020ea <_printf_float+0x172>
 80020d2:	6121      	str	r1, [r4, #16]
 80020d4:	b913      	cbnz	r3, 80020dc <_printf_float+0x164>
 80020d6:	6822      	ldr	r2, [r4, #0]
 80020d8:	07d0      	lsls	r0, r2, #31
 80020da:	d502      	bpl.n	80020e2 <_printf_float+0x16a>
 80020dc:	3301      	adds	r3, #1
 80020de:	440b      	add	r3, r1
 80020e0:	6123      	str	r3, [r4, #16]
 80020e2:	65a1      	str	r1, [r4, #88]	@ 0x58
 80020e4:	f04f 0a00 	mov.w	sl, #0
 80020e8:	e7db      	b.n	80020a2 <_printf_float+0x12a>
 80020ea:	b913      	cbnz	r3, 80020f2 <_printf_float+0x17a>
 80020ec:	6822      	ldr	r2, [r4, #0]
 80020ee:	07d2      	lsls	r2, r2, #31
 80020f0:	d501      	bpl.n	80020f6 <_printf_float+0x17e>
 80020f2:	3302      	adds	r3, #2
 80020f4:	e7f4      	b.n	80020e0 <_printf_float+0x168>
 80020f6:	2301      	movs	r3, #1
 80020f8:	e7f2      	b.n	80020e0 <_printf_float+0x168>
 80020fa:	f04f 0967 	mov.w	r9, #103	@ 0x67
 80020fe:	9b0a      	ldr	r3, [sp, #40]	@ 0x28
 8002100:	428b      	cmp	r3, r1
 8002102:	dc05      	bgt.n	8002110 <_printf_float+0x198>
 8002104:	6823      	ldr	r3, [r4, #0]
 8002106:	6121      	str	r1, [r4, #16]
 8002108:	07d8      	lsls	r0, r3, #31
 800210a:	d5ea      	bpl.n	80020e2 <_printf_float+0x16a>
 800210c:	1c4b      	adds	r3, r1, #1
 800210e:	e7e7      	b.n	80020e0 <_printf_float+0x168>
 8002110:	2900      	cmp	r1, #0
 8002112:	bfd4      	ite	le
 8002114:	f1c1 0202 	rsble	r2, r1, #2
 8002118:	2201      	movgt	r2, #1
 800211a:	4413      	add	r3, r2
 800211c:	e7e0      	b.n	80020e0 <_printf_float+0x168>
 800211e:	6823      	ldr	r3, [r4, #0]
 8002120:	055a      	lsls	r2, r3, #21
 8002122:	d407      	bmi.n	8002134 <_printf_float+0x1bc>
 8002124:	6923      	ldr	r3, [r4, #16]
 8002126:	4642      	mov	r2, r8
 8002128:	4631      	mov	r1, r6
 800212a:	4628      	mov	r0, r5
 800212c:	47b8      	blx	r7
 800212e:	3001      	adds	r0, #1
 8002130:	d12a      	bne.n	8002188 <_printf_float+0x210>
 8002132:	e76b      	b.n	800200c <_printf_float+0x94>
 8002134:	f1b9 0f65 	cmp.w	r9, #101	@ 0x65
 8002138:	f240 80e2 	bls.w	8002300 <_printf_float+0x388>
 800213c:	ed94 7b12 	vldr	d7, [r4, #72]	@ 0x48
 8002140:	eeb5 7b40 	vcmp.f64	d7, #0.0
 8002144:	eef1 fa10 	vmrs	APSR_nzcv, fpscr
 8002148:	d133      	bne.n	80021b2 <_printf_float+0x23a>
 800214a:	4a39      	ldr	r2, [pc, #228]	@ (8002230 <_printf_float+0x2b8>)
 800214c:	2301      	movs	r3, #1
 800214e:	4631      	mov	r1, r6
 8002150:	4628      	mov	r0, r5
 8002152:	47b8      	blx	r7
 8002154:	3001      	adds	r0, #1
 8002156:	f43f af59 	beq.w	800200c <_printf_float+0x94>
 800215a:	e9dd 3809 	ldrd	r3, r8, [sp, #36]	@ 0x24
 800215e:	4543      	cmp	r3, r8
 8002160:	db02      	blt.n	8002168 <_printf_float+0x1f0>
 8002162:	6823      	ldr	r3, [r4, #0]
 8002164:	07d8      	lsls	r0, r3, #31
 8002166:	d50f      	bpl.n	8002188 <_printf_float+0x210>
 8002168:	9b05      	ldr	r3, [sp, #20]
 800216a:	465a      	mov	r2, fp
 800216c:	4631      	mov	r1, r6
 800216e:	4628      	mov	r0, r5
 8002170:	47b8      	blx	r7
 8002172:	3001      	adds	r0, #1
 8002174:	f43f af4a 	beq.w	800200c <_printf_float+0x94>
 8002178:	f04f 0900 	mov.w	r9, #0
 800217c:	f108 38ff 	add.w	r8, r8, #4294967295
 8002180:	f104 0a1a 	add.w	sl, r4, #26
 8002184:	45c8      	cmp	r8, r9
 8002186:	dc09      	bgt.n	800219c <_printf_float+0x224>
 8002188:	6823      	ldr	r3, [r4, #0]
 800218a:	079b      	lsls	r3, r3, #30
 800218c:	f100 8109 	bmi.w	80023a2 <_printf_float+0x42a>
 8002190:	68e0      	ldr	r0, [r4, #12]
 8002192:	9b0b      	ldr	r3, [sp, #44]	@ 0x2c
 8002194:	4298      	cmp	r0, r3
 8002196:	bfb8      	it	lt
 8002198:	4618      	movlt	r0, r3
 800219a:	e739      	b.n	8002010 <_printf_float+0x98>
 800219c:	2301      	movs	r3, #1
 800219e:	4652      	mov	r2, sl
 80021a0:	4631      	mov	r1, r6
 80021a2:	4628      	mov	r0, r5
 80021a4:	47b8      	blx	r7
 80021a6:	3001      	adds	r0, #1
 80021a8:	f43f af30 	beq.w	800200c <_printf_float+0x94>
 80021ac:	f109 0901 	add.w	r9, r9, #1
 80021b0:	e7e8      	b.n	8002184 <_printf_float+0x20c>
 80021b2:	9b09      	ldr	r3, [sp, #36]	@ 0x24
 80021b4:	2b00      	cmp	r3, #0
 80021b6:	dc3d      	bgt.n	8002234 <_printf_float+0x2bc>
 80021b8:	4a1d      	ldr	r2, [pc, #116]	@ (8002230 <_printf_float+0x2b8>)
 80021ba:	2301      	movs	r3, #1
 80021bc:	4631      	mov	r1, r6
 80021be:	4628      	mov	r0, r5
 80021c0:	47b8      	blx	r7
 80021c2:	3001      	adds	r0, #1
 80021c4:	f43f af22 	beq.w	800200c <_printf_float+0x94>
 80021c8:	e9dd 3909 	ldrd	r3, r9, [sp, #36]	@ 0x24
 80021cc:	ea59 0303 	orrs.w	r3, r9, r3
 80021d0:	d102      	bne.n	80021d8 <_printf_float+0x260>
 80021d2:	6823      	ldr	r3, [r4, #0]
 80021d4:	07d9      	lsls	r1, r3, #31
 80021d6:	d5d7      	bpl.n	8002188 <_printf_float+0x210>
 80021d8:	9b05      	ldr	r3, [sp, #20]
 80021da:	465a      	mov	r2, fp
 80021dc:	4631      	mov	r1, r6
 80021de:	4628      	mov	r0, r5
 80021e0:	47b8      	blx	r7
 80021e2:	3001      	adds	r0, #1
 80021e4:	f43f af12 	beq.w	800200c <_printf_float+0x94>
 80021e8:	f04f 0a00 	mov.w	sl, #0
 80021ec:	f104 0b1a 	add.w	fp, r4, #26
 80021f0:	9b09      	ldr	r3, [sp, #36]	@ 0x24
 80021f2:	425b      	negs	r3, r3
 80021f4:	4553      	cmp	r3, sl
 80021f6:	dc01      	bgt.n	80021fc <_printf_float+0x284>
 80021f8:	464b      	mov	r3, r9
 80021fa:	e794      	b.n	8002126 <_printf_float+0x1ae>
 80021fc:	2301      	movs	r3, #1
 80021fe:	465a      	mov	r2, fp
 8002200:	4631      	mov	r1, r6
 8002202:	4628      	mov	r0, r5
 8002204:	47b8      	blx	r7
 8002206:	3001      	adds	r0, #1
 8002208:	f43f af00 	beq.w	800200c <_printf_float+0x94>
 800220c:	f10a 0a01 	add.w	sl, sl, #1
 8002210:	e7ee      	b.n	80021f0 <_printf_float+0x278>
 8002212:	bf00      	nop
 8002214:	f3af 8000 	nop.w
 8002218:	ffffffff 	.word	0xffffffff
 800221c:	7fefffff 	.word	0x7fefffff
 8002220:	08006af0 	.word	0x08006af0
 8002224:	08006aec 	.word	0x08006aec
 8002228:	08006af8 	.word	0x08006af8
 800222c:	08006af4 	.word	0x08006af4
 8002230:	08006afc 	.word	0x08006afc
 8002234:	6da3      	ldr	r3, [r4, #88]	@ 0x58
 8002236:	f8dd a028 	ldr.w	sl, [sp, #40]	@ 0x28
 800223a:	4553      	cmp	r3, sl
 800223c:	bfa8      	it	ge
 800223e:	4653      	movge	r3, sl
 8002240:	2b00      	cmp	r3, #0
 8002242:	4699      	mov	r9, r3
 8002244:	dc37      	bgt.n	80022b6 <_printf_float+0x33e>
 8002246:	2300      	movs	r3, #0
 8002248:	9307      	str	r3, [sp, #28]
 800224a:	ea29 79e9 	bic.w	r9, r9, r9, asr #31
 800224e:	f104 021a 	add.w	r2, r4, #26
 8002252:	6da3      	ldr	r3, [r4, #88]	@ 0x58
 8002254:	9907      	ldr	r1, [sp, #28]
 8002256:	9306      	str	r3, [sp, #24]
 8002258:	eba3 0309 	sub.w	r3, r3, r9
 800225c:	428b      	cmp	r3, r1
 800225e:	dc31      	bgt.n	80022c4 <_printf_float+0x34c>
 8002260:	9b09      	ldr	r3, [sp, #36]	@ 0x24
 8002262:	459a      	cmp	sl, r3
 8002264:	dc3b      	bgt.n	80022de <_printf_float+0x366>
 8002266:	6823      	ldr	r3, [r4, #0]
 8002268:	07da      	lsls	r2, r3, #31
 800226a:	d438      	bmi.n	80022de <_printf_float+0x366>
 800226c:	9b09      	ldr	r3, [sp, #36]	@ 0x24
 800226e:	ebaa 0903 	sub.w	r9, sl, r3
 8002272:	9b06      	ldr	r3, [sp, #24]
 8002274:	ebaa 0303 	sub.w	r3, sl, r3
 8002278:	4599      	cmp	r9, r3
 800227a:	bfa8      	it	ge
 800227c:	4699      	movge	r9, r3
 800227e:	f1b9 0f00 	cmp.w	r9, #0
 8002282:	dc34      	bgt.n	80022ee <_printf_float+0x376>
 8002284:	f04f 0800 	mov.w	r8, #0
 8002288:	ea29 79e9 	bic.w	r9, r9, r9, asr #31
 800228c:	f104 0b1a 	add.w	fp, r4, #26
 8002290:	9b09      	ldr	r3, [sp, #36]	@ 0x24
 8002292:	ebaa 0303 	sub.w	r3, sl, r3
 8002296:	eba3 0309 	sub.w	r3, r3, r9
 800229a:	4543      	cmp	r3, r8
 800229c:	f77f af74 	ble.w	8002188 <_printf_float+0x210>
 80022a0:	2301      	movs	r3, #1
 80022a2:	465a      	mov	r2, fp
 80022a4:	4631      	mov	r1, r6
 80022a6:	4628      	mov	r0, r5
 80022a8:	47b8      	blx	r7
 80022aa:	3001      	adds	r0, #1
 80022ac:	f43f aeae 	beq.w	800200c <_printf_float+0x94>
 80022b0:	f108 0801 	add.w	r8, r8, #1
 80022b4:	e7ec      	b.n	8002290 <_printf_float+0x318>
 80022b6:	4642      	mov	r2, r8
 80022b8:	4631      	mov	r1, r6
 80022ba:	4628      	mov	r0, r5
 80022bc:	47b8      	blx	r7
 80022be:	3001      	adds	r0, #1
 80022c0:	d1c1      	bne.n	8002246 <_printf_float+0x2ce>
 80022c2:	e6a3      	b.n	800200c <_printf_float+0x94>
 80022c4:	2301      	movs	r3, #1
 80022c6:	4631      	mov	r1, r6
 80022c8:	4628      	mov	r0, r5
 80022ca:	9206      	str	r2, [sp, #24]
 80022cc:	47b8      	blx	r7
 80022ce:	3001      	adds	r0, #1
 80022d0:	f43f ae9c 	beq.w	800200c <_printf_float+0x94>
 80022d4:	9b07      	ldr	r3, [sp, #28]
 80022d6:	9a06      	ldr	r2, [sp, #24]
 80022d8:	3301      	adds	r3, #1
 80022da:	9307      	str	r3, [sp, #28]
 80022dc:	e7b9      	b.n	8002252 <_printf_float+0x2da>
 80022de:	9b05      	ldr	r3, [sp, #20]
 80022e0:	465a      	mov	r2, fp
 80022e2:	4631      	mov	r1, r6
 80022e4:	4628      	mov	r0, r5
 80022e6:	47b8      	blx	r7
 80022e8:	3001      	adds	r0, #1
 80022ea:	d1bf      	bne.n	800226c <_printf_float+0x2f4>
 80022ec:	e68e      	b.n	800200c <_printf_float+0x94>
 80022ee:	9a06      	ldr	r2, [sp, #24]
 80022f0:	464b      	mov	r3, r9
 80022f2:	4442      	add	r2, r8
 80022f4:	4631      	mov	r1, r6
 80022f6:	4628      	mov	r0, r5
 80022f8:	47b8      	blx	r7
 80022fa:	3001      	adds	r0, #1
 80022fc:	d1c2      	bne.n	8002284 <_printf_float+0x30c>
 80022fe:	e685      	b.n	800200c <_printf_float+0x94>
 8002300:	f8dd 9028 	ldr.w	r9, [sp, #40]	@ 0x28
 8002304:	f1b9 0f01 	cmp.w	r9, #1
 8002308:	dc01      	bgt.n	800230e <_printf_float+0x396>
 800230a:	07db      	lsls	r3, r3, #31
 800230c:	d536      	bpl.n	800237c <_printf_float+0x404>
 800230e:	2301      	movs	r3, #1
 8002310:	4642      	mov	r2, r8
 8002312:	4631      	mov	r1, r6
 8002314:	4628      	mov	r0, r5
 8002316:	47b8      	blx	r7
 8002318:	3001      	adds	r0, #1
 800231a:	f43f ae77 	beq.w	800200c <_printf_float+0x94>
 800231e:	9b05      	ldr	r3, [sp, #20]
 8002320:	465a      	mov	r2, fp
 8002322:	4631      	mov	r1, r6
 8002324:	4628      	mov	r0, r5
 8002326:	47b8      	blx	r7
 8002328:	3001      	adds	r0, #1
 800232a:	f43f ae6f 	beq.w	800200c <_printf_float+0x94>
 800232e:	ed94 7b12 	vldr	d7, [r4, #72]	@ 0x48
 8002332:	eeb5 7b40 	vcmp.f64	d7, #0.0
 8002336:	eef1 fa10 	vmrs	APSR_nzcv, fpscr
 800233a:	f109 39ff 	add.w	r9, r9, #4294967295
 800233e:	d018      	beq.n	8002372 <_printf_float+0x3fa>
 8002340:	464b      	mov	r3, r9
 8002342:	f108 0201 	add.w	r2, r8, #1
 8002346:	4631      	mov	r1, r6
 8002348:	4628      	mov	r0, r5
 800234a:	47b8      	blx	r7
 800234c:	3001      	adds	r0, #1
 800234e:	d10c      	bne.n	800236a <_printf_float+0x3f2>
 8002350:	e65c      	b.n	800200c <_printf_float+0x94>
 8002352:	2301      	movs	r3, #1
 8002354:	465a      	mov	r2, fp
 8002356:	4631      	mov	r1, r6
 8002358:	4628      	mov	r0, r5
 800235a:	47b8      	blx	r7
 800235c:	3001      	adds	r0, #1
 800235e:	f43f ae55 	beq.w	800200c <_printf_float+0x94>
 8002362:	f108 0801 	add.w	r8, r8, #1
 8002366:	45c8      	cmp	r8, r9
 8002368:	dbf3      	blt.n	8002352 <_printf_float+0x3da>
 800236a:	4653      	mov	r3, sl
 800236c:	f104 0250 	add.w	r2, r4, #80	@ 0x50
 8002370:	e6da      	b.n	8002128 <_printf_float+0x1b0>
 8002372:	f04f 0800 	mov.w	r8, #0
 8002376:	f104 0b1a 	add.w	fp, r4, #26
 800237a:	e7f4      	b.n	8002366 <_printf_float+0x3ee>
 800237c:	2301      	movs	r3, #1
 800237e:	4642      	mov	r2, r8
 8002380:	e7e1      	b.n	8002346 <_printf_float+0x3ce>
 8002382:	2301      	movs	r3, #1
 8002384:	464a      	mov	r2, r9
 8002386:	4631      	mov	r1, r6
 8002388:	4628      	mov	r0, r5
 800238a:	47b8      	blx	r7
 800238c:	3001      	adds	r0, #1
 800238e:	f43f ae3d 	beq.w	800200c <_printf_float+0x94>
 8002392:	f108 0801 	add.w	r8, r8, #1
 8002396:	68e3      	ldr	r3, [r4, #12]
 8002398:	990b      	ldr	r1, [sp, #44]	@ 0x2c
 800239a:	1a5b      	subs	r3, r3, r1
 800239c:	4543      	cmp	r3, r8
 800239e:	dcf0      	bgt.n	8002382 <_printf_float+0x40a>
 80023a0:	e6f6      	b.n	8002190 <_printf_float+0x218>
 80023a2:	f04f 0800 	mov.w	r8, #0
 80023a6:	f104 0919 	add.w	r9, r4, #25
 80023aa:	e7f4      	b.n	8002396 <_printf_float+0x41e>

080023ac <_printf_common>:
 80023ac:	e92d 47f0 	stmdb	sp!, {r4, r5, r6, r7, r8, r9, sl, lr}
 80023b0:	4616      	mov	r6, r2
 80023b2:	4698      	mov	r8, r3
 80023b4:	688a      	ldr	r2, [r1, #8]
 80023b6:	690b      	ldr	r3, [r1, #16]
 80023b8:	f8dd 9020 	ldr.w	r9, [sp, #32]
 80023bc:	4293      	cmp	r3, r2
 80023be:	bfb8      	it	lt
 80023c0:	4613      	movlt	r3, r2
 80023c2:	6033      	str	r3, [r6, #0]
 80023c4:	f891 2043 	ldrb.w	r2, [r1, #67]	@ 0x43
 80023c8:	4607      	mov	r7, r0
 80023ca:	460c      	mov	r4, r1
 80023cc:	b10a      	cbz	r2, 80023d2 <_printf_common+0x26>
 80023ce:	3301      	adds	r3, #1
 80023d0:	6033      	str	r3, [r6, #0]
 80023d2:	6823      	ldr	r3, [r4, #0]
 80023d4:	0699      	lsls	r1, r3, #26
 80023d6:	bf42      	ittt	mi
 80023d8:	6833      	ldrmi	r3, [r6, #0]
 80023da:	3302      	addmi	r3, #2
 80023dc:	6033      	strmi	r3, [r6, #0]
 80023de:	6825      	ldr	r5, [r4, #0]
 80023e0:	f015 0506 	ands.w	r5, r5, #6
 80023e4:	d106      	bne.n	80023f4 <_printf_common+0x48>
 80023e6:	f104 0a19 	add.w	sl, r4, #25
 80023ea:	68e3      	ldr	r3, [r4, #12]
 80023ec:	6832      	ldr	r2, [r6, #0]
 80023ee:	1a9b      	subs	r3, r3, r2
 80023f0:	42ab      	cmp	r3, r5
 80023f2:	dc26      	bgt.n	8002442 <_printf_common+0x96>
 80023f4:	f894 3043 	ldrb.w	r3, [r4, #67]	@ 0x43
 80023f8:	6822      	ldr	r2, [r4, #0]
 80023fa:	3b00      	subs	r3, #0
 80023fc:	bf18      	it	ne
 80023fe:	2301      	movne	r3, #1
 8002400:	0692      	lsls	r2, r2, #26
 8002402:	d42b      	bmi.n	800245c <_printf_common+0xb0>
 8002404:	f104 0243 	add.w	r2, r4, #67	@ 0x43
 8002408:	4641      	mov	r1, r8
 800240a:	4638      	mov	r0, r7
 800240c:	47c8      	blx	r9
 800240e:	3001      	adds	r0, #1
 8002410:	d01e      	beq.n	8002450 <_printf_common+0xa4>
 8002412:	6823      	ldr	r3, [r4, #0]
 8002414:	6922      	ldr	r2, [r4, #16]
 8002416:	f003 0306 	and.w	r3, r3, #6
 800241a:	2b04      	cmp	r3, #4
 800241c:	bf02      	ittt	eq
 800241e:	68e5      	ldreq	r5, [r4, #12]
 8002420:	6833      	ldreq	r3, [r6, #0]
 8002422:	1aed      	subeq	r5, r5, r3
 8002424:	68a3      	ldr	r3, [r4, #8]
 8002426:	bf0c      	ite	eq
 8002428:	ea25 75e5 	biceq.w	r5, r5, r5, asr #31
 800242c:	2500      	movne	r5, #0
 800242e:	4293      	cmp	r3, r2
 8002430:	bfc4      	itt	gt
 8002432:	1a9b      	subgt	r3, r3, r2
 8002434:	18ed      	addgt	r5, r5, r3
 8002436:	2600      	movs	r6, #0
 8002438:	341a      	adds	r4, #26
 800243a:	42b5      	cmp	r5, r6
 800243c:	d11a      	bne.n	8002474 <_printf_common+0xc8>
 800243e:	2000      	movs	r0, #0
 8002440:	e008      	b.n	8002454 <_printf_common+0xa8>
 8002442:	2301      	movs	r3, #1
 8002444:	4652      	mov	r2, sl
 8002446:	4641      	mov	r1, r8
 8002448:	4638      	mov	r0, r7
 800244a:	47c8      	blx	r9
 800244c:	3001      	adds	r0, #1
 800244e:	d103      	bne.n	8002458 <_printf_common+0xac>
 8002450:	f04f 30ff 	mov.w	r0, #4294967295
 8002454:	e8bd 87f0 	ldmia.w	sp!, {r4, r5, r6, r7, r8, r9, sl, pc}
 8002458:	3501      	adds	r5, #1
 800245a:	e7c6      	b.n	80023ea <_printf_common+0x3e>
 800245c:	18e1      	adds	r1, r4, r3
 800245e:	1c5a      	adds	r2, r3, #1
 8002460:	2030      	movs	r0, #48	@ 0x30
 8002462:	f881 0043 	strb.w	r0, [r1, #67]	@ 0x43
 8002466:	4422      	add	r2, r4
 8002468:	f894 1045 	ldrb.w	r1, [r4, #69]	@ 0x45
 800246c:	f882 1043 	strb.w	r1, [r2, #67]	@ 0x43
 8002470:	3302      	adds	r3, #2
 8002472:	e7c7      	b.n	8002404 <_printf_common+0x58>
 8002474:	2301      	movs	r3, #1
 8002476:	4622      	mov	r2, r4
 8002478:	4641      	mov	r1, r8
 800247a:	4638      	mov	r0, r7
 800247c:	47c8      	blx	r9
 800247e:	3001      	adds	r0, #1
 8002480:	d0e6      	beq.n	8002450 <_printf_common+0xa4>
 8002482:	3601      	adds	r6, #1
 8002484:	e7d9      	b.n	800243a <_printf_common+0x8e>
	...

08002488 <_printf_i>:
 8002488:	e92d 43f0 	stmdb	sp!, {r4, r5, r6, r7, r8, r9, lr}
 800248c:	7e0d      	ldrb	r5, [r1, #24]
 800248e:	b085      	sub	sp, #20
 8002490:	2d78      	cmp	r5, #120	@ 0x78
 8002492:	4690      	mov	r8, r2
 8002494:	9e0c      	ldr	r6, [sp, #48]	@ 0x30
 8002496:	4607      	mov	r7, r0
 8002498:	460c      	mov	r4, r1
 800249a:	4699      	mov	r9, r3
 800249c:	f101 0243 	add.w	r2, r1, #67	@ 0x43
 80024a0:	d807      	bhi.n	80024b2 <_printf_i+0x2a>
 80024a2:	2d62      	cmp	r5, #98	@ 0x62
 80024a4:	d80a      	bhi.n	80024bc <_printf_i+0x34>
 80024a6:	2d00      	cmp	r5, #0
 80024a8:	f000 80d7 	beq.w	800265a <_printf_i+0x1d2>
 80024ac:	2d58      	cmp	r5, #88	@ 0x58
 80024ae:	f000 80bc 	beq.w	800262a <_printf_i+0x1a2>
 80024b2:	f104 0642 	add.w	r6, r4, #66	@ 0x42
 80024b6:	f884 5042 	strb.w	r5, [r4, #66]	@ 0x42
 80024ba:	e03b      	b.n	8002534 <_printf_i+0xac>
 80024bc:	f1a5 0363 	sub.w	r3, r5, #99	@ 0x63
 80024c0:	2b15      	cmp	r3, #21
 80024c2:	d8f6      	bhi.n	80024b2 <_printf_i+0x2a>
 80024c4:	a101      	add	r1, pc, #4	@ (adr r1, 80024cc <_printf_i+0x44>)
 80024c6:	f851 f023 	ldr.w	pc, [r1, r3, lsl #2]
 80024ca:	bf00      	nop
 80024cc:	08002525 	.word	0x08002525
 80024d0:	08002539 	.word	0x08002539
 80024d4:	080024b3 	.word	0x080024b3
 80024d8:	080024b3 	.word	0x080024b3
 80024dc:	080024b3 	.word	0x080024b3
 80024e0:	080024b3 	.word	0x080024b3
 80024e4:	08002539 	.word	0x08002539
 80024e8:	080024b3 	.word	0x080024b3
 80024ec:	080024b3 	.word	0x080024b3
 80024f0:	080024b3 	.word	0x080024b3
 80024f4:	080024b3 	.word	0x080024b3
 80024f8:	08002641 	.word	0x08002641
 80024fc:	08002563 	.word	0x08002563
 8002500:	080025f3 	.word	0x080025f3
 8002504:	080024b3 	.word	0x080024b3
 8002508:	080024b3 	.word	0x080024b3
 800250c:	08002663 	.word	0x08002663
 8002510:	080024b3 	.word	0x080024b3
 8002514:	08002563 	.word	0x08002563
 8002518:	080024b3 	.word	0x080024b3
 800251c:	080024b3 	.word	0x080024b3
 8002520:	080025fb 	.word	0x080025fb
 8002524:	6833      	ldr	r3, [r6, #0]
 8002526:	1d1a      	adds	r2, r3, #4
 8002528:	681b      	ldr	r3, [r3, #0]
 800252a:	6032      	str	r2, [r6, #0]
 800252c:	f104 0642 	add.w	r6, r4, #66	@ 0x42
 8002530:	f884 3042 	strb.w	r3, [r4, #66]	@ 0x42
 8002534:	2301      	movs	r3, #1
 8002536:	e0a1      	b.n	800267c <_printf_i+0x1f4>
 8002538:	6833      	ldr	r3, [r6, #0]
 800253a:	6820      	ldr	r0, [r4, #0]
 800253c:	1d19      	adds	r1, r3, #4
 800253e:	6031      	str	r1, [r6, #0]
 8002540:	0606      	lsls	r6, r0, #24
 8002542:	d501      	bpl.n	8002548 <_printf_i+0xc0>
 8002544:	681d      	ldr	r5, [r3, #0]
 8002546:	e003      	b.n	8002550 <_printf_i+0xc8>
 8002548:	0645      	lsls	r5, r0, #25
 800254a:	d5fb      	bpl.n	8002544 <_printf_i+0xbc>
 800254c:	f9b3 5000 	ldrsh.w	r5, [r3]
 8002550:	2d00      	cmp	r5, #0
 8002552:	da03      	bge.n	800255c <_printf_i+0xd4>
 8002554:	232d      	movs	r3, #45	@ 0x2d
 8002556:	426d      	negs	r5, r5
 8002558:	f884 3043 	strb.w	r3, [r4, #67]	@ 0x43
 800255c:	485b      	ldr	r0, [pc, #364]	@ (80026cc <_printf_i+0x244>)
 800255e:	230a      	movs	r3, #10
 8002560:	e011      	b.n	8002586 <_printf_i+0xfe>
 8002562:	6821      	ldr	r1, [r4, #0]
 8002564:	6833      	ldr	r3, [r6, #0]
 8002566:	0608      	lsls	r0, r1, #24
 8002568:	f853 5b04 	ldr.w	r5, [r3], #4
 800256c:	d402      	bmi.n	8002574 <_printf_i+0xec>
 800256e:	0649      	lsls	r1, r1, #25
 8002570:	bf48      	it	mi
 8002572:	b2ad      	uxthmi	r5, r5
 8002574:	6033      	str	r3, [r6, #0]
 8002576:	7e23      	ldrb	r3, [r4, #24]
 8002578:	4854      	ldr	r0, [pc, #336]	@ (80026cc <_printf_i+0x244>)
 800257a:	2b6f      	cmp	r3, #111	@ 0x6f
 800257c:	d15c      	bne.n	8002638 <_printf_i+0x1b0>
 800257e:	2308      	movs	r3, #8
 8002580:	2100      	movs	r1, #0
 8002582:	f884 1043 	strb.w	r1, [r4, #67]	@ 0x43
 8002586:	6866      	ldr	r6, [r4, #4]
 8002588:	60a6      	str	r6, [r4, #8]
 800258a:	2e00      	cmp	r6, #0
 800258c:	db05      	blt.n	800259a <_printf_i+0x112>
 800258e:	6821      	ldr	r1, [r4, #0]
 8002590:	432e      	orrs	r6, r5
 8002592:	f021 0104 	bic.w	r1, r1, #4
 8002596:	6021      	str	r1, [r4, #0]
 8002598:	d050      	beq.n	800263c <_printf_i+0x1b4>
 800259a:	4616      	mov	r6, r2
 800259c:	fbb5 f1f3 	udiv	r1, r5, r3
 80025a0:	fb03 5c11 	mls	ip, r3, r1, r5
 80025a4:	f810 c00c 	ldrb.w	ip, [r0, ip]
 80025a8:	f806 cd01 	strb.w	ip, [r6, #-1]!
 80025ac:	46ac      	mov	ip, r5
 80025ae:	4563      	cmp	r3, ip
 80025b0:	460d      	mov	r5, r1
 80025b2:	d9f3      	bls.n	800259c <_printf_i+0x114>
 80025b4:	2b08      	cmp	r3, #8
 80025b6:	d10b      	bne.n	80025d0 <_printf_i+0x148>
 80025b8:	6823      	ldr	r3, [r4, #0]
 80025ba:	07db      	lsls	r3, r3, #31
 80025bc:	d508      	bpl.n	80025d0 <_printf_i+0x148>
 80025be:	6923      	ldr	r3, [r4, #16]
 80025c0:	6861      	ldr	r1, [r4, #4]
 80025c2:	4299      	cmp	r1, r3
 80025c4:	bfde      	ittt	le
 80025c6:	2330      	movle	r3, #48	@ 0x30
 80025c8:	f806 3c01 	strble.w	r3, [r6, #-1]
 80025cc:	f106 36ff 	addle.w	r6, r6, #4294967295
 80025d0:	1b92      	subs	r2, r2, r6
 80025d2:	6122      	str	r2, [r4, #16]
 80025d4:	f8cd 9000 	str.w	r9, [sp]
 80025d8:	4643      	mov	r3, r8
 80025da:	aa03      	add	r2, sp, #12
 80025dc:	4621      	mov	r1, r4
 80025de:	4638      	mov	r0, r7
 80025e0:	f7ff fee4 	bl	80023ac <_printf_common>
 80025e4:	3001      	adds	r0, #1
 80025e6:	d14e      	bne.n	8002686 <_printf_i+0x1fe>
 80025e8:	f04f 30ff 	mov.w	r0, #4294967295
 80025ec:	b005      	add	sp, #20
 80025ee:	e8bd 83f0 	ldmia.w	sp!, {r4, r5, r6, r7, r8, r9, pc}
 80025f2:	6823      	ldr	r3, [r4, #0]
 80025f4:	f043 0320 	orr.w	r3, r3, #32
 80025f8:	6023      	str	r3, [r4, #0]
 80025fa:	4835      	ldr	r0, [pc, #212]	@ (80026d0 <_printf_i+0x248>)
 80025fc:	2578      	movs	r5, #120	@ 0x78
 80025fe:	f884 5045 	strb.w	r5, [r4, #69]	@ 0x45
 8002602:	6823      	ldr	r3, [r4, #0]
 8002604:	6831      	ldr	r1, [r6, #0]
 8002606:	f013 0f80 	tst.w	r3, #128	@ 0x80
 800260a:	f851 5b04 	ldr.w	r5, [r1], #4
 800260e:	d103      	bne.n	8002618 <_printf_i+0x190>
 8002610:	f013 0f40 	tst.w	r3, #64	@ 0x40
 8002614:	bf18      	it	ne
 8002616:	b2ad      	uxthne	r5, r5
 8002618:	6031      	str	r1, [r6, #0]
 800261a:	07d9      	lsls	r1, r3, #31
 800261c:	bf44      	itt	mi
 800261e:	f043 0320 	orrmi.w	r3, r3, #32
 8002622:	6023      	strmi	r3, [r4, #0]
 8002624:	b11d      	cbz	r5, 800262e <_printf_i+0x1a6>
 8002626:	2310      	movs	r3, #16
 8002628:	e7aa      	b.n	8002580 <_printf_i+0xf8>
 800262a:	4828      	ldr	r0, [pc, #160]	@ (80026cc <_printf_i+0x244>)
 800262c:	e7e7      	b.n	80025fe <_printf_i+0x176>
 800262e:	6823      	ldr	r3, [r4, #0]
 8002630:	f023 0320 	bic.w	r3, r3, #32
 8002634:	6023      	str	r3, [r4, #0]
 8002636:	e7f6      	b.n	8002626 <_printf_i+0x19e>
 8002638:	230a      	movs	r3, #10
 800263a:	e7a1      	b.n	8002580 <_printf_i+0xf8>
 800263c:	4616      	mov	r6, r2
 800263e:	e7b9      	b.n	80025b4 <_printf_i+0x12c>
 8002640:	6833      	ldr	r3, [r6, #0]
 8002642:	6825      	ldr	r5, [r4, #0]
 8002644:	6961      	ldr	r1, [r4, #20]
 8002646:	1d18      	adds	r0, r3, #4
 8002648:	6030      	str	r0, [r6, #0]
 800264a:	062e      	lsls	r6, r5, #24
 800264c:	681b      	ldr	r3, [r3, #0]
 800264e:	d501      	bpl.n	8002654 <_printf_i+0x1cc>
 8002650:	6019      	str	r1, [r3, #0]
 8002652:	e002      	b.n	800265a <_printf_i+0x1d2>
 8002654:	0668      	lsls	r0, r5, #25
 8002656:	d5fb      	bpl.n	8002650 <_printf_i+0x1c8>
 8002658:	8019      	strh	r1, [r3, #0]
 800265a:	2300      	movs	r3, #0
 800265c:	6123      	str	r3, [r4, #16]
 800265e:	4616      	mov	r6, r2
 8002660:	e7b8      	b.n	80025d4 <_printf_i+0x14c>
 8002662:	6833      	ldr	r3, [r6, #0]
 8002664:	1d1a      	adds	r2, r3, #4
 8002666:	6032      	str	r2, [r6, #0]
 8002668:	681e      	ldr	r6, [r3, #0]
 800266a:	6862      	ldr	r2, [r4, #4]
 800266c:	2100      	movs	r1, #0
 800266e:	4630      	mov	r0, r6
 8002670:	f7fd fd46 	bl	8000100 <memchr>
 8002674:	b108      	cbz	r0, 800267a <_printf_i+0x1f2>
 8002676:	1b80      	subs	r0, r0, r6
 8002678:	6060      	str	r0, [r4, #4]
 800267a:	6863      	ldr	r3, [r4, #4]
 800267c:	6123      	str	r3, [r4, #16]
 800267e:	2300      	movs	r3, #0
 8002680:	f884 3043 	strb.w	r3, [r4, #67]	@ 0x43
 8002684:	e7a6      	b.n	80025d4 <_printf_i+0x14c>
 8002686:	6923      	ldr	r3, [r4, #16]
 8002688:	4632      	mov	r2, r6
 800268a:	4641      	mov	r1, r8
 800268c:	4638      	mov	r0, r7
 800268e:	47c8      	blx	r9
 8002690:	3001      	adds	r0, #1
 8002692:	d0a9      	beq.n	80025e8 <_printf_i+0x160>
 8002694:	6823      	ldr	r3, [r4, #0]
 8002696:	079b      	lsls	r3, r3, #30
 8002698:	d413      	bmi.n	80026c2 <_printf_i+0x23a>
 800269a:	68e0      	ldr	r0, [r4, #12]
 800269c:	9b03      	ldr	r3, [sp, #12]
 800269e:	4298      	cmp	r0, r3
 80026a0:	bfb8      	it	lt
 80026a2:	4618      	movlt	r0, r3
 80026a4:	e7a2      	b.n	80025ec <_printf_i+0x164>
 80026a6:	2301      	movs	r3, #1
 80026a8:	4632      	mov	r2, r6
 80026aa:	4641      	mov	r1, r8
 80026ac:	4638      	mov	r0, r7
 80026ae:	47c8      	blx	r9
 80026b0:	3001      	adds	r0, #1
 80026b2:	d099      	beq.n	80025e8 <_printf_i+0x160>
 80026b4:	3501      	adds	r5, #1
 80026b6:	68e3      	ldr	r3, [r4, #12]
 80026b8:	9903      	ldr	r1, [sp, #12]
 80026ba:	1a5b      	subs	r3, r3, r1
 80026bc:	42ab      	cmp	r3, r5
 80026be:	dcf2      	bgt.n	80026a6 <_printf_i+0x21e>
 80026c0:	e7eb      	b.n	800269a <_printf_i+0x212>
 80026c2:	2500      	movs	r5, #0
 80026c4:	f104 0619 	add.w	r6, r4, #25
 80026c8:	e7f5      	b.n	80026b6 <_printf_i+0x22e>
 80026ca:	bf00      	nop
 80026cc:	08006afe 	.word	0x08006afe
 80026d0:	08006b0f 	.word	0x08006b0f

080026d4 <_scanf_float>:
 80026d4:	e92d 4ff0 	stmdb	sp!, {r4, r5, r6, r7, r8, r9, sl, fp, lr}
 80026d8:	b087      	sub	sp, #28
 80026da:	4691      	mov	r9, r2
 80026dc:	9303      	str	r3, [sp, #12]
 80026de:	688b      	ldr	r3, [r1, #8]
 80026e0:	1e5a      	subs	r2, r3, #1
 80026e2:	f5b2 7fae 	cmp.w	r2, #348	@ 0x15c
 80026e6:	bf81      	itttt	hi
 80026e8:	f46f 75ae 	mvnhi.w	r5, #348	@ 0x15c
 80026ec:	eb03 0b05 	addhi.w	fp, r3, r5
 80026f0:	f240 135d 	movwhi	r3, #349	@ 0x15d
 80026f4:	608b      	strhi	r3, [r1, #8]
 80026f6:	680b      	ldr	r3, [r1, #0]
 80026f8:	460a      	mov	r2, r1
 80026fa:	f04f 0500 	mov.w	r5, #0
 80026fe:	f443 63f0 	orr.w	r3, r3, #1920	@ 0x780
 8002702:	f842 3b1c 	str.w	r3, [r2], #28
 8002706:	e9cd 5504 	strd	r5, r5, [sp, #16]
 800270a:	4680      	mov	r8, r0
 800270c:	460c      	mov	r4, r1
 800270e:	bf98      	it	ls
 8002710:	f04f 0b00 	movls.w	fp, #0
 8002714:	9201      	str	r2, [sp, #4]
 8002716:	4616      	mov	r6, r2
 8002718:	46aa      	mov	sl, r5
 800271a:	462f      	mov	r7, r5
 800271c:	9502      	str	r5, [sp, #8]
 800271e:	68a2      	ldr	r2, [r4, #8]
 8002720:	b15a      	cbz	r2, 800273a <_scanf_float+0x66>
 8002722:	f8d9 3000 	ldr.w	r3, [r9]
 8002726:	781b      	ldrb	r3, [r3, #0]
 8002728:	2b4e      	cmp	r3, #78	@ 0x4e
 800272a:	d863      	bhi.n	80027f4 <_scanf_float+0x120>
 800272c:	2b40      	cmp	r3, #64	@ 0x40
 800272e:	d83b      	bhi.n	80027a8 <_scanf_float+0xd4>
 8002730:	f1a3 012b 	sub.w	r1, r3, #43	@ 0x2b
 8002734:	b2c8      	uxtb	r0, r1
 8002736:	280e      	cmp	r0, #14
 8002738:	d939      	bls.n	80027ae <_scanf_float+0xda>
 800273a:	b11f      	cbz	r7, 8002744 <_scanf_float+0x70>
 800273c:	6823      	ldr	r3, [r4, #0]
 800273e:	f423 7380 	bic.w	r3, r3, #256	@ 0x100
 8002742:	6023      	str	r3, [r4, #0]
 8002744:	f10a 3aff 	add.w	sl, sl, #4294967295
 8002748:	f1ba 0f01 	cmp.w	sl, #1
 800274c:	f200 8114 	bhi.w	8002978 <_scanf_float+0x2a4>
 8002750:	9b01      	ldr	r3, [sp, #4]
 8002752:	429e      	cmp	r6, r3
 8002754:	f200 8105 	bhi.w	8002962 <_scanf_float+0x28e>
 8002758:	2001      	movs	r0, #1
 800275a:	b007      	add	sp, #28
 800275c:	e8bd 8ff0 	ldmia.w	sp!, {r4, r5, r6, r7, r8, r9, sl, fp, pc}
 8002760:	f1a3 0261 	sub.w	r2, r3, #97	@ 0x61
 8002764:	2a0d      	cmp	r2, #13
 8002766:	d8e8      	bhi.n	800273a <_scanf_float+0x66>
 8002768:	a101      	add	r1, pc, #4	@ (adr r1, 8002770 <_scanf_float+0x9c>)
 800276a:	f851 f022 	ldr.w	pc, [r1, r2, lsl #2]
 800276e:	bf00      	nop
 8002770:	080028b9 	.word	0x080028b9
 8002774:	0800273b 	.word	0x0800273b
 8002778:	0800273b 	.word	0x0800273b
 800277c:	0800273b 	.word	0x0800273b
 8002780:	08002915 	.word	0x08002915
 8002784:	080028ef 	.word	0x080028ef
 8002788:	0800273b 	.word	0x0800273b
 800278c:	0800273b 	.word	0x0800273b
 8002790:	080028c7 	.word	0x080028c7
 8002794:	0800273b 	.word	0x0800273b
 8002798:	0800273b 	.word	0x0800273b
 800279c:	0800273b 	.word	0x0800273b
 80027a0:	0800273b 	.word	0x0800273b
 80027a4:	08002883 	.word	0x08002883
 80027a8:	f1a3 0241 	sub.w	r2, r3, #65	@ 0x41
 80027ac:	e7da      	b.n	8002764 <_scanf_float+0x90>
 80027ae:	290e      	cmp	r1, #14
 80027b0:	d8c3      	bhi.n	800273a <_scanf_float+0x66>
 80027b2:	a001      	add	r0, pc, #4	@ (adr r0, 80027b8 <_scanf_float+0xe4>)
 80027b4:	f850 f021 	ldr.w	pc, [r0, r1, lsl #2]
 80027b8:	08002873 	.word	0x08002873
 80027bc:	0800273b 	.word	0x0800273b
 80027c0:	08002873 	.word	0x08002873
 80027c4:	08002903 	.word	0x08002903
 80027c8:	0800273b 	.word	0x0800273b
 80027cc:	08002815 	.word	0x08002815
 80027d0:	08002859 	.word	0x08002859
 80027d4:	08002859 	.word	0x08002859
 80027d8:	08002859 	.word	0x08002859
 80027dc:	08002859 	.word	0x08002859
 80027e0:	08002859 	.word	0x08002859
 80027e4:	08002859 	.word	0x08002859
 80027e8:	08002859 	.word	0x08002859
 80027ec:	08002859 	.word	0x08002859
 80027f0:	08002859 	.word	0x08002859
 80027f4:	2b6e      	cmp	r3, #110	@ 0x6e
 80027f6:	d809      	bhi.n	800280c <_scanf_float+0x138>
 80027f8:	2b60      	cmp	r3, #96	@ 0x60
 80027fa:	d8b1      	bhi.n	8002760 <_scanf_float+0x8c>
 80027fc:	2b54      	cmp	r3, #84	@ 0x54
 80027fe:	d07b      	beq.n	80028f8 <_scanf_float+0x224>
 8002800:	2b59      	cmp	r3, #89	@ 0x59
 8002802:	d19a      	bne.n	800273a <_scanf_float+0x66>
 8002804:	2d07      	cmp	r5, #7
 8002806:	d198      	bne.n	800273a <_scanf_float+0x66>
 8002808:	2508      	movs	r5, #8
 800280a:	e02f      	b.n	800286c <_scanf_float+0x198>
 800280c:	2b74      	cmp	r3, #116	@ 0x74
 800280e:	d073      	beq.n	80028f8 <_scanf_float+0x224>
 8002810:	2b79      	cmp	r3, #121	@ 0x79
 8002812:	e7f6      	b.n	8002802 <_scanf_float+0x12e>
 8002814:	6821      	ldr	r1, [r4, #0]
 8002816:	05c8      	lsls	r0, r1, #23
 8002818:	d51e      	bpl.n	8002858 <_scanf_float+0x184>
 800281a:	f021 0180 	bic.w	r1, r1, #128	@ 0x80
 800281e:	6021      	str	r1, [r4, #0]
 8002820:	3701      	adds	r7, #1
 8002822:	f1bb 0f00 	cmp.w	fp, #0
 8002826:	d003      	beq.n	8002830 <_scanf_float+0x15c>
 8002828:	3201      	adds	r2, #1
 800282a:	f10b 3bff 	add.w	fp, fp, #4294967295
 800282e:	60a2      	str	r2, [r4, #8]
 8002830:	68a3      	ldr	r3, [r4, #8]
 8002832:	3b01      	subs	r3, #1
 8002834:	60a3      	str	r3, [r4, #8]
 8002836:	6923      	ldr	r3, [r4, #16]
 8002838:	3301      	adds	r3, #1
 800283a:	6123      	str	r3, [r4, #16]
 800283c:	f8d9 3004 	ldr.w	r3, [r9, #4]
 8002840:	3b01      	subs	r3, #1
 8002842:	2b00      	cmp	r3, #0
 8002844:	f8c9 3004 	str.w	r3, [r9, #4]
 8002848:	f340 8082 	ble.w	8002950 <_scanf_float+0x27c>
 800284c:	f8d9 3000 	ldr.w	r3, [r9]
 8002850:	3301      	adds	r3, #1
 8002852:	f8c9 3000 	str.w	r3, [r9]
 8002856:	e762      	b.n	800271e <_scanf_float+0x4a>
 8002858:	eb1a 0105 	adds.w	r1, sl, r5
 800285c:	f47f af6d 	bne.w	800273a <_scanf_float+0x66>
 8002860:	6822      	ldr	r2, [r4, #0]
 8002862:	f422 72c0 	bic.w	r2, r2, #384	@ 0x180
 8002866:	6022      	str	r2, [r4, #0]
 8002868:	460d      	mov	r5, r1
 800286a:	468a      	mov	sl, r1
 800286c:	f806 3b01 	strb.w	r3, [r6], #1
 8002870:	e7de      	b.n	8002830 <_scanf_float+0x15c>
 8002872:	6822      	ldr	r2, [r4, #0]
 8002874:	0610      	lsls	r0, r2, #24
 8002876:	f57f af60 	bpl.w	800273a <_scanf_float+0x66>
 800287a:	f022 0280 	bic.w	r2, r2, #128	@ 0x80
 800287e:	6022      	str	r2, [r4, #0]
 8002880:	e7f4      	b.n	800286c <_scanf_float+0x198>
 8002882:	f1ba 0f00 	cmp.w	sl, #0
 8002886:	d10c      	bne.n	80028a2 <_scanf_float+0x1ce>
 8002888:	b977      	cbnz	r7, 80028a8 <_scanf_float+0x1d4>
 800288a:	6822      	ldr	r2, [r4, #0]
 800288c:	f402 61e0 	and.w	r1, r2, #1792	@ 0x700
 8002890:	f5b1 6fe0 	cmp.w	r1, #1792	@ 0x700
 8002894:	d108      	bne.n	80028a8 <_scanf_float+0x1d4>
 8002896:	f422 62f0 	bic.w	r2, r2, #1920	@ 0x780
 800289a:	6022      	str	r2, [r4, #0]
 800289c:	f04f 0a01 	mov.w	sl, #1
 80028a0:	e7e4      	b.n	800286c <_scanf_float+0x198>
 80028a2:	f1ba 0f02 	cmp.w	sl, #2
 80028a6:	d050      	beq.n	800294a <_scanf_float+0x276>
 80028a8:	2d01      	cmp	r5, #1
 80028aa:	d002      	beq.n	80028b2 <_scanf_float+0x1de>
 80028ac:	2d04      	cmp	r5, #4
 80028ae:	f47f af44 	bne.w	800273a <_scanf_float+0x66>
 80028b2:	3501      	adds	r5, #1
 80028b4:	b2ed      	uxtb	r5, r5
 80028b6:	e7d9      	b.n	800286c <_scanf_float+0x198>
 80028b8:	f1ba 0f01 	cmp.w	sl, #1
 80028bc:	f47f af3d 	bne.w	800273a <_scanf_float+0x66>
 80028c0:	f04f 0a02 	mov.w	sl, #2
 80028c4:	e7d2      	b.n	800286c <_scanf_float+0x198>
 80028c6:	b975      	cbnz	r5, 80028e6 <_scanf_float+0x212>
 80028c8:	2f00      	cmp	r7, #0
 80028ca:	f47f af37 	bne.w	800273c <_scanf_float+0x68>
 80028ce:	6822      	ldr	r2, [r4, #0]
 80028d0:	f402 61e0 	and.w	r1, r2, #1792	@ 0x700
 80028d4:	f5b1 6fe0 	cmp.w	r1, #1792	@ 0x700
 80028d8:	f040 80fb 	bne.w	8002ad2 <_scanf_float+0x3fe>
 80028dc:	f422 62f0 	bic.w	r2, r2, #1920	@ 0x780
 80028e0:	6022      	str	r2, [r4, #0]
 80028e2:	2501      	movs	r5, #1
 80028e4:	e7c2      	b.n	800286c <_scanf_float+0x198>
 80028e6:	2d03      	cmp	r5, #3
 80028e8:	d0e3      	beq.n	80028b2 <_scanf_float+0x1de>
 80028ea:	2d05      	cmp	r5, #5
 80028ec:	e7df      	b.n	80028ae <_scanf_float+0x1da>
 80028ee:	2d02      	cmp	r5, #2
 80028f0:	f47f af23 	bne.w	800273a <_scanf_float+0x66>
 80028f4:	2503      	movs	r5, #3
 80028f6:	e7b9      	b.n	800286c <_scanf_float+0x198>
 80028f8:	2d06      	cmp	r5, #6
 80028fa:	f47f af1e 	bne.w	800273a <_scanf_float+0x66>
 80028fe:	2507      	movs	r5, #7
 8002900:	e7b4      	b.n	800286c <_scanf_float+0x198>
 8002902:	6822      	ldr	r2, [r4, #0]
 8002904:	0591      	lsls	r1, r2, #22
 8002906:	f57f af18 	bpl.w	800273a <_scanf_float+0x66>
 800290a:	f422 7220 	bic.w	r2, r2, #640	@ 0x280
 800290e:	6022      	str	r2, [r4, #0]
 8002910:	9702      	str	r7, [sp, #8]
 8002912:	e7ab      	b.n	800286c <_scanf_float+0x198>
 8002914:	6822      	ldr	r2, [r4, #0]
 8002916:	f402 61a0 	and.w	r1, r2, #1280	@ 0x500
 800291a:	f5b1 6f80 	cmp.w	r1, #1024	@ 0x400
 800291e:	d005      	beq.n	800292c <_scanf_float+0x258>
 8002920:	0550      	lsls	r0, r2, #21
 8002922:	f57f af0a 	bpl.w	800273a <_scanf_float+0x66>
 8002926:	2f00      	cmp	r7, #0
 8002928:	f000 80d3 	beq.w	8002ad2 <_scanf_float+0x3fe>
 800292c:	0591      	lsls	r1, r2, #22
 800292e:	bf58      	it	pl
 8002930:	9902      	ldrpl	r1, [sp, #8]
 8002932:	f422 62f0 	bic.w	r2, r2, #1920	@ 0x780
 8002936:	bf58      	it	pl
 8002938:	1a79      	subpl	r1, r7, r1
 800293a:	f442 72c0 	orr.w	r2, r2, #384	@ 0x180
 800293e:	bf58      	it	pl
 8002940:	e9cd 1604 	strdpl	r1, r6, [sp, #16]
 8002944:	6022      	str	r2, [r4, #0]
 8002946:	2700      	movs	r7, #0
 8002948:	e790      	b.n	800286c <_scanf_float+0x198>
 800294a:	f04f 0a03 	mov.w	sl, #3
 800294e:	e78d      	b.n	800286c <_scanf_float+0x198>
 8002950:	f8d4 3180 	ldr.w	r3, [r4, #384]	@ 0x180
 8002954:	4649      	mov	r1, r9
 8002956:	4640      	mov	r0, r8
 8002958:	4798      	blx	r3
 800295a:	2800      	cmp	r0, #0
 800295c:	f43f aedf 	beq.w	800271e <_scanf_float+0x4a>
 8002960:	e6eb      	b.n	800273a <_scanf_float+0x66>
 8002962:	f8d4 317c 	ldr.w	r3, [r4, #380]	@ 0x17c
 8002966:	f816 1d01 	ldrb.w	r1, [r6, #-1]!
 800296a:	464a      	mov	r2, r9
 800296c:	4640      	mov	r0, r8
 800296e:	4798      	blx	r3
 8002970:	6923      	ldr	r3, [r4, #16]
 8002972:	3b01      	subs	r3, #1
 8002974:	6123      	str	r3, [r4, #16]
 8002976:	e6eb      	b.n	8002750 <_scanf_float+0x7c>
 8002978:	1e6b      	subs	r3, r5, #1
 800297a:	2b06      	cmp	r3, #6
 800297c:	d824      	bhi.n	80029c8 <_scanf_float+0x2f4>
 800297e:	2d02      	cmp	r5, #2
 8002980:	d836      	bhi.n	80029f0 <_scanf_float+0x31c>
 8002982:	9b01      	ldr	r3, [sp, #4]
 8002984:	429e      	cmp	r6, r3
 8002986:	f67f aee7 	bls.w	8002758 <_scanf_float+0x84>
 800298a:	f8d4 317c 	ldr.w	r3, [r4, #380]	@ 0x17c
 800298e:	f816 1d01 	ldrb.w	r1, [r6, #-1]!
 8002992:	464a      	mov	r2, r9
 8002994:	4640      	mov	r0, r8
 8002996:	4798      	blx	r3
 8002998:	6923      	ldr	r3, [r4, #16]
 800299a:	3b01      	subs	r3, #1
 800299c:	6123      	str	r3, [r4, #16]
 800299e:	e7f0      	b.n	8002982 <_scanf_float+0x2ae>
 80029a0:	f8d4 317c 	ldr.w	r3, [r4, #380]	@ 0x17c
 80029a4:	f81b 1d01 	ldrb.w	r1, [fp, #-1]!
 80029a8:	464a      	mov	r2, r9
 80029aa:	4640      	mov	r0, r8
 80029ac:	4798      	blx	r3
 80029ae:	6923      	ldr	r3, [r4, #16]
 80029b0:	3b01      	subs	r3, #1
 80029b2:	6123      	str	r3, [r4, #16]
 80029b4:	f10a 3aff 	add.w	sl, sl, #4294967295
 80029b8:	fa5f fa8a 	uxtb.w	sl, sl
 80029bc:	f1ba 0f02 	cmp.w	sl, #2
 80029c0:	d1ee      	bne.n	80029a0 <_scanf_float+0x2cc>
 80029c2:	3d03      	subs	r5, #3
 80029c4:	b2ed      	uxtb	r5, r5
 80029c6:	1b76      	subs	r6, r6, r5
 80029c8:	6823      	ldr	r3, [r4, #0]
 80029ca:	05da      	lsls	r2, r3, #23
 80029cc:	d530      	bpl.n	8002a30 <_scanf_float+0x35c>
 80029ce:	055d      	lsls	r5, r3, #21
 80029d0:	d511      	bpl.n	80029f6 <_scanf_float+0x322>
 80029d2:	9b01      	ldr	r3, [sp, #4]
 80029d4:	429e      	cmp	r6, r3
 80029d6:	f67f aebf 	bls.w	8002758 <_scanf_float+0x84>
 80029da:	f8d4 317c 	ldr.w	r3, [r4, #380]	@ 0x17c
 80029de:	f816 1d01 	ldrb.w	r1, [r6, #-1]!
 80029e2:	464a      	mov	r2, r9
 80029e4:	4640      	mov	r0, r8
 80029e6:	4798      	blx	r3
 80029e8:	6923      	ldr	r3, [r4, #16]
 80029ea:	3b01      	subs	r3, #1
 80029ec:	6123      	str	r3, [r4, #16]
 80029ee:	e7f0      	b.n	80029d2 <_scanf_float+0x2fe>
 80029f0:	46aa      	mov	sl, r5
 80029f2:	46b3      	mov	fp, r6
 80029f4:	e7de      	b.n	80029b4 <_scanf_float+0x2e0>
 80029f6:	f816 1c01 	ldrb.w	r1, [r6, #-1]
 80029fa:	6923      	ldr	r3, [r4, #16]
 80029fc:	2965      	cmp	r1, #101	@ 0x65
 80029fe:	f103 33ff 	add.w	r3, r3, #4294967295
 8002a02:	f106 35ff 	add.w	r5, r6, #4294967295
 8002a06:	6123      	str	r3, [r4, #16]
 8002a08:	d00c      	beq.n	8002a24 <_scanf_float+0x350>
 8002a0a:	2945      	cmp	r1, #69	@ 0x45
 8002a0c:	d00a      	beq.n	8002a24 <_scanf_float+0x350>
 8002a0e:	f8d4 317c 	ldr.w	r3, [r4, #380]	@ 0x17c
 8002a12:	464a      	mov	r2, r9
 8002a14:	4640      	mov	r0, r8
 8002a16:	4798      	blx	r3
 8002a18:	6923      	ldr	r3, [r4, #16]
 8002a1a:	f816 1c02 	ldrb.w	r1, [r6, #-2]
 8002a1e:	3b01      	subs	r3, #1
 8002a20:	1eb5      	subs	r5, r6, #2
 8002a22:	6123      	str	r3, [r4, #16]
 8002a24:	f8d4 317c 	ldr.w	r3, [r4, #380]	@ 0x17c
 8002a28:	464a      	mov	r2, r9
 8002a2a:	4640      	mov	r0, r8
 8002a2c:	4798      	blx	r3
 8002a2e:	462e      	mov	r6, r5
 8002a30:	6822      	ldr	r2, [r4, #0]
 8002a32:	f012 0210 	ands.w	r2, r2, #16
 8002a36:	d001      	beq.n	8002a3c <_scanf_float+0x368>
 8002a38:	2000      	movs	r0, #0
 8002a3a:	e68e      	b.n	800275a <_scanf_float+0x86>
 8002a3c:	7032      	strb	r2, [r6, #0]
 8002a3e:	6823      	ldr	r3, [r4, #0]
 8002a40:	f403 63c0 	and.w	r3, r3, #1536	@ 0x600
 8002a44:	f5b3 6f80 	cmp.w	r3, #1024	@ 0x400
 8002a48:	d122      	bne.n	8002a90 <_scanf_float+0x3bc>
 8002a4a:	9b02      	ldr	r3, [sp, #8]
 8002a4c:	429f      	cmp	r7, r3
 8002a4e:	d00a      	beq.n	8002a66 <_scanf_float+0x392>
 8002a50:	1bda      	subs	r2, r3, r7
 8002a52:	f204 136f 	addw	r3, r4, #367	@ 0x16f
 8002a56:	429e      	cmp	r6, r3
 8002a58:	bf28      	it	cs
 8002a5a:	f504 76b7 	addcs.w	r6, r4, #366	@ 0x16e
 8002a5e:	491e      	ldr	r1, [pc, #120]	@ (8002ad8 <_scanf_float+0x404>)
 8002a60:	4630      	mov	r0, r6
 8002a62:	f000 f913 	bl	8002c8c <siprintf>
 8002a66:	9901      	ldr	r1, [sp, #4]
 8002a68:	2200      	movs	r2, #0
 8002a6a:	4640      	mov	r0, r8
 8002a6c:	f002 fb1a 	bl	80050a4 <_strtod_r>
 8002a70:	9b03      	ldr	r3, [sp, #12]
 8002a72:	6821      	ldr	r1, [r4, #0]
 8002a74:	681b      	ldr	r3, [r3, #0]
 8002a76:	0788      	lsls	r0, r1, #30
 8002a78:	f103 0204 	add.w	r2, r3, #4
 8002a7c:	d515      	bpl.n	8002aaa <_scanf_float+0x3d6>
 8002a7e:	9903      	ldr	r1, [sp, #12]
 8002a80:	600a      	str	r2, [r1, #0]
 8002a82:	681b      	ldr	r3, [r3, #0]
 8002a84:	ed83 0b00 	vstr	d0, [r3]
 8002a88:	68e3      	ldr	r3, [r4, #12]
 8002a8a:	3301      	adds	r3, #1
 8002a8c:	60e3      	str	r3, [r4, #12]
 8002a8e:	e7d3      	b.n	8002a38 <_scanf_float+0x364>
 8002a90:	9b04      	ldr	r3, [sp, #16]
 8002a92:	2b00      	cmp	r3, #0
 8002a94:	d0e7      	beq.n	8002a66 <_scanf_float+0x392>
 8002a96:	9905      	ldr	r1, [sp, #20]
 8002a98:	230a      	movs	r3, #10
 8002a9a:	3101      	adds	r1, #1
 8002a9c:	4640      	mov	r0, r8
 8002a9e:	f002 fb81 	bl	80051a4 <_strtol_r>
 8002aa2:	9b04      	ldr	r3, [sp, #16]
 8002aa4:	9e05      	ldr	r6, [sp, #20]
 8002aa6:	1ac2      	subs	r2, r0, r3
 8002aa8:	e7d3      	b.n	8002a52 <_scanf_float+0x37e>
 8002aaa:	f011 0f04 	tst.w	r1, #4
 8002aae:	9903      	ldr	r1, [sp, #12]
 8002ab0:	600a      	str	r2, [r1, #0]
 8002ab2:	d1e6      	bne.n	8002a82 <_scanf_float+0x3ae>
 8002ab4:	eeb4 0b40 	vcmp.f64	d0, d0
 8002ab8:	eef1 fa10 	vmrs	APSR_nzcv, fpscr
 8002abc:	681d      	ldr	r5, [r3, #0]
 8002abe:	d705      	bvc.n	8002acc <_scanf_float+0x3f8>
 8002ac0:	4806      	ldr	r0, [pc, #24]	@ (8002adc <_scanf_float+0x408>)
 8002ac2:	f000 f9a5 	bl	8002e10 <nanf>
 8002ac6:	ed85 0a00 	vstr	s0, [r5]
 8002aca:	e7dd      	b.n	8002a88 <_scanf_float+0x3b4>
 8002acc:	eeb7 0bc0 	vcvt.f32.f64	s0, d0
 8002ad0:	e7f9      	b.n	8002ac6 <_scanf_float+0x3f2>
 8002ad2:	2700      	movs	r7, #0
 8002ad4:	e636      	b.n	8002744 <_scanf_float+0x70>
 8002ad6:	bf00      	nop
 8002ad8:	08006b20 	.word	0x08006b20
 8002adc:	08006c61 	.word	0x08006c61

08002ae0 <std>:
 8002ae0:	2300      	movs	r3, #0
 8002ae2:	b510      	push	{r4, lr}
 8002ae4:	4604      	mov	r4, r0
 8002ae6:	e9c0 3300 	strd	r3, r3, [r0]
 8002aea:	e9c0 3304 	strd	r3, r3, [r0, #16]
 8002aee:	6083      	str	r3, [r0, #8]
 8002af0:	8181      	strh	r1, [r0, #12]
 8002af2:	6643      	str	r3, [r0, #100]	@ 0x64
 8002af4:	81c2      	strh	r2, [r0, #14]
 8002af6:	6183      	str	r3, [r0, #24]
 8002af8:	4619      	mov	r1, r3
 8002afa:	2208      	movs	r2, #8
 8002afc:	305c      	adds	r0, #92	@ 0x5c
 8002afe:	f000 f92b 	bl	8002d58 <memset>
 8002b02:	4b0d      	ldr	r3, [pc, #52]	@ (8002b38 <std+0x58>)
 8002b04:	6263      	str	r3, [r4, #36]	@ 0x24
 8002b06:	4b0d      	ldr	r3, [pc, #52]	@ (8002b3c <std+0x5c>)
 8002b08:	62a3      	str	r3, [r4, #40]	@ 0x28
 8002b0a:	4b0d      	ldr	r3, [pc, #52]	@ (8002b40 <std+0x60>)
 8002b0c:	62e3      	str	r3, [r4, #44]	@ 0x2c
 8002b0e:	4b0d      	ldr	r3, [pc, #52]	@ (8002b44 <std+0x64>)
 8002b10:	6323      	str	r3, [r4, #48]	@ 0x30
 8002b12:	4b0d      	ldr	r3, [pc, #52]	@ (8002b48 <std+0x68>)
 8002b14:	6224      	str	r4, [r4, #32]
 8002b16:	429c      	cmp	r4, r3
 8002b18:	d006      	beq.n	8002b28 <std+0x48>
 8002b1a:	f103 0268 	add.w	r2, r3, #104	@ 0x68
 8002b1e:	4294      	cmp	r4, r2
 8002b20:	d002      	beq.n	8002b28 <std+0x48>
 8002b22:	33d0      	adds	r3, #208	@ 0xd0
 8002b24:	429c      	cmp	r4, r3
 8002b26:	d105      	bne.n	8002b34 <std+0x54>
 8002b28:	f104 0058 	add.w	r0, r4, #88	@ 0x58
 8002b2c:	e8bd 4010 	ldmia.w	sp!, {r4, lr}
 8002b30:	f000 b96a 	b.w	8002e08 <__retarget_lock_init_recursive>
 8002b34:	bd10      	pop	{r4, pc}
 8002b36:	bf00      	nop
 8002b38:	08002cd1 	.word	0x08002cd1
 8002b3c:	08002cf3 	.word	0x08002cf3
 8002b40:	08002d2b 	.word	0x08002d2b
 8002b44:	08002d51 	.word	0x08002d51
 8002b48:	200003d4 	.word	0x200003d4

08002b4c <stdio_exit_handler>:
 8002b4c:	4a02      	ldr	r2, [pc, #8]	@ (8002b58 <stdio_exit_handler+0xc>)
 8002b4e:	4903      	ldr	r1, [pc, #12]	@ (8002b5c <stdio_exit_handler+0x10>)
 8002b50:	4803      	ldr	r0, [pc, #12]	@ (8002b60 <stdio_exit_handler+0x14>)
 8002b52:	f000 b86b 	b.w	8002c2c <_fwalk_sglue>
 8002b56:	bf00      	nop
 8002b58:	20000010 	.word	0x20000010
 8002b5c:	080057d9 	.word	0x080057d9
 8002b60:	20000020 	.word	0x20000020

08002b64 <cleanup_stdio>:
 8002b64:	6841      	ldr	r1, [r0, #4]
 8002b66:	4b0c      	ldr	r3, [pc, #48]	@ (8002b98 <cleanup_stdio+0x34>)
 8002b68:	4299      	cmp	r1, r3
 8002b6a:	b510      	push	{r4, lr}
 8002b6c:	4604      	mov	r4, r0
 8002b6e:	d001      	beq.n	8002b74 <cleanup_stdio+0x10>
 8002b70:	f002 fe32 	bl	80057d8 <_fflush_r>
 8002b74:	68a1      	ldr	r1, [r4, #8]
 8002b76:	4b09      	ldr	r3, [pc, #36]	@ (8002b9c <cleanup_stdio+0x38>)
 8002b78:	4299      	cmp	r1, r3
 8002b7a:	d002      	beq.n	8002b82 <cleanup_stdio+0x1e>
 8002b7c:	4620      	mov	r0, r4
 8002b7e:	f002 fe2b 	bl	80057d8 <_fflush_r>
 8002b82:	68e1      	ldr	r1, [r4, #12]
 8002b84:	4b06      	ldr	r3, [pc, #24]	@ (8002ba0 <cleanup_stdio+0x3c>)
 8002b86:	4299      	cmp	r1, r3
 8002b88:	d004      	beq.n	8002b94 <cleanup_stdio+0x30>
 8002b8a:	4620      	mov	r0, r4
 8002b8c:	e8bd 4010 	ldmia.w	sp!, {r4, lr}
 8002b90:	f002 be22 	b.w	80057d8 <_fflush_r>
 8002b94:	bd10      	pop	{r4, pc}
 8002b96:	bf00      	nop
 8002b98:	200003d4 	.word	0x200003d4
 8002b9c:	2000043c 	.word	0x2000043c
 8002ba0:	200004a4 	.word	0x200004a4

08002ba4 <global_stdio_init.part.0>:
 8002ba4:	4b0c      	ldr	r3, [pc, #48]	@ (8002bd8 <global_stdio_init.part.0+0x34>)
 8002ba6:	4a0d      	ldr	r2, [pc, #52]	@ (8002bdc <global_stdio_init.part.0+0x38>)
 8002ba8:	480d      	ldr	r0, [pc, #52]	@ (8002be0 <global_stdio_init.part.0+0x3c>)
 8002baa:	b510      	push	{r4, lr}
 8002bac:	2104      	movs	r1, #4
 8002bae:	601a      	str	r2, [r3, #0]
 8002bb0:	2200      	movs	r2, #0
 8002bb2:	f7ff ff95 	bl	8002ae0 <std>
 8002bb6:	4b0a      	ldr	r3, [pc, #40]	@ (8002be0 <global_stdio_init.part.0+0x3c>)
 8002bb8:	2201      	movs	r2, #1
 8002bba:	461c      	mov	r4, r3
 8002bbc:	2109      	movs	r1, #9
 8002bbe:	f103 0068 	add.w	r0, r3, #104	@ 0x68
 8002bc2:	f7ff ff8d 	bl	8002ae0 <std>
 8002bc6:	f104 00d0 	add.w	r0, r4, #208	@ 0xd0
 8002bca:	2202      	movs	r2, #2
 8002bcc:	e8bd 4010 	ldmia.w	sp!, {r4, lr}
 8002bd0:	2112      	movs	r1, #18
 8002bd2:	f7ff bf85 	b.w	8002ae0 <std>
 8002bd6:	bf00      	nop
 8002bd8:	2000050c 	.word	0x2000050c
 8002bdc:	08002b4d 	.word	0x08002b4d
 8002be0:	200003d4 	.word	0x200003d4

08002be4 <__sfp_lock_acquire>:
 8002be4:	4801      	ldr	r0, [pc, #4]	@ (8002bec <__sfp_lock_acquire+0x8>)
 8002be6:	f000 b910 	b.w	8002e0a <__retarget_lock_acquire_recursive>
 8002bea:	bf00      	nop
 8002bec:	20000515 	.word	0x20000515

08002bf0 <__sfp_lock_release>:
 8002bf0:	4801      	ldr	r0, [pc, #4]	@ (8002bf8 <__sfp_lock_release+0x8>)
 8002bf2:	f000 b90b 	b.w	8002e0c <__retarget_lock_release_recursive>
 8002bf6:	bf00      	nop
 8002bf8:	20000515 	.word	0x20000515

08002bfc <__sinit>:
 8002bfc:	b510      	push	{r4, lr}
 8002bfe:	4604      	mov	r4, r0
 8002c00:	f7ff fff0 	bl	8002be4 <__sfp_lock_acquire>
 8002c04:	6a23      	ldr	r3, [r4, #32]
 8002c06:	b11b      	cbz	r3, 8002c10 <__sinit+0x14>
 8002c08:	e8bd 4010 	ldmia.w	sp!, {r4, lr}
 8002c0c:	f7ff bff0 	b.w	8002bf0 <__sfp_lock_release>
 8002c10:	4b04      	ldr	r3, [pc, #16]	@ (8002c24 <__sinit+0x28>)
 8002c12:	6223      	str	r3, [r4, #32]
 8002c14:	4b04      	ldr	r3, [pc, #16]	@ (8002c28 <__sinit+0x2c>)
 8002c16:	681b      	ldr	r3, [r3, #0]
 8002c18:	2b00      	cmp	r3, #0
 8002c1a:	d1f5      	bne.n	8002c08 <__sinit+0xc>
 8002c1c:	f7ff ffc2 	bl	8002ba4 <global_stdio_init.part.0>
 8002c20:	e7f2      	b.n	8002c08 <__sinit+0xc>
 8002c22:	bf00      	nop
 8002c24:	08002b65 	.word	0x08002b65
 8002c28:	2000050c 	.word	0x2000050c

08002c2c <_fwalk_sglue>:
 8002c2c:	e92d 43f8 	stmdb	sp!, {r3, r4, r5, r6, r7, r8, r9, lr}
 8002c30:	4607      	mov	r7, r0
 8002c32:	4688      	mov	r8, r1
 8002c34:	4614      	mov	r4, r2
 8002c36:	2600      	movs	r6, #0
 8002c38:	e9d4 9501 	ldrd	r9, r5, [r4, #4]
 8002c3c:	f1b9 0901 	subs.w	r9, r9, #1
 8002c40:	d505      	bpl.n	8002c4e <_fwalk_sglue+0x22>
 8002c42:	6824      	ldr	r4, [r4, #0]
 8002c44:	2c00      	cmp	r4, #0
 8002c46:	d1f7      	bne.n	8002c38 <_fwalk_sglue+0xc>
 8002c48:	4630      	mov	r0, r6
 8002c4a:	e8bd 83f8 	ldmia.w	sp!, {r3, r4, r5, r6, r7, r8, r9, pc}
 8002c4e:	89ab      	ldrh	r3, [r5, #12]
 8002c50:	2b01      	cmp	r3, #1
 8002c52:	d907      	bls.n	8002c64 <_fwalk_sglue+0x38>
 8002c54:	f9b5 300e 	ldrsh.w	r3, [r5, #14]
 8002c58:	3301      	adds	r3, #1
 8002c5a:	d003      	beq.n	8002c64 <_fwalk_sglue+0x38>
 8002c5c:	4629      	mov	r1, r5
 8002c5e:	4638      	mov	r0, r7
 8002c60:	47c0      	blx	r8
 8002c62:	4306      	orrs	r6, r0
 8002c64:	3568      	adds	r5, #104	@ 0x68
 8002c66:	e7e9      	b.n	8002c3c <_fwalk_sglue+0x10>

08002c68 <iprintf>:
 8002c68:	b40f      	push	{r0, r1, r2, r3}
 8002c6a:	b507      	push	{r0, r1, r2, lr}
 8002c6c:	4906      	ldr	r1, [pc, #24]	@ (8002c88 <iprintf+0x20>)
 8002c6e:	ab04      	add	r3, sp, #16
 8002c70:	6808      	ldr	r0, [r1, #0]
 8002c72:	f853 2b04 	ldr.w	r2, [r3], #4
 8002c76:	6881      	ldr	r1, [r0, #8]
 8002c78:	9301      	str	r3, [sp, #4]
 8002c7a:	f002 fc17 	bl	80054ac <_vfiprintf_r>
 8002c7e:	b003      	add	sp, #12
 8002c80:	f85d eb04 	ldr.w	lr, [sp], #4
 8002c84:	b004      	add	sp, #16
 8002c86:	4770      	bx	lr
 8002c88:	2000001c 	.word	0x2000001c

08002c8c <siprintf>:
 8002c8c:	b40e      	push	{r1, r2, r3}
 8002c8e:	b510      	push	{r4, lr}
 8002c90:	b09d      	sub	sp, #116	@ 0x74
 8002c92:	ab1f      	add	r3, sp, #124	@ 0x7c
 8002c94:	9002      	str	r0, [sp, #8]
 8002c96:	9006      	str	r0, [sp, #24]
 8002c98:	f06f 4100 	mvn.w	r1, #2147483648	@ 0x80000000
 8002c9c:	480a      	ldr	r0, [pc, #40]	@ (8002cc8 <siprintf+0x3c>)
 8002c9e:	9107      	str	r1, [sp, #28]
 8002ca0:	9104      	str	r1, [sp, #16]
 8002ca2:	490a      	ldr	r1, [pc, #40]	@ (8002ccc <siprintf+0x40>)
 8002ca4:	f853 2b04 	ldr.w	r2, [r3], #4
 8002ca8:	9105      	str	r1, [sp, #20]
 8002caa:	2400      	movs	r4, #0
 8002cac:	a902      	add	r1, sp, #8
 8002cae:	6800      	ldr	r0, [r0, #0]
 8002cb0:	9301      	str	r3, [sp, #4]
 8002cb2:	941b      	str	r4, [sp, #108]	@ 0x6c
 8002cb4:	f002 fad8 	bl	8005268 <_svfiprintf_r>
 8002cb8:	9b02      	ldr	r3, [sp, #8]
 8002cba:	701c      	strb	r4, [r3, #0]
 8002cbc:	b01d      	add	sp, #116	@ 0x74
 8002cbe:	e8bd 4010 	ldmia.w	sp!, {r4, lr}
 8002cc2:	b003      	add	sp, #12
 8002cc4:	4770      	bx	lr
 8002cc6:	bf00      	nop
 8002cc8:	2000001c 	.word	0x2000001c
 8002ccc:	ffff0208 	.word	0xffff0208

08002cd0 <__sread>:
 8002cd0:	b510      	push	{r4, lr}
 8002cd2:	460c      	mov	r4, r1
 8002cd4:	f9b1 100e 	ldrsh.w	r1, [r1, #14]
 8002cd8:	f000 f86c 	bl	8002db4 <_read_r>
 8002cdc:	2800      	cmp	r0, #0
 8002cde:	bfab      	itete	ge
 8002ce0:	6d63      	ldrge	r3, [r4, #84]	@ 0x54
 8002ce2:	89a3      	ldrhlt	r3, [r4, #12]
 8002ce4:	181b      	addge	r3, r3, r0
 8002ce6:	f423 5380 	biclt.w	r3, r3, #4096	@ 0x1000
 8002cea:	bfac      	ite	ge
 8002cec:	6563      	strge	r3, [r4, #84]	@ 0x54
 8002cee:	81a3      	strhlt	r3, [r4, #12]
 8002cf0:	bd10      	pop	{r4, pc}

08002cf2 <__swrite>:
 8002cf2:	e92d 41f0 	stmdb	sp!, {r4, r5, r6, r7, r8, lr}
 8002cf6:	461f      	mov	r7, r3
 8002cf8:	898b      	ldrh	r3, [r1, #12]
 8002cfa:	05db      	lsls	r3, r3, #23
 8002cfc:	4605      	mov	r5, r0
 8002cfe:	460c      	mov	r4, r1
 8002d00:	4616      	mov	r6, r2
 8002d02:	d505      	bpl.n	8002d10 <__swrite+0x1e>
 8002d04:	f9b1 100e 	ldrsh.w	r1, [r1, #14]
 8002d08:	2302      	movs	r3, #2
 8002d0a:	2200      	movs	r2, #0
 8002d0c:	f000 f840 	bl	8002d90 <_lseek_r>
 8002d10:	89a3      	ldrh	r3, [r4, #12]
 8002d12:	f9b4 100e 	ldrsh.w	r1, [r4, #14]
 8002d16:	f423 5380 	bic.w	r3, r3, #4096	@ 0x1000
 8002d1a:	81a3      	strh	r3, [r4, #12]
 8002d1c:	4632      	mov	r2, r6
 8002d1e:	463b      	mov	r3, r7
 8002d20:	4628      	mov	r0, r5
 8002d22:	e8bd 41f0 	ldmia.w	sp!, {r4, r5, r6, r7, r8, lr}
 8002d26:	f000 b857 	b.w	8002dd8 <_write_r>

08002d2a <__sseek>:
 8002d2a:	b510      	push	{r4, lr}
 8002d2c:	460c      	mov	r4, r1
 8002d2e:	f9b1 100e 	ldrsh.w	r1, [r1, #14]
 8002d32:	f000 f82d 	bl	8002d90 <_lseek_r>
 8002d36:	f9b4 300c 	ldrsh.w	r3, [r4, #12]
 8002d3a:	1c42      	adds	r2, r0, #1
 8002d3c:	bf0b      	itete	eq
 8002d3e:	f423 5380 	biceq.w	r3, r3, #4096	@ 0x1000
 8002d42:	f443 5380 	orrne.w	r3, r3, #4096	@ 0x1000
 8002d46:	81a3      	strheq	r3, [r4, #12]
 8002d48:	81a3      	strhne	r3, [r4, #12]
 8002d4a:	bf18      	it	ne
 8002d4c:	6560      	strne	r0, [r4, #84]	@ 0x54
 8002d4e:	bd10      	pop	{r4, pc}

08002d50 <__sclose>:
 8002d50:	f9b1 100e 	ldrsh.w	r1, [r1, #14]
 8002d54:	f000 b80c 	b.w	8002d70 <_close_r>

08002d58 <memset>:
 8002d58:	4402      	add	r2, r0
 8002d5a:	4603      	mov	r3, r0
 8002d5c:	4293      	cmp	r3, r2
 8002d5e:	d100      	bne.n	8002d62 <memset+0xa>
 8002d60:	4770      	bx	lr
 8002d62:	f803 1b01 	strb.w	r1, [r3], #1
 8002d66:	e7f9      	b.n	8002d5c <memset+0x4>

08002d68 <_localeconv_r>:
 8002d68:	4800      	ldr	r0, [pc, #0]	@ (8002d6c <_localeconv_r+0x4>)
 8002d6a:	4770      	bx	lr
 8002d6c:	2000015c 	.word	0x2000015c

08002d70 <_close_r>:
 8002d70:	b538      	push	{r3, r4, r5, lr}
 8002d72:	4d06      	ldr	r5, [pc, #24]	@ (8002d8c <_close_r+0x1c>)
 8002d74:	2300      	movs	r3, #0
 8002d76:	4604      	mov	r4, r0
 8002d78:	4608      	mov	r0, r1
 8002d7a:	602b      	str	r3, [r5, #0]
 8002d7c:	f7fe fed4 	bl	8001b28 <_close>
 8002d80:	1c43      	adds	r3, r0, #1
 8002d82:	d102      	bne.n	8002d8a <_close_r+0x1a>
 8002d84:	682b      	ldr	r3, [r5, #0]
 8002d86:	b103      	cbz	r3, 8002d8a <_close_r+0x1a>
 8002d88:	6023      	str	r3, [r4, #0]
 8002d8a:	bd38      	pop	{r3, r4, r5, pc}
 8002d8c:	20000510 	.word	0x20000510

08002d90 <_lseek_r>:
 8002d90:	b538      	push	{r3, r4, r5, lr}
 8002d92:	4d07      	ldr	r5, [pc, #28]	@ (8002db0 <_lseek_r+0x20>)
 8002d94:	4604      	mov	r4, r0
 8002d96:	4608      	mov	r0, r1
 8002d98:	4611      	mov	r1, r2
 8002d9a:	2200      	movs	r2, #0
 8002d9c:	602a      	str	r2, [r5, #0]
 8002d9e:	461a      	mov	r2, r3
 8002da0:	f7fe fee9 	bl	8001b76 <_lseek>
 8002da4:	1c43      	adds	r3, r0, #1
 8002da6:	d102      	bne.n	8002dae <_lseek_r+0x1e>
 8002da8:	682b      	ldr	r3, [r5, #0]
 8002daa:	b103      	cbz	r3, 8002dae <_lseek_r+0x1e>
 8002dac:	6023      	str	r3, [r4, #0]
 8002dae:	bd38      	pop	{r3, r4, r5, pc}
 8002db0:	20000510 	.word	0x20000510

08002db4 <_read_r>:
 8002db4:	b538      	push	{r3, r4, r5, lr}
 8002db6:	4d07      	ldr	r5, [pc, #28]	@ (8002dd4 <_read_r+0x20>)
 8002db8:	4604      	mov	r4, r0
 8002dba:	4608      	mov	r0, r1
 8002dbc:	4611      	mov	r1, r2
 8002dbe:	2200      	movs	r2, #0
 8002dc0:	602a      	str	r2, [r5, #0]
 8002dc2:	461a      	mov	r2, r3
 8002dc4:	f7fe fe93 	bl	8001aee <_read>
 8002dc8:	1c43      	adds	r3, r0, #1
 8002dca:	d102      	bne.n	8002dd2 <_read_r+0x1e>
 8002dcc:	682b      	ldr	r3, [r5, #0]
 8002dce:	b103      	cbz	r3, 8002dd2 <_read_r+0x1e>
 8002dd0:	6023      	str	r3, [r4, #0]
 8002dd2:	bd38      	pop	{r3, r4, r5, pc}
 8002dd4:	20000510 	.word	0x20000510

08002dd8 <_write_r>:
 8002dd8:	b538      	push	{r3, r4, r5, lr}
 8002dda:	4d07      	ldr	r5, [pc, #28]	@ (8002df8 <_write_r+0x20>)
 8002ddc:	4604      	mov	r4, r0
 8002dde:	4608      	mov	r0, r1
 8002de0:	4611      	mov	r1, r2
 8002de2:	2200      	movs	r2, #0
 8002de4:	602a      	str	r2, [r5, #0]
 8002de6:	461a      	mov	r2, r3
 8002de8:	f7ff f81c 	bl	8001e24 <_write>
 8002dec:	1c43      	adds	r3, r0, #1
 8002dee:	d102      	bne.n	8002df6 <_write_r+0x1e>
 8002df0:	682b      	ldr	r3, [r5, #0]
 8002df2:	b103      	cbz	r3, 8002df6 <_write_r+0x1e>
 8002df4:	6023      	str	r3, [r4, #0]
 8002df6:	bd38      	pop	{r3, r4, r5, pc}
 8002df8:	20000510 	.word	0x20000510

08002dfc <__errno>:
 8002dfc:	4b01      	ldr	r3, [pc, #4]	@ (8002e04 <__errno+0x8>)
 8002dfe:	6818      	ldr	r0, [r3, #0]
 8002e00:	4770      	bx	lr
 8002e02:	bf00      	nop
 8002e04:	2000001c 	.word	0x2000001c

08002e08 <__retarget_lock_init_recursive>:
 8002e08:	4770      	bx	lr

08002e0a <__retarget_lock_acquire_recursive>:
 8002e0a:	4770      	bx	lr

08002e0c <__retarget_lock_release_recursive>:
 8002e0c:	4770      	bx	lr
	...

08002e10 <nanf>:
 8002e10:	ed9f 0a01 	vldr	s0, [pc, #4]	@ 8002e18 <nanf+0x8>
 8002e14:	4770      	bx	lr
 8002e16:	bf00      	nop
 8002e18:	7fc00000 	.word	0x7fc00000

08002e1c <quorem>:
 8002e1c:	e92d 4ff7 	stmdb	sp!, {r0, r1, r2, r4, r5, r6, r7, r8, r9, sl, fp, lr}
 8002e20:	6903      	ldr	r3, [r0, #16]
 8002e22:	690c      	ldr	r4, [r1, #16]
 8002e24:	42a3      	cmp	r3, r4
 8002e26:	4607      	mov	r7, r0
 8002e28:	db7e      	blt.n	8002f28 <quorem+0x10c>
 8002e2a:	3c01      	subs	r4, #1
 8002e2c:	f101 0814 	add.w	r8, r1, #20
 8002e30:	00a3      	lsls	r3, r4, #2
 8002e32:	f100 0514 	add.w	r5, r0, #20
 8002e36:	9300      	str	r3, [sp, #0]
 8002e38:	eb05 0384 	add.w	r3, r5, r4, lsl #2
 8002e3c:	9301      	str	r3, [sp, #4]
 8002e3e:	f858 3024 	ldr.w	r3, [r8, r4, lsl #2]
 8002e42:	f855 2024 	ldr.w	r2, [r5, r4, lsl #2]
 8002e46:	3301      	adds	r3, #1
 8002e48:	429a      	cmp	r2, r3
 8002e4a:	eb08 0984 	add.w	r9, r8, r4, lsl #2
 8002e4e:	fbb2 f6f3 	udiv	r6, r2, r3
 8002e52:	d32e      	bcc.n	8002eb2 <quorem+0x96>
 8002e54:	f04f 0a00 	mov.w	sl, #0
 8002e58:	46c4      	mov	ip, r8
 8002e5a:	46ae      	mov	lr, r5
 8002e5c:	46d3      	mov	fp, sl
 8002e5e:	f85c 3b04 	ldr.w	r3, [ip], #4
 8002e62:	b298      	uxth	r0, r3
 8002e64:	fb06 a000 	mla	r0, r6, r0, sl
 8002e68:	0c02      	lsrs	r2, r0, #16
 8002e6a:	0c1b      	lsrs	r3, r3, #16
 8002e6c:	fb06 2303 	mla	r3, r6, r3, r2
 8002e70:	f8de 2000 	ldr.w	r2, [lr]
 8002e74:	b280      	uxth	r0, r0
 8002e76:	b292      	uxth	r2, r2
 8002e78:	1a12      	subs	r2, r2, r0
 8002e7a:	445a      	add	r2, fp
 8002e7c:	f8de 0000 	ldr.w	r0, [lr]
 8002e80:	ea4f 4a13 	mov.w	sl, r3, lsr #16
 8002e84:	b29b      	uxth	r3, r3
 8002e86:	ebc3 4322 	rsb	r3, r3, r2, asr #16
 8002e8a:	eb03 4310 	add.w	r3, r3, r0, lsr #16
 8002e8e:	b292      	uxth	r2, r2
 8002e90:	ea42 4203 	orr.w	r2, r2, r3, lsl #16
 8002e94:	45e1      	cmp	r9, ip
 8002e96:	f84e 2b04 	str.w	r2, [lr], #4
 8002e9a:	ea4f 4b23 	mov.w	fp, r3, asr #16
 8002e9e:	d2de      	bcs.n	8002e5e <quorem+0x42>
 8002ea0:	9b00      	ldr	r3, [sp, #0]
 8002ea2:	58eb      	ldr	r3, [r5, r3]
 8002ea4:	b92b      	cbnz	r3, 8002eb2 <quorem+0x96>
 8002ea6:	9b01      	ldr	r3, [sp, #4]
 8002ea8:	3b04      	subs	r3, #4
 8002eaa:	429d      	cmp	r5, r3
 8002eac:	461a      	mov	r2, r3
 8002eae:	d32f      	bcc.n	8002f10 <quorem+0xf4>
 8002eb0:	613c      	str	r4, [r7, #16]
 8002eb2:	4638      	mov	r0, r7
 8002eb4:	f001 f94c 	bl	8004150 <__mcmp>
 8002eb8:	2800      	cmp	r0, #0
 8002eba:	db25      	blt.n	8002f08 <quorem+0xec>
 8002ebc:	4629      	mov	r1, r5
 8002ebe:	2000      	movs	r0, #0
 8002ec0:	f858 2b04 	ldr.w	r2, [r8], #4
 8002ec4:	f8d1 c000 	ldr.w	ip, [r1]
 8002ec8:	fa1f fe82 	uxth.w	lr, r2
 8002ecc:	fa1f f38c 	uxth.w	r3, ip
 8002ed0:	eba3 030e 	sub.w	r3, r3, lr
 8002ed4:	4403      	add	r3, r0
 8002ed6:	0c12      	lsrs	r2, r2, #16
 8002ed8:	ebc2 4223 	rsb	r2, r2, r3, asr #16
 8002edc:	eb02 421c 	add.w	r2, r2, ip, lsr #16
 8002ee0:	b29b      	uxth	r3, r3
 8002ee2:	ea43 4302 	orr.w	r3, r3, r2, lsl #16
 8002ee6:	45c1      	cmp	r9, r8
 8002ee8:	f841 3b04 	str.w	r3, [r1], #4
 8002eec:	ea4f 4022 	mov.w	r0, r2, asr #16
 8002ef0:	d2e6      	bcs.n	8002ec0 <quorem+0xa4>
 8002ef2:	f855 2024 	ldr.w	r2, [r5, r4, lsl #2]
 8002ef6:	eb05 0384 	add.w	r3, r5, r4, lsl #2
 8002efa:	b922      	cbnz	r2, 8002f06 <quorem+0xea>
 8002efc:	3b04      	subs	r3, #4
 8002efe:	429d      	cmp	r5, r3
 8002f00:	461a      	mov	r2, r3
 8002f02:	d30b      	bcc.n	8002f1c <quorem+0x100>
 8002f04:	613c      	str	r4, [r7, #16]
 8002f06:	3601      	adds	r6, #1
 8002f08:	4630      	mov	r0, r6
 8002f0a:	b003      	add	sp, #12
 8002f0c:	e8bd 8ff0 	ldmia.w	sp!, {r4, r5, r6, r7, r8, r9, sl, fp, pc}
 8002f10:	6812      	ldr	r2, [r2, #0]
 8002f12:	3b04      	subs	r3, #4
 8002f14:	2a00      	cmp	r2, #0
 8002f16:	d1cb      	bne.n	8002eb0 <quorem+0x94>
 8002f18:	3c01      	subs	r4, #1
 8002f1a:	e7c6      	b.n	8002eaa <quorem+0x8e>
 8002f1c:	6812      	ldr	r2, [r2, #0]
 8002f1e:	3b04      	subs	r3, #4
 8002f20:	2a00      	cmp	r2, #0
 8002f22:	d1ef      	bne.n	8002f04 <quorem+0xe8>
 8002f24:	3c01      	subs	r4, #1
 8002f26:	e7ea      	b.n	8002efe <quorem+0xe2>
 8002f28:	2000      	movs	r0, #0
 8002f2a:	e7ee      	b.n	8002f0a <quorem+0xee>
 8002f2c:	0000      	movs	r0, r0
	...

08002f30 <_dtoa_r>:
 8002f30:	e92d 4ff0 	stmdb	sp!, {r4, r5, r6, r7, r8, r9, sl, fp, lr}
 8002f34:	ed2d 8b02 	vpush	{d8}
 8002f38:	b091      	sub	sp, #68	@ 0x44
 8002f3a:	ed8d 0b08 	vstr	d0, [sp, #32]
 8002f3e:	9207      	str	r2, [sp, #28]
 8002f40:	69c2      	ldr	r2, [r0, #28]
 8002f42:	9e1c      	ldr	r6, [sp, #112]	@ 0x70
 8002f44:	9105      	str	r1, [sp, #20]
 8002f46:	ec55 4b10 	vmov	r4, r5, d0
 8002f4a:	4681      	mov	r9, r0
 8002f4c:	930d      	str	r3, [sp, #52]	@ 0x34
 8002f4e:	b982      	cbnz	r2, 8002f72 <_dtoa_r+0x42>
 8002f50:	2010      	movs	r0, #16
 8002f52:	f000 fd81 	bl	8003a58 <malloc>
 8002f56:	4602      	mov	r2, r0
 8002f58:	f8c9 001c 	str.w	r0, [r9, #28]
 8002f5c:	b920      	cbnz	r0, 8002f68 <_dtoa_r+0x38>
 8002f5e:	4b9e      	ldr	r3, [pc, #632]	@ (80031d8 <_dtoa_r+0x2a8>)
 8002f60:	21ef      	movs	r1, #239	@ 0xef
 8002f62:	489e      	ldr	r0, [pc, #632]	@ (80031dc <_dtoa_r+0x2ac>)
 8002f64:	f002 fd44 	bl	80059f0 <__assert_func>
 8002f68:	2300      	movs	r3, #0
 8002f6a:	e9c0 3301 	strd	r3, r3, [r0, #4]
 8002f6e:	6003      	str	r3, [r0, #0]
 8002f70:	60c3      	str	r3, [r0, #12]
 8002f72:	6811      	ldr	r1, [r2, #0]
 8002f74:	b159      	cbz	r1, 8002f8e <_dtoa_r+0x5e>
 8002f76:	6852      	ldr	r2, [r2, #4]
 8002f78:	604a      	str	r2, [r1, #4]
 8002f7a:	2301      	movs	r3, #1
 8002f7c:	4093      	lsls	r3, r2
 8002f7e:	608b      	str	r3, [r1, #8]
 8002f80:	4648      	mov	r0, r9
 8002f82:	f000 fe5d 	bl	8003c40 <_Bfree>
 8002f86:	f8d9 301c 	ldr.w	r3, [r9, #28]
 8002f8a:	2200      	movs	r2, #0
 8002f8c:	601a      	str	r2, [r3, #0]
 8002f8e:	1e2f      	subs	r7, r5, #0
 8002f90:	bfb5      	itete	lt
 8002f92:	2301      	movlt	r3, #1
 8002f94:	2300      	movge	r3, #0
 8002f96:	6033      	strlt	r3, [r6, #0]
 8002f98:	6033      	strge	r3, [r6, #0]
 8002f9a:	4b91      	ldr	r3, [pc, #580]	@ (80031e0 <_dtoa_r+0x2b0>)
 8002f9c:	bfbc      	itt	lt
 8002f9e:	f027 4700 	biclt.w	r7, r7, #2147483648	@ 0x80000000
 8002fa2:	9709      	strlt	r7, [sp, #36]	@ 0x24
 8002fa4:	43bb      	bics	r3, r7
 8002fa6:	d110      	bne.n	8002fca <_dtoa_r+0x9a>
 8002fa8:	9a0d      	ldr	r2, [sp, #52]	@ 0x34
 8002faa:	f3c7 0713 	ubfx	r7, r7, #0, #20
 8002fae:	f242 730f 	movw	r3, #9999	@ 0x270f
 8002fb2:	4327      	orrs	r7, r4
 8002fb4:	6013      	str	r3, [r2, #0]
 8002fb6:	f000 84d4 	beq.w	8003962 <_dtoa_r+0xa32>
 8002fba:	9b1d      	ldr	r3, [sp, #116]	@ 0x74
 8002fbc:	4f89      	ldr	r7, [pc, #548]	@ (80031e4 <_dtoa_r+0x2b4>)
 8002fbe:	2b00      	cmp	r3, #0
 8002fc0:	f000 84d6 	beq.w	8003970 <_dtoa_r+0xa40>
 8002fc4:	1cfb      	adds	r3, r7, #3
 8002fc6:	f000 bcd1 	b.w	800396c <_dtoa_r+0xa3c>
 8002fca:	ed9d 8b08 	vldr	d8, [sp, #32]
 8002fce:	eeb5 8b40 	vcmp.f64	d8, #0.0
 8002fd2:	eef1 fa10 	vmrs	APSR_nzcv, fpscr
 8002fd6:	d10a      	bne.n	8002fee <_dtoa_r+0xbe>
 8002fd8:	9a0d      	ldr	r2, [sp, #52]	@ 0x34
 8002fda:	2301      	movs	r3, #1
 8002fdc:	6013      	str	r3, [r2, #0]
 8002fde:	9b1d      	ldr	r3, [sp, #116]	@ 0x74
 8002fe0:	b113      	cbz	r3, 8002fe8 <_dtoa_r+0xb8>
 8002fe2:	9a1d      	ldr	r2, [sp, #116]	@ 0x74
 8002fe4:	4b80      	ldr	r3, [pc, #512]	@ (80031e8 <_dtoa_r+0x2b8>)
 8002fe6:	6013      	str	r3, [r2, #0]
 8002fe8:	4f80      	ldr	r7, [pc, #512]	@ (80031ec <_dtoa_r+0x2bc>)
 8002fea:	f000 bcc1 	b.w	8003970 <_dtoa_r+0xa40>
 8002fee:	aa0e      	add	r2, sp, #56	@ 0x38
 8002ff0:	a90f      	add	r1, sp, #60	@ 0x3c
 8002ff2:	4648      	mov	r0, r9
 8002ff4:	eeb0 0b48 	vmov.f64	d0, d8
 8002ff8:	f001 f9ce 	bl	8004398 <__d2b>
 8002ffc:	0d3b      	lsrs	r3, r7, #20
 8002ffe:	9a0e      	ldr	r2, [sp, #56]	@ 0x38
 8003000:	9001      	str	r0, [sp, #4]
 8003002:	d046      	beq.n	8003092 <_dtoa_r+0x162>
 8003004:	eeb0 7b48 	vmov.f64	d7, d8
 8003008:	ee18 1a90 	vmov	r1, s17
 800300c:	f3c1 0113 	ubfx	r1, r1, #0, #20
 8003010:	f041 517f 	orr.w	r1, r1, #1069547520	@ 0x3fc00000
 8003014:	f441 1140 	orr.w	r1, r1, #3145728	@ 0x300000
 8003018:	f2a3 33ff 	subw	r3, r3, #1023	@ 0x3ff
 800301c:	2000      	movs	r0, #0
 800301e:	ee07 1a90 	vmov	s15, r1
 8003022:	eeb7 6b08 	vmov.f64	d6, #120	@ 0x3fc00000  1.5
 8003026:	ed9f 5b66 	vldr	d5, [pc, #408]	@ 80031c0 <_dtoa_r+0x290>
 800302a:	ee37 7b46 	vsub.f64	d7, d7, d6
 800302e:	ed9f 6b66 	vldr	d6, [pc, #408]	@ 80031c8 <_dtoa_r+0x298>
 8003032:	eea7 6b05 	vfma.f64	d6, d7, d5
 8003036:	ed9f 5b66 	vldr	d5, [pc, #408]	@ 80031d0 <_dtoa_r+0x2a0>
 800303a:	ee07 3a90 	vmov	s15, r3
 800303e:	eeb8 4be7 	vcvt.f64.s32	d4, s15
 8003042:	eeb0 7b46 	vmov.f64	d7, d6
 8003046:	eea4 7b05 	vfma.f64	d7, d4, d5
 800304a:	eefd 6bc7 	vcvt.s32.f64	s13, d7
 800304e:	eeb5 7bc0 	vcmpe.f64	d7, #0.0
 8003052:	eef1 fa10 	vmrs	APSR_nzcv, fpscr
 8003056:	ee16 8a90 	vmov	r8, s13
 800305a:	900b      	str	r0, [sp, #44]	@ 0x2c
 800305c:	d508      	bpl.n	8003070 <_dtoa_r+0x140>
 800305e:	eeb8 6be6 	vcvt.f64.s32	d6, s13
 8003062:	eeb4 6b47 	vcmp.f64	d6, d7
 8003066:	eef1 fa10 	vmrs	APSR_nzcv, fpscr
 800306a:	bf18      	it	ne
 800306c:	f108 38ff 	addne.w	r8, r8, #4294967295
 8003070:	f1b8 0f16 	cmp.w	r8, #22
 8003074:	d82b      	bhi.n	80030ce <_dtoa_r+0x19e>
 8003076:	495e      	ldr	r1, [pc, #376]	@ (80031f0 <_dtoa_r+0x2c0>)
 8003078:	eb01 01c8 	add.w	r1, r1, r8, lsl #3
 800307c:	ed91 7b00 	vldr	d7, [r1]
 8003080:	eeb4 8bc7 	vcmpe.f64	d8, d7
 8003084:	eef1 fa10 	vmrs	APSR_nzcv, fpscr
 8003088:	d501      	bpl.n	800308e <_dtoa_r+0x15e>
 800308a:	f108 38ff 	add.w	r8, r8, #4294967295
 800308e:	2100      	movs	r1, #0
 8003090:	e01e      	b.n	80030d0 <_dtoa_r+0x1a0>
 8003092:	9b0f      	ldr	r3, [sp, #60]	@ 0x3c
 8003094:	4413      	add	r3, r2
 8003096:	f203 4132 	addw	r1, r3, #1074	@ 0x432
 800309a:	2920      	cmp	r1, #32
 800309c:	bfc1      	itttt	gt
 800309e:	f1c1 0140 	rsbgt	r1, r1, #64	@ 0x40
 80030a2:	408f      	lslgt	r7, r1
 80030a4:	f203 4112 	addwgt	r1, r3, #1042	@ 0x412
 80030a8:	fa24 f101 	lsrgt.w	r1, r4, r1
 80030ac:	bfd6      	itet	le
 80030ae:	f1c1 0120 	rsble	r1, r1, #32
 80030b2:	4339      	orrgt	r1, r7
 80030b4:	fa04 f101 	lslle.w	r1, r4, r1
 80030b8:	ee07 1a90 	vmov	s15, r1
 80030bc:	eeb8 7b67 	vcvt.f64.u32	d7, s15
 80030c0:	3b01      	subs	r3, #1
 80030c2:	ee17 1a90 	vmov	r1, s15
 80030c6:	2001      	movs	r0, #1
 80030c8:	f1a1 71f8 	sub.w	r1, r1, #32505856	@ 0x1f00000
 80030cc:	e7a7      	b.n	800301e <_dtoa_r+0xee>
 80030ce:	2101      	movs	r1, #1
 80030d0:	1ad2      	subs	r2, r2, r3
 80030d2:	1e53      	subs	r3, r2, #1
 80030d4:	9304      	str	r3, [sp, #16]
 80030d6:	bf45      	ittet	mi
 80030d8:	f1c2 0301 	rsbmi	r3, r2, #1
 80030dc:	9302      	strmi	r3, [sp, #8]
 80030de:	2300      	movpl	r3, #0
 80030e0:	2300      	movmi	r3, #0
 80030e2:	bf4c      	ite	mi
 80030e4:	9304      	strmi	r3, [sp, #16]
 80030e6:	9302      	strpl	r3, [sp, #8]
 80030e8:	f1b8 0f00 	cmp.w	r8, #0
 80030ec:	910c      	str	r1, [sp, #48]	@ 0x30
 80030ee:	db18      	blt.n	8003122 <_dtoa_r+0x1f2>
 80030f0:	9b04      	ldr	r3, [sp, #16]
 80030f2:	f8cd 8028 	str.w	r8, [sp, #40]	@ 0x28
 80030f6:	4443      	add	r3, r8
 80030f8:	9304      	str	r3, [sp, #16]
 80030fa:	2300      	movs	r3, #0
 80030fc:	9a05      	ldr	r2, [sp, #20]
 80030fe:	2a09      	cmp	r2, #9
 8003100:	d845      	bhi.n	800318e <_dtoa_r+0x25e>
 8003102:	2a05      	cmp	r2, #5
 8003104:	bfc4      	itt	gt
 8003106:	3a04      	subgt	r2, #4
 8003108:	9205      	strgt	r2, [sp, #20]
 800310a:	9a05      	ldr	r2, [sp, #20]
 800310c:	f1a2 0202 	sub.w	r2, r2, #2
 8003110:	bfcc      	ite	gt
 8003112:	2400      	movgt	r4, #0
 8003114:	2401      	movle	r4, #1
 8003116:	2a03      	cmp	r2, #3
 8003118:	d844      	bhi.n	80031a4 <_dtoa_r+0x274>
 800311a:	e8df f002 	tbb	[pc, r2]
 800311e:	3634      	.short	0x3634
 8003120:	0b17      	.short	0x0b17
 8003122:	9b02      	ldr	r3, [sp, #8]
 8003124:	2200      	movs	r2, #0
 8003126:	eba3 0308 	sub.w	r3, r3, r8
 800312a:	9302      	str	r3, [sp, #8]
 800312c:	920a      	str	r2, [sp, #40]	@ 0x28
 800312e:	f1c8 0300 	rsb	r3, r8, #0
 8003132:	e7e3      	b.n	80030fc <_dtoa_r+0x1cc>
 8003134:	2201      	movs	r2, #1
 8003136:	9206      	str	r2, [sp, #24]
 8003138:	9a07      	ldr	r2, [sp, #28]
 800313a:	eb08 0b02 	add.w	fp, r8, r2
 800313e:	f10b 0a01 	add.w	sl, fp, #1
 8003142:	4652      	mov	r2, sl
 8003144:	2a01      	cmp	r2, #1
 8003146:	bfb8      	it	lt
 8003148:	2201      	movlt	r2, #1
 800314a:	e006      	b.n	800315a <_dtoa_r+0x22a>
 800314c:	2201      	movs	r2, #1
 800314e:	9206      	str	r2, [sp, #24]
 8003150:	9a07      	ldr	r2, [sp, #28]
 8003152:	2a00      	cmp	r2, #0
 8003154:	dd29      	ble.n	80031aa <_dtoa_r+0x27a>
 8003156:	4693      	mov	fp, r2
 8003158:	4692      	mov	sl, r2
 800315a:	f8d9 501c 	ldr.w	r5, [r9, #28]
 800315e:	2100      	movs	r1, #0
 8003160:	2004      	movs	r0, #4
 8003162:	f100 0614 	add.w	r6, r0, #20
 8003166:	4296      	cmp	r6, r2
 8003168:	d926      	bls.n	80031b8 <_dtoa_r+0x288>
 800316a:	6069      	str	r1, [r5, #4]
 800316c:	4648      	mov	r0, r9
 800316e:	9303      	str	r3, [sp, #12]
 8003170:	f000 fd28 	bl	8003bc4 <_Balloc>
 8003174:	9b03      	ldr	r3, [sp, #12]
 8003176:	4607      	mov	r7, r0
 8003178:	2800      	cmp	r0, #0
 800317a:	d13d      	bne.n	80031f8 <_dtoa_r+0x2c8>
 800317c:	4b1d      	ldr	r3, [pc, #116]	@ (80031f4 <_dtoa_r+0x2c4>)
 800317e:	4602      	mov	r2, r0
 8003180:	f240 11af 	movw	r1, #431	@ 0x1af
 8003184:	e6ed      	b.n	8002f62 <_dtoa_r+0x32>
 8003186:	2200      	movs	r2, #0
 8003188:	e7e1      	b.n	800314e <_dtoa_r+0x21e>
 800318a:	2200      	movs	r2, #0
 800318c:	e7d3      	b.n	8003136 <_dtoa_r+0x206>
 800318e:	2401      	movs	r4, #1
 8003190:	2200      	movs	r2, #0
 8003192:	e9cd 2405 	strd	r2, r4, [sp, #20]
 8003196:	f04f 3bff 	mov.w	fp, #4294967295
 800319a:	2100      	movs	r1, #0
 800319c:	46da      	mov	sl, fp
 800319e:	2212      	movs	r2, #18
 80031a0:	9107      	str	r1, [sp, #28]
 80031a2:	e7da      	b.n	800315a <_dtoa_r+0x22a>
 80031a4:	2201      	movs	r2, #1
 80031a6:	9206      	str	r2, [sp, #24]
 80031a8:	e7f5      	b.n	8003196 <_dtoa_r+0x266>
 80031aa:	f04f 0b01 	mov.w	fp, #1
 80031ae:	46da      	mov	sl, fp
 80031b0:	465a      	mov	r2, fp
 80031b2:	f8cd b01c 	str.w	fp, [sp, #28]
 80031b6:	e7d0      	b.n	800315a <_dtoa_r+0x22a>
 80031b8:	3101      	adds	r1, #1
 80031ba:	0040      	lsls	r0, r0, #1
 80031bc:	e7d1      	b.n	8003162 <_dtoa_r+0x232>
 80031be:	bf00      	nop
 80031c0:	636f4361 	.word	0x636f4361
 80031c4:	3fd287a7 	.word	0x3fd287a7
 80031c8:	8b60c8b3 	.word	0x8b60c8b3
 80031cc:	3fc68a28 	.word	0x3fc68a28
 80031d0:	509f79fb 	.word	0x509f79fb
 80031d4:	3fd34413 	.word	0x3fd34413
 80031d8:	08006b32 	.word	0x08006b32
 80031dc:	08006b49 	.word	0x08006b49
 80031e0:	7ff00000 	.word	0x7ff00000
 80031e4:	08006b2e 	.word	0x08006b2e
 80031e8:	08006afd 	.word	0x08006afd
 80031ec:	08006afc 	.word	0x08006afc
 80031f0:	08006cf8 	.word	0x08006cf8
 80031f4:	08006ba1 	.word	0x08006ba1
 80031f8:	f8d9 201c 	ldr.w	r2, [r9, #28]
 80031fc:	f1ba 0f0e 	cmp.w	sl, #14
 8003200:	6010      	str	r0, [r2, #0]
 8003202:	d860      	bhi.n	80032c6 <_dtoa_r+0x396>
 8003204:	2c00      	cmp	r4, #0
 8003206:	d05e      	beq.n	80032c6 <_dtoa_r+0x396>
 8003208:	f1b8 0f00 	cmp.w	r8, #0
 800320c:	f340 80a5 	ble.w	800335a <_dtoa_r+0x42a>
 8003210:	4abe      	ldr	r2, [pc, #760]	@ (800350c <_dtoa_r+0x5dc>)
 8003212:	f008 010f 	and.w	r1, r8, #15
 8003216:	eb02 02c1 	add.w	r2, r2, r1, lsl #3
 800321a:	f418 7f80 	tst.w	r8, #256	@ 0x100
 800321e:	ed92 6b00 	vldr	d6, [r2]
 8003222:	ea4f 1128 	mov.w	r1, r8, asr #4
 8003226:	f000 808a 	beq.w	800333e <_dtoa_r+0x40e>
 800322a:	4ab9      	ldr	r2, [pc, #740]	@ (8003510 <_dtoa_r+0x5e0>)
 800322c:	ed92 7b08 	vldr	d7, [r2, #32]
 8003230:	f001 010f 	and.w	r1, r1, #15
 8003234:	2203      	movs	r2, #3
 8003236:	ee88 5b07 	vdiv.f64	d5, d8, d7
 800323a:	48b5      	ldr	r0, [pc, #724]	@ (8003510 <_dtoa_r+0x5e0>)
 800323c:	2900      	cmp	r1, #0
 800323e:	f040 8082 	bne.w	8003346 <_dtoa_r+0x416>
 8003242:	ee85 7b06 	vdiv.f64	d7, d5, d6
 8003246:	990c      	ldr	r1, [sp, #48]	@ 0x30
 8003248:	2900      	cmp	r1, #0
 800324a:	f000 80ac 	beq.w	80033a6 <_dtoa_r+0x476>
 800324e:	eeb7 6b00 	vmov.f64	d6, #112	@ 0x3f800000  1.0
 8003252:	eeb4 7bc6 	vcmpe.f64	d7, d6
 8003256:	eef1 fa10 	vmrs	APSR_nzcv, fpscr
 800325a:	f140 80a4 	bpl.w	80033a6 <_dtoa_r+0x476>
 800325e:	f1ba 0f00 	cmp.w	sl, #0
 8003262:	f000 80a0 	beq.w	80033a6 <_dtoa_r+0x476>
 8003266:	f1bb 0f00 	cmp.w	fp, #0
 800326a:	dd2c      	ble.n	80032c6 <_dtoa_r+0x396>
 800326c:	eeb2 6b04 	vmov.f64	d6, #36	@ 0x41200000  10.0
 8003270:	ee27 7b06 	vmul.f64	d7, d7, d6
 8003274:	f108 31ff 	add.w	r1, r8, #4294967295
 8003278:	9103      	str	r1, [sp, #12]
 800327a:	3201      	adds	r2, #1
 800327c:	465e      	mov	r6, fp
 800327e:	ee06 2a90 	vmov	s13, r2
 8003282:	eeb1 5b0c 	vmov.f64	d5, #28	@ 0x40e00000  7.0
 8003286:	eeb8 6be6 	vcvt.f64.s32	d6, s13
 800328a:	eea6 5b07 	vfma.f64	d5, d6, d7
 800328e:	ee15 2a90 	vmov	r2, s11
 8003292:	ec51 0b15 	vmov	r0, r1, d5
 8003296:	f1a2 7150 	sub.w	r1, r2, #54525952	@ 0x3400000
 800329a:	ec41 0b16 	vmov	d6, r0, r1
 800329e:	2e00      	cmp	r6, #0
 80032a0:	f040 8085 	bne.w	80033ae <_dtoa_r+0x47e>
 80032a4:	eeb1 5b04 	vmov.f64	d5, #20	@ 0x40a00000  5.0
 80032a8:	ee37 7b45 	vsub.f64	d7, d7, d5
 80032ac:	eeb4 7bc6 	vcmpe.f64	d7, d6
 80032b0:	eef1 fa10 	vmrs	APSR_nzcv, fpscr
 80032b4:	f300 8263 	bgt.w	800377e <_dtoa_r+0x84e>
 80032b8:	eeb1 6b46 	vneg.f64	d6, d6
 80032bc:	eeb4 7bc6 	vcmpe.f64	d7, d6
 80032c0:	eef1 fa10 	vmrs	APSR_nzcv, fpscr
 80032c4:	d41f      	bmi.n	8003306 <_dtoa_r+0x3d6>
 80032c6:	9a0f      	ldr	r2, [sp, #60]	@ 0x3c
 80032c8:	2a00      	cmp	r2, #0
 80032ca:	f2c0 8123 	blt.w	8003514 <_dtoa_r+0x5e4>
 80032ce:	f1b8 0f0e 	cmp.w	r8, #14
 80032d2:	f300 811f 	bgt.w	8003514 <_dtoa_r+0x5e4>
 80032d6:	4b8d      	ldr	r3, [pc, #564]	@ (800350c <_dtoa_r+0x5dc>)
 80032d8:	eb03 03c8 	add.w	r3, r3, r8, lsl #3
 80032dc:	ed93 7b00 	vldr	d7, [r3]
 80032e0:	9b07      	ldr	r3, [sp, #28]
 80032e2:	2b00      	cmp	r3, #0
 80032e4:	f280 80c6 	bge.w	8003474 <_dtoa_r+0x544>
 80032e8:	f1ba 0f00 	cmp.w	sl, #0
 80032ec:	f300 80c2 	bgt.w	8003474 <_dtoa_r+0x544>
 80032f0:	d109      	bne.n	8003306 <_dtoa_r+0x3d6>
 80032f2:	eeb1 6b04 	vmov.f64	d6, #20	@ 0x40a00000  5.0
 80032f6:	ee27 7b06 	vmul.f64	d7, d7, d6
 80032fa:	eeb4 8bc7 	vcmpe.f64	d8, d7
 80032fe:	eef1 fa10 	vmrs	APSR_nzcv, fpscr
 8003302:	f200 8239 	bhi.w	8003778 <_dtoa_r+0x848>
 8003306:	2600      	movs	r6, #0
 8003308:	4634      	mov	r4, r6
 800330a:	9b07      	ldr	r3, [sp, #28]
 800330c:	43db      	mvns	r3, r3
 800330e:	9303      	str	r3, [sp, #12]
 8003310:	463d      	mov	r5, r7
 8003312:	46a0      	mov	r8, r4
 8003314:	2400      	movs	r4, #0
 8003316:	4631      	mov	r1, r6
 8003318:	4648      	mov	r0, r9
 800331a:	f000 fc91 	bl	8003c40 <_Bfree>
 800331e:	f1b8 0f00 	cmp.w	r8, #0
 8003322:	f000 80a1 	beq.w	8003468 <_dtoa_r+0x538>
 8003326:	b12c      	cbz	r4, 8003334 <_dtoa_r+0x404>
 8003328:	4544      	cmp	r4, r8
 800332a:	d003      	beq.n	8003334 <_dtoa_r+0x404>
 800332c:	4621      	mov	r1, r4
 800332e:	4648      	mov	r0, r9
 8003330:	f000 fc86 	bl	8003c40 <_Bfree>
 8003334:	4641      	mov	r1, r8
 8003336:	4648      	mov	r0, r9
 8003338:	f000 fc82 	bl	8003c40 <_Bfree>
 800333c:	e094      	b.n	8003468 <_dtoa_r+0x538>
 800333e:	2202      	movs	r2, #2
 8003340:	eeb0 5b48 	vmov.f64	d5, d8
 8003344:	e779      	b.n	800323a <_dtoa_r+0x30a>
 8003346:	07ce      	lsls	r6, r1, #31
 8003348:	d504      	bpl.n	8003354 <_dtoa_r+0x424>
 800334a:	ed90 7b00 	vldr	d7, [r0]
 800334e:	3201      	adds	r2, #1
 8003350:	ee26 6b07 	vmul.f64	d6, d6, d7
 8003354:	1049      	asrs	r1, r1, #1
 8003356:	3008      	adds	r0, #8
 8003358:	e770      	b.n	800323c <_dtoa_r+0x30c>
 800335a:	d020      	beq.n	800339e <_dtoa_r+0x46e>
 800335c:	f1c8 0100 	rsb	r1, r8, #0
 8003360:	4a6a      	ldr	r2, [pc, #424]	@ (800350c <_dtoa_r+0x5dc>)
 8003362:	f001 000f 	and.w	r0, r1, #15
 8003366:	eb02 02c0 	add.w	r2, r2, r0, lsl #3
 800336a:	ed92 7b00 	vldr	d7, [r2]
 800336e:	4868      	ldr	r0, [pc, #416]	@ (8003510 <_dtoa_r+0x5e0>)
 8003370:	ee28 7b07 	vmul.f64	d7, d8, d7
 8003374:	1109      	asrs	r1, r1, #4
 8003376:	2400      	movs	r4, #0
 8003378:	2202      	movs	r2, #2
 800337a:	eeb0 6b47 	vmov.f64	d6, d7
 800337e:	b919      	cbnz	r1, 8003388 <_dtoa_r+0x458>
 8003380:	2c00      	cmp	r4, #0
 8003382:	fe07 7b06 	vseleq.f64	d7, d7, d6
 8003386:	e75e      	b.n	8003246 <_dtoa_r+0x316>
 8003388:	07cd      	lsls	r5, r1, #31
 800338a:	d505      	bpl.n	8003398 <_dtoa_r+0x468>
 800338c:	ed90 5b00 	vldr	d5, [r0]
 8003390:	3201      	adds	r2, #1
 8003392:	2401      	movs	r4, #1
 8003394:	ee26 6b05 	vmul.f64	d6, d6, d5
 8003398:	1049      	asrs	r1, r1, #1
 800339a:	3008      	adds	r0, #8
 800339c:	e7ef      	b.n	800337e <_dtoa_r+0x44e>
 800339e:	2202      	movs	r2, #2
 80033a0:	eeb0 7b48 	vmov.f64	d7, d8
 80033a4:	e74f      	b.n	8003246 <_dtoa_r+0x316>
 80033a6:	f8cd 800c 	str.w	r8, [sp, #12]
 80033aa:	4656      	mov	r6, sl
 80033ac:	e767      	b.n	800327e <_dtoa_r+0x34e>
 80033ae:	4a57      	ldr	r2, [pc, #348]	@ (800350c <_dtoa_r+0x5dc>)
 80033b0:	eb02 02c6 	add.w	r2, r2, r6, lsl #3
 80033b4:	ed12 4b02 	vldr	d4, [r2, #-8]
 80033b8:	9a06      	ldr	r2, [sp, #24]
 80033ba:	19b9      	adds	r1, r7, r6
 80033bc:	b34a      	cbz	r2, 8003412 <_dtoa_r+0x4e2>
 80033be:	eeb6 3b00 	vmov.f64	d3, #96	@ 0x3f000000  0.5
 80033c2:	eeb7 2b00 	vmov.f64	d2, #112	@ 0x3f800000  1.0
 80033c6:	463d      	mov	r5, r7
 80033c8:	ee83 5b04 	vdiv.f64	d5, d3, d4
 80033cc:	eeb2 3b04 	vmov.f64	d3, #36	@ 0x41200000  10.0
 80033d0:	ee35 6b46 	vsub.f64	d6, d5, d6
 80033d4:	eefd 4bc7 	vcvt.s32.f64	s9, d7
 80033d8:	ee14 2a90 	vmov	r2, s9
 80033dc:	eeb8 5be4 	vcvt.f64.s32	d5, s9
 80033e0:	3230      	adds	r2, #48	@ 0x30
 80033e2:	ee37 7b45 	vsub.f64	d7, d7, d5
 80033e6:	eeb4 7bc6 	vcmpe.f64	d7, d6
 80033ea:	eef1 fa10 	vmrs	APSR_nzcv, fpscr
 80033ee:	f805 2b01 	strb.w	r2, [r5], #1
 80033f2:	d439      	bmi.n	8003468 <_dtoa_r+0x538>
 80033f4:	ee32 5b47 	vsub.f64	d5, d2, d7
 80033f8:	eeb4 5bc6 	vcmpe.f64	d5, d6
 80033fc:	eef1 fa10 	vmrs	APSR_nzcv, fpscr
 8003400:	d46d      	bmi.n	80034de <_dtoa_r+0x5ae>
 8003402:	428d      	cmp	r5, r1
 8003404:	f43f af5f 	beq.w	80032c6 <_dtoa_r+0x396>
 8003408:	ee26 6b03 	vmul.f64	d6, d6, d3
 800340c:	ee27 7b03 	vmul.f64	d7, d7, d3
 8003410:	e7e0      	b.n	80033d4 <_dtoa_r+0x4a4>
 8003412:	4638      	mov	r0, r7
 8003414:	ee24 5b06 	vmul.f64	d5, d4, d6
 8003418:	eeb2 3b04 	vmov.f64	d3, #36	@ 0x41200000  10.0
 800341c:	eefd 4bc7 	vcvt.s32.f64	s9, d7
 8003420:	ee14 2a90 	vmov	r2, s9
 8003424:	3230      	adds	r2, #48	@ 0x30
 8003426:	f800 2b01 	strb.w	r2, [r0], #1
 800342a:	4288      	cmp	r0, r1
 800342c:	eeb8 6be4 	vcvt.f64.s32	d6, s9
 8003430:	ee37 7b46 	vsub.f64	d7, d7, d6
 8003434:	d11b      	bne.n	800346e <_dtoa_r+0x53e>
 8003436:	eeb6 6b00 	vmov.f64	d6, #96	@ 0x3f000000  0.5
 800343a:	ee35 4b06 	vadd.f64	d4, d5, d6
 800343e:	eeb4 7bc4 	vcmpe.f64	d7, d4
 8003442:	eef1 fa10 	vmrs	APSR_nzcv, fpscr
 8003446:	eb07 0506 	add.w	r5, r7, r6
 800344a:	dc48      	bgt.n	80034de <_dtoa_r+0x5ae>
 800344c:	ee36 6b45 	vsub.f64	d6, d6, d5
 8003450:	eeb4 7bc6 	vcmpe.f64	d7, d6
 8003454:	eef1 fa10 	vmrs	APSR_nzcv, fpscr
 8003458:	f57f af35 	bpl.w	80032c6 <_dtoa_r+0x396>
 800345c:	462b      	mov	r3, r5
 800345e:	f815 2d01 	ldrb.w	r2, [r5, #-1]!
 8003462:	2a30      	cmp	r2, #48	@ 0x30
 8003464:	d0fa      	beq.n	800345c <_dtoa_r+0x52c>
 8003466:	461d      	mov	r5, r3
 8003468:	f8dd 800c 	ldr.w	r8, [sp, #12]
 800346c:	e025      	b.n	80034ba <_dtoa_r+0x58a>
 800346e:	ee27 7b03 	vmul.f64	d7, d7, d3
 8003472:	e7d3      	b.n	800341c <_dtoa_r+0x4ec>
 8003474:	463d      	mov	r5, r7
 8003476:	eeb2 5b04 	vmov.f64	d5, #36	@ 0x41200000  10.0
 800347a:	ee88 6b07 	vdiv.f64	d6, d8, d7
 800347e:	eebd 6bc6 	vcvt.s32.f64	s12, d6
 8003482:	ee16 3a10 	vmov	r3, s12
 8003486:	3330      	adds	r3, #48	@ 0x30
 8003488:	f805 3b01 	strb.w	r3, [r5], #1
 800348c:	1beb      	subs	r3, r5, r7
 800348e:	459a      	cmp	sl, r3
 8003490:	eeb8 4bc6 	vcvt.f64.s32	d4, s12
 8003494:	eea4 8b47 	vfms.f64	d8, d4, d7
 8003498:	d130      	bne.n	80034fc <_dtoa_r+0x5cc>
 800349a:	ee38 8b08 	vadd.f64	d8, d8, d8
 800349e:	eeb4 8bc7 	vcmpe.f64	d8, d7
 80034a2:	eef1 fa10 	vmrs	APSR_nzcv, fpscr
 80034a6:	dc18      	bgt.n	80034da <_dtoa_r+0x5aa>
 80034a8:	eeb4 8b47 	vcmp.f64	d8, d7
 80034ac:	eef1 fa10 	vmrs	APSR_nzcv, fpscr
 80034b0:	d103      	bne.n	80034ba <_dtoa_r+0x58a>
 80034b2:	ee16 3a10 	vmov	r3, s12
 80034b6:	07db      	lsls	r3, r3, #31
 80034b8:	d40f      	bmi.n	80034da <_dtoa_r+0x5aa>
 80034ba:	9901      	ldr	r1, [sp, #4]
 80034bc:	4648      	mov	r0, r9
 80034be:	f000 fbbf 	bl	8003c40 <_Bfree>
 80034c2:	2300      	movs	r3, #0
 80034c4:	9a0d      	ldr	r2, [sp, #52]	@ 0x34
 80034c6:	702b      	strb	r3, [r5, #0]
 80034c8:	f108 0301 	add.w	r3, r8, #1
 80034cc:	6013      	str	r3, [r2, #0]
 80034ce:	9b1d      	ldr	r3, [sp, #116]	@ 0x74
 80034d0:	2b00      	cmp	r3, #0
 80034d2:	f000 824d 	beq.w	8003970 <_dtoa_r+0xa40>
 80034d6:	601d      	str	r5, [r3, #0]
 80034d8:	e24a      	b.n	8003970 <_dtoa_r+0xa40>
 80034da:	f8cd 800c 	str.w	r8, [sp, #12]
 80034de:	462b      	mov	r3, r5
 80034e0:	461d      	mov	r5, r3
 80034e2:	f813 2d01 	ldrb.w	r2, [r3, #-1]!
 80034e6:	2a39      	cmp	r2, #57	@ 0x39
 80034e8:	d105      	bne.n	80034f6 <_dtoa_r+0x5c6>
 80034ea:	429f      	cmp	r7, r3
 80034ec:	d1f8      	bne.n	80034e0 <_dtoa_r+0x5b0>
 80034ee:	9a03      	ldr	r2, [sp, #12]
 80034f0:	3201      	adds	r2, #1
 80034f2:	9203      	str	r2, [sp, #12]
 80034f4:	2230      	movs	r2, #48	@ 0x30
 80034f6:	3201      	adds	r2, #1
 80034f8:	701a      	strb	r2, [r3, #0]
 80034fa:	e7b5      	b.n	8003468 <_dtoa_r+0x538>
 80034fc:	ee28 8b05 	vmul.f64	d8, d8, d5
 8003500:	eeb5 8b40 	vcmp.f64	d8, #0.0
 8003504:	eef1 fa10 	vmrs	APSR_nzcv, fpscr
 8003508:	d1b7      	bne.n	800347a <_dtoa_r+0x54a>
 800350a:	e7d6      	b.n	80034ba <_dtoa_r+0x58a>
 800350c:	08006cf8 	.word	0x08006cf8
 8003510:	08006cd0 	.word	0x08006cd0
 8003514:	9906      	ldr	r1, [sp, #24]
 8003516:	2900      	cmp	r1, #0
 8003518:	f000 80ea 	beq.w	80036f0 <_dtoa_r+0x7c0>
 800351c:	9905      	ldr	r1, [sp, #20]
 800351e:	2901      	cmp	r1, #1
 8003520:	f300 80cc 	bgt.w	80036bc <_dtoa_r+0x78c>
 8003524:	990b      	ldr	r1, [sp, #44]	@ 0x2c
 8003526:	2900      	cmp	r1, #0
 8003528:	f000 80c4 	beq.w	80036b4 <_dtoa_r+0x784>
 800352c:	f202 4233 	addw	r2, r2, #1075	@ 0x433
 8003530:	9d02      	ldr	r5, [sp, #8]
 8003532:	461e      	mov	r6, r3
 8003534:	9303      	str	r3, [sp, #12]
 8003536:	9b02      	ldr	r3, [sp, #8]
 8003538:	4413      	add	r3, r2
 800353a:	9302      	str	r3, [sp, #8]
 800353c:	9b04      	ldr	r3, [sp, #16]
 800353e:	2101      	movs	r1, #1
 8003540:	4413      	add	r3, r2
 8003542:	4648      	mov	r0, r9
 8003544:	9304      	str	r3, [sp, #16]
 8003546:	f000 fc79 	bl	8003e3c <__i2b>
 800354a:	9b03      	ldr	r3, [sp, #12]
 800354c:	4604      	mov	r4, r0
 800354e:	b165      	cbz	r5, 800356a <_dtoa_r+0x63a>
 8003550:	9a04      	ldr	r2, [sp, #16]
 8003552:	2a00      	cmp	r2, #0
 8003554:	dd09      	ble.n	800356a <_dtoa_r+0x63a>
 8003556:	42aa      	cmp	r2, r5
 8003558:	9902      	ldr	r1, [sp, #8]
 800355a:	bfa8      	it	ge
 800355c:	462a      	movge	r2, r5
 800355e:	1a89      	subs	r1, r1, r2
 8003560:	9102      	str	r1, [sp, #8]
 8003562:	9904      	ldr	r1, [sp, #16]
 8003564:	1aad      	subs	r5, r5, r2
 8003566:	1a8a      	subs	r2, r1, r2
 8003568:	9204      	str	r2, [sp, #16]
 800356a:	b30b      	cbz	r3, 80035b0 <_dtoa_r+0x680>
 800356c:	9a06      	ldr	r2, [sp, #24]
 800356e:	2a00      	cmp	r2, #0
 8003570:	f000 80c5 	beq.w	80036fe <_dtoa_r+0x7ce>
 8003574:	2e00      	cmp	r6, #0
 8003576:	f000 80bf 	beq.w	80036f8 <_dtoa_r+0x7c8>
 800357a:	4621      	mov	r1, r4
 800357c:	4632      	mov	r2, r6
 800357e:	4648      	mov	r0, r9
 8003580:	930b      	str	r3, [sp, #44]	@ 0x2c
 8003582:	f000 fd1b 	bl	8003fbc <__pow5mult>
 8003586:	9a01      	ldr	r2, [sp, #4]
 8003588:	4601      	mov	r1, r0
 800358a:	4604      	mov	r4, r0
 800358c:	4648      	mov	r0, r9
 800358e:	f000 fc6b 	bl	8003e68 <__multiply>
 8003592:	9901      	ldr	r1, [sp, #4]
 8003594:	9003      	str	r0, [sp, #12]
 8003596:	4648      	mov	r0, r9
 8003598:	f000 fb52 	bl	8003c40 <_Bfree>
 800359c:	9b0b      	ldr	r3, [sp, #44]	@ 0x2c
 800359e:	1b9b      	subs	r3, r3, r6
 80035a0:	f000 80b0 	beq.w	8003704 <_dtoa_r+0x7d4>
 80035a4:	9903      	ldr	r1, [sp, #12]
 80035a6:	461a      	mov	r2, r3
 80035a8:	4648      	mov	r0, r9
 80035aa:	f000 fd07 	bl	8003fbc <__pow5mult>
 80035ae:	9001      	str	r0, [sp, #4]
 80035b0:	2101      	movs	r1, #1
 80035b2:	4648      	mov	r0, r9
 80035b4:	f000 fc42 	bl	8003e3c <__i2b>
 80035b8:	9b0a      	ldr	r3, [sp, #40]	@ 0x28
 80035ba:	4606      	mov	r6, r0
 80035bc:	2b00      	cmp	r3, #0
 80035be:	f000 81dd 	beq.w	800397c <_dtoa_r+0xa4c>
 80035c2:	461a      	mov	r2, r3
 80035c4:	4601      	mov	r1, r0
 80035c6:	4648      	mov	r0, r9
 80035c8:	f000 fcf8 	bl	8003fbc <__pow5mult>
 80035cc:	9b05      	ldr	r3, [sp, #20]
 80035ce:	2b01      	cmp	r3, #1
 80035d0:	4606      	mov	r6, r0
 80035d2:	f300 80a0 	bgt.w	8003716 <_dtoa_r+0x7e6>
 80035d6:	9b08      	ldr	r3, [sp, #32]
 80035d8:	2b00      	cmp	r3, #0
 80035da:	f040 8096 	bne.w	800370a <_dtoa_r+0x7da>
 80035de:	9b09      	ldr	r3, [sp, #36]	@ 0x24
 80035e0:	f3c3 0213 	ubfx	r2, r3, #0, #20
 80035e4:	2a00      	cmp	r2, #0
 80035e6:	f040 8092 	bne.w	800370e <_dtoa_r+0x7de>
 80035ea:	f023 4200 	bic.w	r2, r3, #2147483648	@ 0x80000000
 80035ee:	0d12      	lsrs	r2, r2, #20
 80035f0:	0512      	lsls	r2, r2, #20
 80035f2:	2a00      	cmp	r2, #0
 80035f4:	f000 808d 	beq.w	8003712 <_dtoa_r+0x7e2>
 80035f8:	9b02      	ldr	r3, [sp, #8]
 80035fa:	3301      	adds	r3, #1
 80035fc:	9302      	str	r3, [sp, #8]
 80035fe:	9b04      	ldr	r3, [sp, #16]
 8003600:	3301      	adds	r3, #1
 8003602:	9304      	str	r3, [sp, #16]
 8003604:	2301      	movs	r3, #1
 8003606:	930b      	str	r3, [sp, #44]	@ 0x2c
 8003608:	9b0a      	ldr	r3, [sp, #40]	@ 0x28
 800360a:	2b00      	cmp	r3, #0
 800360c:	f000 81bc 	beq.w	8003988 <_dtoa_r+0xa58>
 8003610:	6932      	ldr	r2, [r6, #16]
 8003612:	eb06 0282 	add.w	r2, r6, r2, lsl #2
 8003616:	6910      	ldr	r0, [r2, #16]
 8003618:	f000 fbc4 	bl	8003da4 <__hi0bits>
 800361c:	f1c0 0020 	rsb	r0, r0, #32
 8003620:	9b04      	ldr	r3, [sp, #16]
 8003622:	4418      	add	r0, r3
 8003624:	f010 001f 	ands.w	r0, r0, #31
 8003628:	f000 8081 	beq.w	800372e <_dtoa_r+0x7fe>
 800362c:	f1c0 0220 	rsb	r2, r0, #32
 8003630:	2a04      	cmp	r2, #4
 8003632:	dd73      	ble.n	800371c <_dtoa_r+0x7ec>
 8003634:	9b02      	ldr	r3, [sp, #8]
 8003636:	f1c0 001c 	rsb	r0, r0, #28
 800363a:	4403      	add	r3, r0
 800363c:	9302      	str	r3, [sp, #8]
 800363e:	9b04      	ldr	r3, [sp, #16]
 8003640:	4405      	add	r5, r0
 8003642:	4403      	add	r3, r0
 8003644:	9304      	str	r3, [sp, #16]
 8003646:	9b02      	ldr	r3, [sp, #8]
 8003648:	2b00      	cmp	r3, #0
 800364a:	dd05      	ble.n	8003658 <_dtoa_r+0x728>
 800364c:	9901      	ldr	r1, [sp, #4]
 800364e:	461a      	mov	r2, r3
 8003650:	4648      	mov	r0, r9
 8003652:	f000 fd0f 	bl	8004074 <__lshift>
 8003656:	9001      	str	r0, [sp, #4]
 8003658:	9b04      	ldr	r3, [sp, #16]
 800365a:	2b00      	cmp	r3, #0
 800365c:	dd05      	ble.n	800366a <_dtoa_r+0x73a>
 800365e:	4631      	mov	r1, r6
 8003660:	461a      	mov	r2, r3
 8003662:	4648      	mov	r0, r9
 8003664:	f000 fd06 	bl	8004074 <__lshift>
 8003668:	4606      	mov	r6, r0
 800366a:	9b0c      	ldr	r3, [sp, #48]	@ 0x30
 800366c:	2b00      	cmp	r3, #0
 800366e:	d060      	beq.n	8003732 <_dtoa_r+0x802>
 8003670:	9801      	ldr	r0, [sp, #4]
 8003672:	4631      	mov	r1, r6
 8003674:	f000 fd6c 	bl	8004150 <__mcmp>
 8003678:	2800      	cmp	r0, #0
 800367a:	da5a      	bge.n	8003732 <_dtoa_r+0x802>
 800367c:	f108 33ff 	add.w	r3, r8, #4294967295
 8003680:	9303      	str	r3, [sp, #12]
 8003682:	9901      	ldr	r1, [sp, #4]
 8003684:	2300      	movs	r3, #0
 8003686:	220a      	movs	r2, #10
 8003688:	4648      	mov	r0, r9
 800368a:	f000 fafb 	bl	8003c84 <__multadd>
 800368e:	9b06      	ldr	r3, [sp, #24]
 8003690:	9001      	str	r0, [sp, #4]
 8003692:	2b00      	cmp	r3, #0
 8003694:	f000 817a 	beq.w	800398c <_dtoa_r+0xa5c>
 8003698:	4621      	mov	r1, r4
 800369a:	2300      	movs	r3, #0
 800369c:	220a      	movs	r2, #10
 800369e:	4648      	mov	r0, r9
 80036a0:	f000 faf0 	bl	8003c84 <__multadd>
 80036a4:	f1bb 0f00 	cmp.w	fp, #0
 80036a8:	4604      	mov	r4, r0
 80036aa:	dc6e      	bgt.n	800378a <_dtoa_r+0x85a>
 80036ac:	9b05      	ldr	r3, [sp, #20]
 80036ae:	2b02      	cmp	r3, #2
 80036b0:	dc48      	bgt.n	8003744 <_dtoa_r+0x814>
 80036b2:	e06a      	b.n	800378a <_dtoa_r+0x85a>
 80036b4:	9a0e      	ldr	r2, [sp, #56]	@ 0x38
 80036b6:	f1c2 0236 	rsb	r2, r2, #54	@ 0x36
 80036ba:	e739      	b.n	8003530 <_dtoa_r+0x600>
 80036bc:	f10a 36ff 	add.w	r6, sl, #4294967295
 80036c0:	42b3      	cmp	r3, r6
 80036c2:	db07      	blt.n	80036d4 <_dtoa_r+0x7a4>
 80036c4:	f1ba 0f00 	cmp.w	sl, #0
 80036c8:	eba3 0606 	sub.w	r6, r3, r6
 80036cc:	db0b      	blt.n	80036e6 <_dtoa_r+0x7b6>
 80036ce:	9d02      	ldr	r5, [sp, #8]
 80036d0:	4652      	mov	r2, sl
 80036d2:	e72f      	b.n	8003534 <_dtoa_r+0x604>
 80036d4:	1af2      	subs	r2, r6, r3
 80036d6:	9b0a      	ldr	r3, [sp, #40]	@ 0x28
 80036d8:	9d02      	ldr	r5, [sp, #8]
 80036da:	4413      	add	r3, r2
 80036dc:	930a      	str	r3, [sp, #40]	@ 0x28
 80036de:	4652      	mov	r2, sl
 80036e0:	4633      	mov	r3, r6
 80036e2:	2600      	movs	r6, #0
 80036e4:	e726      	b.n	8003534 <_dtoa_r+0x604>
 80036e6:	9a02      	ldr	r2, [sp, #8]
 80036e8:	eba2 050a 	sub.w	r5, r2, sl
 80036ec:	2200      	movs	r2, #0
 80036ee:	e721      	b.n	8003534 <_dtoa_r+0x604>
 80036f0:	9d02      	ldr	r5, [sp, #8]
 80036f2:	9c06      	ldr	r4, [sp, #24]
 80036f4:	461e      	mov	r6, r3
 80036f6:	e72a      	b.n	800354e <_dtoa_r+0x61e>
 80036f8:	9a01      	ldr	r2, [sp, #4]
 80036fa:	9203      	str	r2, [sp, #12]
 80036fc:	e752      	b.n	80035a4 <_dtoa_r+0x674>
 80036fe:	9901      	ldr	r1, [sp, #4]
 8003700:	461a      	mov	r2, r3
 8003702:	e751      	b.n	80035a8 <_dtoa_r+0x678>
 8003704:	9b03      	ldr	r3, [sp, #12]
 8003706:	9301      	str	r3, [sp, #4]
 8003708:	e752      	b.n	80035b0 <_dtoa_r+0x680>
 800370a:	2300      	movs	r3, #0
 800370c:	e77b      	b.n	8003606 <_dtoa_r+0x6d6>
 800370e:	9b08      	ldr	r3, [sp, #32]
 8003710:	e779      	b.n	8003606 <_dtoa_r+0x6d6>
 8003712:	920b      	str	r2, [sp, #44]	@ 0x2c
 8003714:	e778      	b.n	8003608 <_dtoa_r+0x6d8>
 8003716:	2300      	movs	r3, #0
 8003718:	930b      	str	r3, [sp, #44]	@ 0x2c
 800371a:	e779      	b.n	8003610 <_dtoa_r+0x6e0>
 800371c:	d093      	beq.n	8003646 <_dtoa_r+0x716>
 800371e:	9b02      	ldr	r3, [sp, #8]
 8003720:	321c      	adds	r2, #28
 8003722:	4413      	add	r3, r2
 8003724:	9302      	str	r3, [sp, #8]
 8003726:	9b04      	ldr	r3, [sp, #16]
 8003728:	4415      	add	r5, r2
 800372a:	4413      	add	r3, r2
 800372c:	e78a      	b.n	8003644 <_dtoa_r+0x714>
 800372e:	4602      	mov	r2, r0
 8003730:	e7f5      	b.n	800371e <_dtoa_r+0x7ee>
 8003732:	f1ba 0f00 	cmp.w	sl, #0
 8003736:	f8cd 800c 	str.w	r8, [sp, #12]
 800373a:	46d3      	mov	fp, sl
 800373c:	dc21      	bgt.n	8003782 <_dtoa_r+0x852>
 800373e:	9b05      	ldr	r3, [sp, #20]
 8003740:	2b02      	cmp	r3, #2
 8003742:	dd1e      	ble.n	8003782 <_dtoa_r+0x852>
 8003744:	f1bb 0f00 	cmp.w	fp, #0
 8003748:	f47f addf 	bne.w	800330a <_dtoa_r+0x3da>
 800374c:	4631      	mov	r1, r6
 800374e:	465b      	mov	r3, fp
 8003750:	2205      	movs	r2, #5
 8003752:	4648      	mov	r0, r9
 8003754:	f000 fa96 	bl	8003c84 <__multadd>
 8003758:	4601      	mov	r1, r0
 800375a:	4606      	mov	r6, r0
 800375c:	9801      	ldr	r0, [sp, #4]
 800375e:	f000 fcf7 	bl	8004150 <__mcmp>
 8003762:	2800      	cmp	r0, #0
 8003764:	f77f add1 	ble.w	800330a <_dtoa_r+0x3da>
 8003768:	463d      	mov	r5, r7
 800376a:	2331      	movs	r3, #49	@ 0x31
 800376c:	f805 3b01 	strb.w	r3, [r5], #1
 8003770:	9b03      	ldr	r3, [sp, #12]
 8003772:	3301      	adds	r3, #1
 8003774:	9303      	str	r3, [sp, #12]
 8003776:	e5cc      	b.n	8003312 <_dtoa_r+0x3e2>
 8003778:	f8cd 800c 	str.w	r8, [sp, #12]
 800377c:	4656      	mov	r6, sl
 800377e:	4634      	mov	r4, r6
 8003780:	e7f2      	b.n	8003768 <_dtoa_r+0x838>
 8003782:	9b06      	ldr	r3, [sp, #24]
 8003784:	2b00      	cmp	r3, #0
 8003786:	f000 8105 	beq.w	8003994 <_dtoa_r+0xa64>
 800378a:	2d00      	cmp	r5, #0
 800378c:	dd05      	ble.n	800379a <_dtoa_r+0x86a>
 800378e:	4621      	mov	r1, r4
 8003790:	462a      	mov	r2, r5
 8003792:	4648      	mov	r0, r9
 8003794:	f000 fc6e 	bl	8004074 <__lshift>
 8003798:	4604      	mov	r4, r0
 800379a:	9b0b      	ldr	r3, [sp, #44]	@ 0x2c
 800379c:	2b00      	cmp	r3, #0
 800379e:	d057      	beq.n	8003850 <_dtoa_r+0x920>
 80037a0:	6861      	ldr	r1, [r4, #4]
 80037a2:	4648      	mov	r0, r9
 80037a4:	f000 fa0e 	bl	8003bc4 <_Balloc>
 80037a8:	4605      	mov	r5, r0
 80037aa:	b928      	cbnz	r0, 80037b8 <_dtoa_r+0x888>
 80037ac:	4b83      	ldr	r3, [pc, #524]	@ (80039bc <_dtoa_r+0xa8c>)
 80037ae:	4602      	mov	r2, r0
 80037b0:	f240 21ef 	movw	r1, #751	@ 0x2ef
 80037b4:	f7ff bbd5 	b.w	8002f62 <_dtoa_r+0x32>
 80037b8:	6922      	ldr	r2, [r4, #16]
 80037ba:	3202      	adds	r2, #2
 80037bc:	0092      	lsls	r2, r2, #2
 80037be:	f104 010c 	add.w	r1, r4, #12
 80037c2:	300c      	adds	r0, #12
 80037c4:	f002 f8fe 	bl	80059c4 <memcpy>
 80037c8:	2201      	movs	r2, #1
 80037ca:	4629      	mov	r1, r5
 80037cc:	4648      	mov	r0, r9
 80037ce:	f000 fc51 	bl	8004074 <__lshift>
 80037d2:	4680      	mov	r8, r0
 80037d4:	1c7b      	adds	r3, r7, #1
 80037d6:	9302      	str	r3, [sp, #8]
 80037d8:	eb07 030b 	add.w	r3, r7, fp
 80037dc:	930a      	str	r3, [sp, #40]	@ 0x28
 80037de:	9b08      	ldr	r3, [sp, #32]
 80037e0:	f003 0301 	and.w	r3, r3, #1
 80037e4:	9307      	str	r3, [sp, #28]
 80037e6:	9b02      	ldr	r3, [sp, #8]
 80037e8:	9801      	ldr	r0, [sp, #4]
 80037ea:	4631      	mov	r1, r6
 80037ec:	f103 3bff 	add.w	fp, r3, #4294967295
 80037f0:	f7ff fb14 	bl	8002e1c <quorem>
 80037f4:	4621      	mov	r1, r4
 80037f6:	9004      	str	r0, [sp, #16]
 80037f8:	f100 0a30 	add.w	sl, r0, #48	@ 0x30
 80037fc:	9801      	ldr	r0, [sp, #4]
 80037fe:	f000 fca7 	bl	8004150 <__mcmp>
 8003802:	4642      	mov	r2, r8
 8003804:	9006      	str	r0, [sp, #24]
 8003806:	4631      	mov	r1, r6
 8003808:	4648      	mov	r0, r9
 800380a:	f000 fcbd 	bl	8004188 <__mdiff>
 800380e:	68c2      	ldr	r2, [r0, #12]
 8003810:	4605      	mov	r5, r0
 8003812:	b9fa      	cbnz	r2, 8003854 <_dtoa_r+0x924>
 8003814:	4601      	mov	r1, r0
 8003816:	9801      	ldr	r0, [sp, #4]
 8003818:	f000 fc9a 	bl	8004150 <__mcmp>
 800381c:	4602      	mov	r2, r0
 800381e:	4629      	mov	r1, r5
 8003820:	4648      	mov	r0, r9
 8003822:	9208      	str	r2, [sp, #32]
 8003824:	f000 fa0c 	bl	8003c40 <_Bfree>
 8003828:	9b05      	ldr	r3, [sp, #20]
 800382a:	9a08      	ldr	r2, [sp, #32]
 800382c:	9d02      	ldr	r5, [sp, #8]
 800382e:	ea42 0103 	orr.w	r1, r2, r3
 8003832:	9b07      	ldr	r3, [sp, #28]
 8003834:	4319      	orrs	r1, r3
 8003836:	d10f      	bne.n	8003858 <_dtoa_r+0x928>
 8003838:	f1ba 0f39 	cmp.w	sl, #57	@ 0x39
 800383c:	d028      	beq.n	8003890 <_dtoa_r+0x960>
 800383e:	9b06      	ldr	r3, [sp, #24]
 8003840:	2b00      	cmp	r3, #0
 8003842:	dd02      	ble.n	800384a <_dtoa_r+0x91a>
 8003844:	9b04      	ldr	r3, [sp, #16]
 8003846:	f103 0a31 	add.w	sl, r3, #49	@ 0x31
 800384a:	f88b a000 	strb.w	sl, [fp]
 800384e:	e562      	b.n	8003316 <_dtoa_r+0x3e6>
 8003850:	46a0      	mov	r8, r4
 8003852:	e7bf      	b.n	80037d4 <_dtoa_r+0x8a4>
 8003854:	2201      	movs	r2, #1
 8003856:	e7e2      	b.n	800381e <_dtoa_r+0x8ee>
 8003858:	9b06      	ldr	r3, [sp, #24]
 800385a:	2b00      	cmp	r3, #0
 800385c:	db04      	blt.n	8003868 <_dtoa_r+0x938>
 800385e:	9905      	ldr	r1, [sp, #20]
 8003860:	430b      	orrs	r3, r1
 8003862:	9907      	ldr	r1, [sp, #28]
 8003864:	430b      	orrs	r3, r1
 8003866:	d120      	bne.n	80038aa <_dtoa_r+0x97a>
 8003868:	2a00      	cmp	r2, #0
 800386a:	ddee      	ble.n	800384a <_dtoa_r+0x91a>
 800386c:	9901      	ldr	r1, [sp, #4]
 800386e:	2201      	movs	r2, #1
 8003870:	4648      	mov	r0, r9
 8003872:	f000 fbff 	bl	8004074 <__lshift>
 8003876:	4631      	mov	r1, r6
 8003878:	9001      	str	r0, [sp, #4]
 800387a:	f000 fc69 	bl	8004150 <__mcmp>
 800387e:	2800      	cmp	r0, #0
 8003880:	dc03      	bgt.n	800388a <_dtoa_r+0x95a>
 8003882:	d1e2      	bne.n	800384a <_dtoa_r+0x91a>
 8003884:	f01a 0f01 	tst.w	sl, #1
 8003888:	d0df      	beq.n	800384a <_dtoa_r+0x91a>
 800388a:	f1ba 0f39 	cmp.w	sl, #57	@ 0x39
 800388e:	d1d9      	bne.n	8003844 <_dtoa_r+0x914>
 8003890:	2339      	movs	r3, #57	@ 0x39
 8003892:	f88b 3000 	strb.w	r3, [fp]
 8003896:	462b      	mov	r3, r5
 8003898:	461d      	mov	r5, r3
 800389a:	3b01      	subs	r3, #1
 800389c:	f815 2c01 	ldrb.w	r2, [r5, #-1]
 80038a0:	2a39      	cmp	r2, #57	@ 0x39
 80038a2:	d056      	beq.n	8003952 <_dtoa_r+0xa22>
 80038a4:	3201      	adds	r2, #1
 80038a6:	701a      	strb	r2, [r3, #0]
 80038a8:	e535      	b.n	8003316 <_dtoa_r+0x3e6>
 80038aa:	2a00      	cmp	r2, #0
 80038ac:	dd07      	ble.n	80038be <_dtoa_r+0x98e>
 80038ae:	f1ba 0f39 	cmp.w	sl, #57	@ 0x39
 80038b2:	d0ed      	beq.n	8003890 <_dtoa_r+0x960>
 80038b4:	f10a 0301 	add.w	r3, sl, #1
 80038b8:	f88b 3000 	strb.w	r3, [fp]
 80038bc:	e52b      	b.n	8003316 <_dtoa_r+0x3e6>
 80038be:	9b02      	ldr	r3, [sp, #8]
 80038c0:	9a02      	ldr	r2, [sp, #8]
 80038c2:	f803 ac01 	strb.w	sl, [r3, #-1]
 80038c6:	9b0a      	ldr	r3, [sp, #40]	@ 0x28
 80038c8:	4293      	cmp	r3, r2
 80038ca:	d02c      	beq.n	8003926 <_dtoa_r+0x9f6>
 80038cc:	9901      	ldr	r1, [sp, #4]
 80038ce:	2300      	movs	r3, #0
 80038d0:	220a      	movs	r2, #10
 80038d2:	4648      	mov	r0, r9
 80038d4:	f000 f9d6 	bl	8003c84 <__multadd>
 80038d8:	4544      	cmp	r4, r8
 80038da:	9001      	str	r0, [sp, #4]
 80038dc:	f04f 0300 	mov.w	r3, #0
 80038e0:	f04f 020a 	mov.w	r2, #10
 80038e4:	4621      	mov	r1, r4
 80038e6:	4648      	mov	r0, r9
 80038e8:	d107      	bne.n	80038fa <_dtoa_r+0x9ca>
 80038ea:	f000 f9cb 	bl	8003c84 <__multadd>
 80038ee:	4604      	mov	r4, r0
 80038f0:	4680      	mov	r8, r0
 80038f2:	9b02      	ldr	r3, [sp, #8]
 80038f4:	3301      	adds	r3, #1
 80038f6:	9302      	str	r3, [sp, #8]
 80038f8:	e775      	b.n	80037e6 <_dtoa_r+0x8b6>
 80038fa:	f000 f9c3 	bl	8003c84 <__multadd>
 80038fe:	4641      	mov	r1, r8
 8003900:	4604      	mov	r4, r0
 8003902:	2300      	movs	r3, #0
 8003904:	220a      	movs	r2, #10
 8003906:	4648      	mov	r0, r9
 8003908:	f000 f9bc 	bl	8003c84 <__multadd>
 800390c:	4680      	mov	r8, r0
 800390e:	e7f0      	b.n	80038f2 <_dtoa_r+0x9c2>
 8003910:	f1bb 0f00 	cmp.w	fp, #0
 8003914:	f10b 35ff 	add.w	r5, fp, #4294967295
 8003918:	f107 0201 	add.w	r2, r7, #1
 800391c:	bfd8      	it	le
 800391e:	2500      	movle	r5, #0
 8003920:	46a0      	mov	r8, r4
 8003922:	4415      	add	r5, r2
 8003924:	2400      	movs	r4, #0
 8003926:	9901      	ldr	r1, [sp, #4]
 8003928:	2201      	movs	r2, #1
 800392a:	4648      	mov	r0, r9
 800392c:	f000 fba2 	bl	8004074 <__lshift>
 8003930:	4631      	mov	r1, r6
 8003932:	9001      	str	r0, [sp, #4]
 8003934:	f000 fc0c 	bl	8004150 <__mcmp>
 8003938:	2800      	cmp	r0, #0
 800393a:	dcac      	bgt.n	8003896 <_dtoa_r+0x966>
 800393c:	d102      	bne.n	8003944 <_dtoa_r+0xa14>
 800393e:	f01a 0f01 	tst.w	sl, #1
 8003942:	d1a8      	bne.n	8003896 <_dtoa_r+0x966>
 8003944:	462b      	mov	r3, r5
 8003946:	461d      	mov	r5, r3
 8003948:	f813 2d01 	ldrb.w	r2, [r3, #-1]!
 800394c:	2a30      	cmp	r2, #48	@ 0x30
 800394e:	d0fa      	beq.n	8003946 <_dtoa_r+0xa16>
 8003950:	e4e1      	b.n	8003316 <_dtoa_r+0x3e6>
 8003952:	429f      	cmp	r7, r3
 8003954:	d1a0      	bne.n	8003898 <_dtoa_r+0x968>
 8003956:	9b03      	ldr	r3, [sp, #12]
 8003958:	3301      	adds	r3, #1
 800395a:	9303      	str	r3, [sp, #12]
 800395c:	2331      	movs	r3, #49	@ 0x31
 800395e:	703b      	strb	r3, [r7, #0]
 8003960:	e4d9      	b.n	8003316 <_dtoa_r+0x3e6>
 8003962:	9b1d      	ldr	r3, [sp, #116]	@ 0x74
 8003964:	4f16      	ldr	r7, [pc, #88]	@ (80039c0 <_dtoa_r+0xa90>)
 8003966:	b11b      	cbz	r3, 8003970 <_dtoa_r+0xa40>
 8003968:	f107 0308 	add.w	r3, r7, #8
 800396c:	9a1d      	ldr	r2, [sp, #116]	@ 0x74
 800396e:	6013      	str	r3, [r2, #0]
 8003970:	4638      	mov	r0, r7
 8003972:	b011      	add	sp, #68	@ 0x44
 8003974:	ecbd 8b02 	vpop	{d8}
 8003978:	e8bd 8ff0 	ldmia.w	sp!, {r4, r5, r6, r7, r8, r9, sl, fp, pc}
 800397c:	9b05      	ldr	r3, [sp, #20]
 800397e:	2b01      	cmp	r3, #1
 8003980:	f77f ae29 	ble.w	80035d6 <_dtoa_r+0x6a6>
 8003984:	9b0a      	ldr	r3, [sp, #40]	@ 0x28
 8003986:	930b      	str	r3, [sp, #44]	@ 0x2c
 8003988:	2001      	movs	r0, #1
 800398a:	e649      	b.n	8003620 <_dtoa_r+0x6f0>
 800398c:	f1bb 0f00 	cmp.w	fp, #0
 8003990:	f77f aed5 	ble.w	800373e <_dtoa_r+0x80e>
 8003994:	463d      	mov	r5, r7
 8003996:	9801      	ldr	r0, [sp, #4]
 8003998:	4631      	mov	r1, r6
 800399a:	f7ff fa3f 	bl	8002e1c <quorem>
 800399e:	f100 0a30 	add.w	sl, r0, #48	@ 0x30
 80039a2:	f805 ab01 	strb.w	sl, [r5], #1
 80039a6:	1bea      	subs	r2, r5, r7
 80039a8:	4593      	cmp	fp, r2
 80039aa:	ddb1      	ble.n	8003910 <_dtoa_r+0x9e0>
 80039ac:	9901      	ldr	r1, [sp, #4]
 80039ae:	2300      	movs	r3, #0
 80039b0:	220a      	movs	r2, #10
 80039b2:	4648      	mov	r0, r9
 80039b4:	f000 f966 	bl	8003c84 <__multadd>
 80039b8:	9001      	str	r0, [sp, #4]
 80039ba:	e7ec      	b.n	8003996 <_dtoa_r+0xa66>
 80039bc:	08006ba1 	.word	0x08006ba1
 80039c0:	08006b25 	.word	0x08006b25

080039c4 <_free_r>:
 80039c4:	b538      	push	{r3, r4, r5, lr}
 80039c6:	4605      	mov	r5, r0
 80039c8:	2900      	cmp	r1, #0
 80039ca:	d041      	beq.n	8003a50 <_free_r+0x8c>
 80039cc:	f851 3c04 	ldr.w	r3, [r1, #-4]
 80039d0:	1f0c      	subs	r4, r1, #4
 80039d2:	2b00      	cmp	r3, #0
 80039d4:	bfb8      	it	lt
 80039d6:	18e4      	addlt	r4, r4, r3
 80039d8:	f000 f8e8 	bl	8003bac <__malloc_lock>
 80039dc:	4a1d      	ldr	r2, [pc, #116]	@ (8003a54 <_free_r+0x90>)
 80039de:	6813      	ldr	r3, [r2, #0]
 80039e0:	b933      	cbnz	r3, 80039f0 <_free_r+0x2c>
 80039e2:	6063      	str	r3, [r4, #4]
 80039e4:	6014      	str	r4, [r2, #0]
 80039e6:	4628      	mov	r0, r5
 80039e8:	e8bd 4038 	ldmia.w	sp!, {r3, r4, r5, lr}
 80039ec:	f000 b8e4 	b.w	8003bb8 <__malloc_unlock>
 80039f0:	42a3      	cmp	r3, r4
 80039f2:	d908      	bls.n	8003a06 <_free_r+0x42>
 80039f4:	6820      	ldr	r0, [r4, #0]
 80039f6:	1821      	adds	r1, r4, r0
 80039f8:	428b      	cmp	r3, r1
 80039fa:	bf01      	itttt	eq
 80039fc:	6819      	ldreq	r1, [r3, #0]
 80039fe:	685b      	ldreq	r3, [r3, #4]
 8003a00:	1809      	addeq	r1, r1, r0
 8003a02:	6021      	streq	r1, [r4, #0]
 8003a04:	e7ed      	b.n	80039e2 <_free_r+0x1e>
 8003a06:	461a      	mov	r2, r3
 8003a08:	685b      	ldr	r3, [r3, #4]
 8003a0a:	b10b      	cbz	r3, 8003a10 <_free_r+0x4c>
 8003a0c:	42a3      	cmp	r3, r4
 8003a0e:	d9fa      	bls.n	8003a06 <_free_r+0x42>
 8003a10:	6811      	ldr	r1, [r2, #0]
 8003a12:	1850      	adds	r0, r2, r1
 8003a14:	42a0      	cmp	r0, r4
 8003a16:	d10b      	bne.n	8003a30 <_free_r+0x6c>
 8003a18:	6820      	ldr	r0, [r4, #0]
 8003a1a:	4401      	add	r1, r0
 8003a1c:	1850      	adds	r0, r2, r1
 8003a1e:	4283      	cmp	r3, r0
 8003a20:	6011      	str	r1, [r2, #0]
 8003a22:	d1e0      	bne.n	80039e6 <_free_r+0x22>
 8003a24:	6818      	ldr	r0, [r3, #0]
 8003a26:	685b      	ldr	r3, [r3, #4]
 8003a28:	6053      	str	r3, [r2, #4]
 8003a2a:	4408      	add	r0, r1
 8003a2c:	6010      	str	r0, [r2, #0]
 8003a2e:	e7da      	b.n	80039e6 <_free_r+0x22>
 8003a30:	d902      	bls.n	8003a38 <_free_r+0x74>
 8003a32:	230c      	movs	r3, #12
 8003a34:	602b      	str	r3, [r5, #0]
 8003a36:	e7d6      	b.n	80039e6 <_free_r+0x22>
 8003a38:	6820      	ldr	r0, [r4, #0]
 8003a3a:	1821      	adds	r1, r4, r0
 8003a3c:	428b      	cmp	r3, r1
 8003a3e:	bf04      	itt	eq
 8003a40:	6819      	ldreq	r1, [r3, #0]
 8003a42:	685b      	ldreq	r3, [r3, #4]
 8003a44:	6063      	str	r3, [r4, #4]
 8003a46:	bf04      	itt	eq
 8003a48:	1809      	addeq	r1, r1, r0
 8003a4a:	6021      	streq	r1, [r4, #0]
 8003a4c:	6054      	str	r4, [r2, #4]
 8003a4e:	e7ca      	b.n	80039e6 <_free_r+0x22>
 8003a50:	bd38      	pop	{r3, r4, r5, pc}
 8003a52:	bf00      	nop
 8003a54:	2000051c 	.word	0x2000051c

08003a58 <malloc>:
 8003a58:	4b02      	ldr	r3, [pc, #8]	@ (8003a64 <malloc+0xc>)
 8003a5a:	4601      	mov	r1, r0
 8003a5c:	6818      	ldr	r0, [r3, #0]
 8003a5e:	f000 b825 	b.w	8003aac <_malloc_r>
 8003a62:	bf00      	nop
 8003a64:	2000001c 	.word	0x2000001c

08003a68 <sbrk_aligned>:
 8003a68:	b570      	push	{r4, r5, r6, lr}
 8003a6a:	4e0f      	ldr	r6, [pc, #60]	@ (8003aa8 <sbrk_aligned+0x40>)
 8003a6c:	460c      	mov	r4, r1
 8003a6e:	6831      	ldr	r1, [r6, #0]
 8003a70:	4605      	mov	r5, r0
 8003a72:	b911      	cbnz	r1, 8003a7a <sbrk_aligned+0x12>
 8003a74:	f001 ff96 	bl	80059a4 <_sbrk_r>
 8003a78:	6030      	str	r0, [r6, #0]
 8003a7a:	4621      	mov	r1, r4
 8003a7c:	4628      	mov	r0, r5
 8003a7e:	f001 ff91 	bl	80059a4 <_sbrk_r>
 8003a82:	1c43      	adds	r3, r0, #1
 8003a84:	d103      	bne.n	8003a8e <sbrk_aligned+0x26>
 8003a86:	f04f 34ff 	mov.w	r4, #4294967295
 8003a8a:	4620      	mov	r0, r4
 8003a8c:	bd70      	pop	{r4, r5, r6, pc}
 8003a8e:	1cc4      	adds	r4, r0, #3
 8003a90:	f024 0403 	bic.w	r4, r4, #3
 8003a94:	42a0      	cmp	r0, r4
 8003a96:	d0f8      	beq.n	8003a8a <sbrk_aligned+0x22>
 8003a98:	1a21      	subs	r1, r4, r0
 8003a9a:	4628      	mov	r0, r5
 8003a9c:	f001 ff82 	bl	80059a4 <_sbrk_r>
 8003aa0:	3001      	adds	r0, #1
 8003aa2:	d1f2      	bne.n	8003a8a <sbrk_aligned+0x22>
 8003aa4:	e7ef      	b.n	8003a86 <sbrk_aligned+0x1e>
 8003aa6:	bf00      	nop
 8003aa8:	20000518 	.word	0x20000518

08003aac <_malloc_r>:
 8003aac:	e92d 43f8 	stmdb	sp!, {r3, r4, r5, r6, r7, r8, r9, lr}
 8003ab0:	1ccd      	adds	r5, r1, #3
 8003ab2:	f025 0503 	bic.w	r5, r5, #3
 8003ab6:	3508      	adds	r5, #8
 8003ab8:	2d0c      	cmp	r5, #12
 8003aba:	bf38      	it	cc
 8003abc:	250c      	movcc	r5, #12
 8003abe:	2d00      	cmp	r5, #0
 8003ac0:	4606      	mov	r6, r0
 8003ac2:	db01      	blt.n	8003ac8 <_malloc_r+0x1c>
 8003ac4:	42a9      	cmp	r1, r5
 8003ac6:	d904      	bls.n	8003ad2 <_malloc_r+0x26>
 8003ac8:	230c      	movs	r3, #12
 8003aca:	6033      	str	r3, [r6, #0]
 8003acc:	2000      	movs	r0, #0
 8003ace:	e8bd 83f8 	ldmia.w	sp!, {r3, r4, r5, r6, r7, r8, r9, pc}
 8003ad2:	f8df 80d4 	ldr.w	r8, [pc, #212]	@ 8003ba8 <_malloc_r+0xfc>
 8003ad6:	f000 f869 	bl	8003bac <__malloc_lock>
 8003ada:	f8d8 3000 	ldr.w	r3, [r8]
 8003ade:	461c      	mov	r4, r3
 8003ae0:	bb44      	cbnz	r4, 8003b34 <_malloc_r+0x88>
 8003ae2:	4629      	mov	r1, r5
 8003ae4:	4630      	mov	r0, r6
 8003ae6:	f7ff ffbf 	bl	8003a68 <sbrk_aligned>
 8003aea:	1c43      	adds	r3, r0, #1
 8003aec:	4604      	mov	r4, r0
 8003aee:	d158      	bne.n	8003ba2 <_malloc_r+0xf6>
 8003af0:	f8d8 4000 	ldr.w	r4, [r8]
 8003af4:	4627      	mov	r7, r4
 8003af6:	2f00      	cmp	r7, #0
 8003af8:	d143      	bne.n	8003b82 <_malloc_r+0xd6>
 8003afa:	2c00      	cmp	r4, #0
 8003afc:	d04b      	beq.n	8003b96 <_malloc_r+0xea>
 8003afe:	6823      	ldr	r3, [r4, #0]
 8003b00:	4639      	mov	r1, r7
 8003b02:	4630      	mov	r0, r6
 8003b04:	eb04 0903 	add.w	r9, r4, r3
 8003b08:	f001 ff4c 	bl	80059a4 <_sbrk_r>
 8003b0c:	4581      	cmp	r9, r0
 8003b0e:	d142      	bne.n	8003b96 <_malloc_r+0xea>
 8003b10:	6821      	ldr	r1, [r4, #0]
 8003b12:	1a6d      	subs	r5, r5, r1
 8003b14:	4629      	mov	r1, r5
 8003b16:	4630      	mov	r0, r6
 8003b18:	f7ff ffa6 	bl	8003a68 <sbrk_aligned>
 8003b1c:	3001      	adds	r0, #1
 8003b1e:	d03a      	beq.n	8003b96 <_malloc_r+0xea>
 8003b20:	6823      	ldr	r3, [r4, #0]
 8003b22:	442b      	add	r3, r5
 8003b24:	6023      	str	r3, [r4, #0]
 8003b26:	f8d8 3000 	ldr.w	r3, [r8]
 8003b2a:	685a      	ldr	r2, [r3, #4]
 8003b2c:	bb62      	cbnz	r2, 8003b88 <_malloc_r+0xdc>
 8003b2e:	f8c8 7000 	str.w	r7, [r8]
 8003b32:	e00f      	b.n	8003b54 <_malloc_r+0xa8>
 8003b34:	6822      	ldr	r2, [r4, #0]
 8003b36:	1b52      	subs	r2, r2, r5
 8003b38:	d420      	bmi.n	8003b7c <_malloc_r+0xd0>
 8003b3a:	2a0b      	cmp	r2, #11
 8003b3c:	d917      	bls.n	8003b6e <_malloc_r+0xc2>
 8003b3e:	1961      	adds	r1, r4, r5
 8003b40:	42a3      	cmp	r3, r4
 8003b42:	6025      	str	r5, [r4, #0]
 8003b44:	bf18      	it	ne
 8003b46:	6059      	strne	r1, [r3, #4]
 8003b48:	6863      	ldr	r3, [r4, #4]
 8003b4a:	bf08      	it	eq
 8003b4c:	f8c8 1000 	streq.w	r1, [r8]
 8003b50:	5162      	str	r2, [r4, r5]
 8003b52:	604b      	str	r3, [r1, #4]
 8003b54:	4630      	mov	r0, r6
 8003b56:	f000 f82f 	bl	8003bb8 <__malloc_unlock>
 8003b5a:	f104 000b 	add.w	r0, r4, #11
 8003b5e:	1d23      	adds	r3, r4, #4
 8003b60:	f020 0007 	bic.w	r0, r0, #7
 8003b64:	1ac2      	subs	r2, r0, r3
 8003b66:	bf1c      	itt	ne
 8003b68:	1a1b      	subne	r3, r3, r0
 8003b6a:	50a3      	strne	r3, [r4, r2]
 8003b6c:	e7af      	b.n	8003ace <_malloc_r+0x22>
 8003b6e:	6862      	ldr	r2, [r4, #4]
 8003b70:	42a3      	cmp	r3, r4
 8003b72:	bf0c      	ite	eq
 8003b74:	f8c8 2000 	streq.w	r2, [r8]
 8003b78:	605a      	strne	r2, [r3, #4]
 8003b7a:	e7eb      	b.n	8003b54 <_malloc_r+0xa8>
 8003b7c:	4623      	mov	r3, r4
 8003b7e:	6864      	ldr	r4, [r4, #4]
 8003b80:	e7ae      	b.n	8003ae0 <_malloc_r+0x34>
 8003b82:	463c      	mov	r4, r7
 8003b84:	687f      	ldr	r7, [r7, #4]
 8003b86:	e7b6      	b.n	8003af6 <_malloc_r+0x4a>
 8003b88:	461a      	mov	r2, r3
 8003b8a:	685b      	ldr	r3, [r3, #4]
 8003b8c:	42a3      	cmp	r3, r4
 8003b8e:	d1fb      	bne.n	8003b88 <_malloc_r+0xdc>
 8003b90:	2300      	movs	r3, #0
 8003b92:	6053      	str	r3, [r2, #4]
 8003b94:	e7de      	b.n	8003b54 <_malloc_r+0xa8>
 8003b96:	230c      	movs	r3, #12
 8003b98:	6033      	str	r3, [r6, #0]
 8003b9a:	4630      	mov	r0, r6
 8003b9c:	f000 f80c 	bl	8003bb8 <__malloc_unlock>
 8003ba0:	e794      	b.n	8003acc <_malloc_r+0x20>
 8003ba2:	6005      	str	r5, [r0, #0]
 8003ba4:	e7d6      	b.n	8003b54 <_malloc_r+0xa8>
 8003ba6:	bf00      	nop
 8003ba8:	2000051c 	.word	0x2000051c

08003bac <__malloc_lock>:
 8003bac:	4801      	ldr	r0, [pc, #4]	@ (8003bb4 <__malloc_lock+0x8>)
 8003bae:	f7ff b92c 	b.w	8002e0a <__retarget_lock_acquire_recursive>
 8003bb2:	bf00      	nop
 8003bb4:	20000514 	.word	0x20000514

08003bb8 <__malloc_unlock>:
 8003bb8:	4801      	ldr	r0, [pc, #4]	@ (8003bc0 <__malloc_unlock+0x8>)
 8003bba:	f7ff b927 	b.w	8002e0c <__retarget_lock_release_recursive>
 8003bbe:	bf00      	nop
 8003bc0:	20000514 	.word	0x20000514

08003bc4 <_Balloc>:
 8003bc4:	b570      	push	{r4, r5, r6, lr}
 8003bc6:	69c4      	ldr	r4, [r0, #28]
 8003bc8:	4605      	mov	r5, r0
 8003bca:	460e      	mov	r6, r1
 8003bcc:	b984      	cbnz	r4, 8003bf0 <_Balloc+0x2c>
 8003bce:	2010      	movs	r0, #16
 8003bd0:	f7ff ff42 	bl	8003a58 <malloc>
 8003bd4:	4604      	mov	r4, r0
 8003bd6:	61e8      	str	r0, [r5, #28]
 8003bd8:	b928      	cbnz	r0, 8003be6 <_Balloc+0x22>
 8003bda:	4602      	mov	r2, r0
 8003bdc:	4b16      	ldr	r3, [pc, #88]	@ (8003c38 <_Balloc+0x74>)
 8003bde:	4817      	ldr	r0, [pc, #92]	@ (8003c3c <_Balloc+0x78>)
 8003be0:	216b      	movs	r1, #107	@ 0x6b
 8003be2:	f001 ff05 	bl	80059f0 <__assert_func>
 8003be6:	2300      	movs	r3, #0
 8003be8:	e9c0 3301 	strd	r3, r3, [r0, #4]
 8003bec:	6003      	str	r3, [r0, #0]
 8003bee:	60c3      	str	r3, [r0, #12]
 8003bf0:	68e3      	ldr	r3, [r4, #12]
 8003bf2:	b953      	cbnz	r3, 8003c0a <_Balloc+0x46>
 8003bf4:	2221      	movs	r2, #33	@ 0x21
 8003bf6:	2104      	movs	r1, #4
 8003bf8:	4628      	mov	r0, r5
 8003bfa:	f001 ff17 	bl	8005a2c <_calloc_r>
 8003bfe:	69eb      	ldr	r3, [r5, #28]
 8003c00:	60e0      	str	r0, [r4, #12]
 8003c02:	68db      	ldr	r3, [r3, #12]
 8003c04:	b90b      	cbnz	r3, 8003c0a <_Balloc+0x46>
 8003c06:	2000      	movs	r0, #0
 8003c08:	bd70      	pop	{r4, r5, r6, pc}
 8003c0a:	f853 0026 	ldr.w	r0, [r3, r6, lsl #2]
 8003c0e:	b130      	cbz	r0, 8003c1e <_Balloc+0x5a>
 8003c10:	6802      	ldr	r2, [r0, #0]
 8003c12:	f843 2026 	str.w	r2, [r3, r6, lsl #2]
 8003c16:	2300      	movs	r3, #0
 8003c18:	e9c0 3303 	strd	r3, r3, [r0, #12]
 8003c1c:	e7f4      	b.n	8003c08 <_Balloc+0x44>
 8003c1e:	2101      	movs	r1, #1
 8003c20:	fa01 f406 	lsl.w	r4, r1, r6
 8003c24:	1d62      	adds	r2, r4, #5
 8003c26:	0092      	lsls	r2, r2, #2
 8003c28:	4628      	mov	r0, r5
 8003c2a:	f001 feff 	bl	8005a2c <_calloc_r>
 8003c2e:	2800      	cmp	r0, #0
 8003c30:	d0e9      	beq.n	8003c06 <_Balloc+0x42>
 8003c32:	e9c0 6401 	strd	r6, r4, [r0, #4]
 8003c36:	e7ee      	b.n	8003c16 <_Balloc+0x52>
 8003c38:	08006b32 	.word	0x08006b32
 8003c3c:	08006bb2 	.word	0x08006bb2

08003c40 <_Bfree>:
 8003c40:	b570      	push	{r4, r5, r6, lr}
 8003c42:	69c6      	ldr	r6, [r0, #28]
 8003c44:	4605      	mov	r5, r0
 8003c46:	460c      	mov	r4, r1
 8003c48:	b976      	cbnz	r6, 8003c68 <_Bfree+0x28>
 8003c4a:	2010      	movs	r0, #16
 8003c4c:	f7ff ff04 	bl	8003a58 <malloc>
 8003c50:	4602      	mov	r2, r0
 8003c52:	61e8      	str	r0, [r5, #28]
 8003c54:	b920      	cbnz	r0, 8003c60 <_Bfree+0x20>
 8003c56:	4b09      	ldr	r3, [pc, #36]	@ (8003c7c <_Bfree+0x3c>)
 8003c58:	4809      	ldr	r0, [pc, #36]	@ (8003c80 <_Bfree+0x40>)
 8003c5a:	218f      	movs	r1, #143	@ 0x8f
 8003c5c:	f001 fec8 	bl	80059f0 <__assert_func>
 8003c60:	e9c0 6601 	strd	r6, r6, [r0, #4]
 8003c64:	6006      	str	r6, [r0, #0]
 8003c66:	60c6      	str	r6, [r0, #12]
 8003c68:	b13c      	cbz	r4, 8003c7a <_Bfree+0x3a>
 8003c6a:	69eb      	ldr	r3, [r5, #28]
 8003c6c:	6862      	ldr	r2, [r4, #4]
 8003c6e:	68db      	ldr	r3, [r3, #12]
 8003c70:	f853 1022 	ldr.w	r1, [r3, r2, lsl #2]
 8003c74:	6021      	str	r1, [r4, #0]
 8003c76:	f843 4022 	str.w	r4, [r3, r2, lsl #2]
 8003c7a:	bd70      	pop	{r4, r5, r6, pc}
 8003c7c:	08006b32 	.word	0x08006b32
 8003c80:	08006bb2 	.word	0x08006bb2

08003c84 <__multadd>:
 8003c84:	e92d 41f0 	stmdb	sp!, {r4, r5, r6, r7, r8, lr}
 8003c88:	690d      	ldr	r5, [r1, #16]
 8003c8a:	4607      	mov	r7, r0
 8003c8c:	460c      	mov	r4, r1
 8003c8e:	461e      	mov	r6, r3
 8003c90:	f101 0c14 	add.w	ip, r1, #20
 8003c94:	2000      	movs	r0, #0
 8003c96:	f8dc 3000 	ldr.w	r3, [ip]
 8003c9a:	b299      	uxth	r1, r3
 8003c9c:	fb02 6101 	mla	r1, r2, r1, r6
 8003ca0:	0c1e      	lsrs	r6, r3, #16
 8003ca2:	0c0b      	lsrs	r3, r1, #16
 8003ca4:	fb02 3306 	mla	r3, r2, r6, r3
 8003ca8:	b289      	uxth	r1, r1
 8003caa:	3001      	adds	r0, #1
 8003cac:	eb01 4103 	add.w	r1, r1, r3, lsl #16
 8003cb0:	4285      	cmp	r5, r0
 8003cb2:	f84c 1b04 	str.w	r1, [ip], #4
 8003cb6:	ea4f 4613 	mov.w	r6, r3, lsr #16
 8003cba:	dcec      	bgt.n	8003c96 <__multadd+0x12>
 8003cbc:	b30e      	cbz	r6, 8003d02 <__multadd+0x7e>
 8003cbe:	68a3      	ldr	r3, [r4, #8]
 8003cc0:	42ab      	cmp	r3, r5
 8003cc2:	dc19      	bgt.n	8003cf8 <__multadd+0x74>
 8003cc4:	6861      	ldr	r1, [r4, #4]
 8003cc6:	4638      	mov	r0, r7
 8003cc8:	3101      	adds	r1, #1
 8003cca:	f7ff ff7b 	bl	8003bc4 <_Balloc>
 8003cce:	4680      	mov	r8, r0
 8003cd0:	b928      	cbnz	r0, 8003cde <__multadd+0x5a>
 8003cd2:	4602      	mov	r2, r0
 8003cd4:	4b0c      	ldr	r3, [pc, #48]	@ (8003d08 <__multadd+0x84>)
 8003cd6:	480d      	ldr	r0, [pc, #52]	@ (8003d0c <__multadd+0x88>)
 8003cd8:	21ba      	movs	r1, #186	@ 0xba
 8003cda:	f001 fe89 	bl	80059f0 <__assert_func>
 8003cde:	6922      	ldr	r2, [r4, #16]
 8003ce0:	3202      	adds	r2, #2
 8003ce2:	f104 010c 	add.w	r1, r4, #12
 8003ce6:	0092      	lsls	r2, r2, #2
 8003ce8:	300c      	adds	r0, #12
 8003cea:	f001 fe6b 	bl	80059c4 <memcpy>
 8003cee:	4621      	mov	r1, r4
 8003cf0:	4638      	mov	r0, r7
 8003cf2:	f7ff ffa5 	bl	8003c40 <_Bfree>
 8003cf6:	4644      	mov	r4, r8
 8003cf8:	eb04 0385 	add.w	r3, r4, r5, lsl #2
 8003cfc:	3501      	adds	r5, #1
 8003cfe:	615e      	str	r6, [r3, #20]
 8003d00:	6125      	str	r5, [r4, #16]
 8003d02:	4620      	mov	r0, r4
 8003d04:	e8bd 81f0 	ldmia.w	sp!, {r4, r5, r6, r7, r8, pc}
 8003d08:	08006ba1 	.word	0x08006ba1
 8003d0c:	08006bb2 	.word	0x08006bb2

08003d10 <__s2b>:
 8003d10:	e92d 43f8 	stmdb	sp!, {r3, r4, r5, r6, r7, r8, r9, lr}
 8003d14:	460c      	mov	r4, r1
 8003d16:	4615      	mov	r5, r2
 8003d18:	461f      	mov	r7, r3
 8003d1a:	2209      	movs	r2, #9
 8003d1c:	3308      	adds	r3, #8
 8003d1e:	4606      	mov	r6, r0
 8003d20:	fb93 f3f2 	sdiv	r3, r3, r2
 8003d24:	2100      	movs	r1, #0
 8003d26:	2201      	movs	r2, #1
 8003d28:	429a      	cmp	r2, r3
 8003d2a:	db09      	blt.n	8003d40 <__s2b+0x30>
 8003d2c:	4630      	mov	r0, r6
 8003d2e:	f7ff ff49 	bl	8003bc4 <_Balloc>
 8003d32:	b940      	cbnz	r0, 8003d46 <__s2b+0x36>
 8003d34:	4602      	mov	r2, r0
 8003d36:	4b19      	ldr	r3, [pc, #100]	@ (8003d9c <__s2b+0x8c>)
 8003d38:	4819      	ldr	r0, [pc, #100]	@ (8003da0 <__s2b+0x90>)
 8003d3a:	21d3      	movs	r1, #211	@ 0xd3
 8003d3c:	f001 fe58 	bl	80059f0 <__assert_func>
 8003d40:	0052      	lsls	r2, r2, #1
 8003d42:	3101      	adds	r1, #1
 8003d44:	e7f0      	b.n	8003d28 <__s2b+0x18>
 8003d46:	9b08      	ldr	r3, [sp, #32]
 8003d48:	6143      	str	r3, [r0, #20]
 8003d4a:	2d09      	cmp	r5, #9
 8003d4c:	f04f 0301 	mov.w	r3, #1
 8003d50:	6103      	str	r3, [r0, #16]
 8003d52:	dd16      	ble.n	8003d82 <__s2b+0x72>
 8003d54:	f104 0809 	add.w	r8, r4, #9
 8003d58:	46c1      	mov	r9, r8
 8003d5a:	442c      	add	r4, r5
 8003d5c:	f819 3b01 	ldrb.w	r3, [r9], #1
 8003d60:	4601      	mov	r1, r0
 8003d62:	3b30      	subs	r3, #48	@ 0x30
 8003d64:	220a      	movs	r2, #10
 8003d66:	4630      	mov	r0, r6
 8003d68:	f7ff ff8c 	bl	8003c84 <__multadd>
 8003d6c:	45a1      	cmp	r9, r4
 8003d6e:	d1f5      	bne.n	8003d5c <__s2b+0x4c>
 8003d70:	44a8      	add	r8, r5
 8003d72:	f1a8 0408 	sub.w	r4, r8, #8
 8003d76:	1b2d      	subs	r5, r5, r4
 8003d78:	1963      	adds	r3, r4, r5
 8003d7a:	429f      	cmp	r7, r3
 8003d7c:	dc04      	bgt.n	8003d88 <__s2b+0x78>
 8003d7e:	e8bd 83f8 	ldmia.w	sp!, {r3, r4, r5, r6, r7, r8, r9, pc}
 8003d82:	340a      	adds	r4, #10
 8003d84:	2509      	movs	r5, #9
 8003d86:	e7f6      	b.n	8003d76 <__s2b+0x66>
 8003d88:	f814 3b01 	ldrb.w	r3, [r4], #1
 8003d8c:	4601      	mov	r1, r0
 8003d8e:	3b30      	subs	r3, #48	@ 0x30
 8003d90:	220a      	movs	r2, #10
 8003d92:	4630      	mov	r0, r6
 8003d94:	f7ff ff76 	bl	8003c84 <__multadd>
 8003d98:	e7ee      	b.n	8003d78 <__s2b+0x68>
 8003d9a:	bf00      	nop
 8003d9c:	08006ba1 	.word	0x08006ba1
 8003da0:	08006bb2 	.word	0x08006bb2

08003da4 <__hi0bits>:
 8003da4:	f5b0 3f80 	cmp.w	r0, #65536	@ 0x10000
 8003da8:	4603      	mov	r3, r0
 8003daa:	bf36      	itet	cc
 8003dac:	0403      	lslcc	r3, r0, #16
 8003dae:	2000      	movcs	r0, #0
 8003db0:	2010      	movcc	r0, #16
 8003db2:	f1b3 7f80 	cmp.w	r3, #16777216	@ 0x1000000
 8003db6:	bf3c      	itt	cc
 8003db8:	021b      	lslcc	r3, r3, #8
 8003dba:	3008      	addcc	r0, #8
 8003dbc:	f1b3 5f80 	cmp.w	r3, #268435456	@ 0x10000000
 8003dc0:	bf3c      	itt	cc
 8003dc2:	011b      	lslcc	r3, r3, #4
 8003dc4:	3004      	addcc	r0, #4
 8003dc6:	f1b3 4f80 	cmp.w	r3, #1073741824	@ 0x40000000
 8003dca:	bf3c      	itt	cc
 8003dcc:	009b      	lslcc	r3, r3, #2
 8003dce:	3002      	addcc	r0, #2
 8003dd0:	2b00      	cmp	r3, #0
 8003dd2:	db05      	blt.n	8003de0 <__hi0bits+0x3c>
 8003dd4:	f013 4f80 	tst.w	r3, #1073741824	@ 0x40000000
 8003dd8:	f100 0001 	add.w	r0, r0, #1
 8003ddc:	bf08      	it	eq
 8003dde:	2020      	moveq	r0, #32
 8003de0:	4770      	bx	lr

08003de2 <__lo0bits>:
 8003de2:	6803      	ldr	r3, [r0, #0]
 8003de4:	4602      	mov	r2, r0
 8003de6:	f013 0007 	ands.w	r0, r3, #7
 8003dea:	d00b      	beq.n	8003e04 <__lo0bits+0x22>
 8003dec:	07d9      	lsls	r1, r3, #31
 8003dee:	d421      	bmi.n	8003e34 <__lo0bits+0x52>
 8003df0:	0798      	lsls	r0, r3, #30
 8003df2:	bf49      	itett	mi
 8003df4:	085b      	lsrmi	r3, r3, #1
 8003df6:	089b      	lsrpl	r3, r3, #2
 8003df8:	2001      	movmi	r0, #1
 8003dfa:	6013      	strmi	r3, [r2, #0]
 8003dfc:	bf5c      	itt	pl
 8003dfe:	6013      	strpl	r3, [r2, #0]
 8003e00:	2002      	movpl	r0, #2
 8003e02:	4770      	bx	lr
 8003e04:	b299      	uxth	r1, r3
 8003e06:	b909      	cbnz	r1, 8003e0c <__lo0bits+0x2a>
 8003e08:	0c1b      	lsrs	r3, r3, #16
 8003e0a:	2010      	movs	r0, #16
 8003e0c:	b2d9      	uxtb	r1, r3
 8003e0e:	b909      	cbnz	r1, 8003e14 <__lo0bits+0x32>
 8003e10:	3008      	adds	r0, #8
 8003e12:	0a1b      	lsrs	r3, r3, #8
 8003e14:	0719      	lsls	r1, r3, #28
 8003e16:	bf04      	itt	eq
 8003e18:	091b      	lsreq	r3, r3, #4
 8003e1a:	3004      	addeq	r0, #4
 8003e1c:	0799      	lsls	r1, r3, #30
 8003e1e:	bf04      	itt	eq
 8003e20:	089b      	lsreq	r3, r3, #2
 8003e22:	3002      	addeq	r0, #2
 8003e24:	07d9      	lsls	r1, r3, #31
 8003e26:	d403      	bmi.n	8003e30 <__lo0bits+0x4e>
 8003e28:	085b      	lsrs	r3, r3, #1
 8003e2a:	f100 0001 	add.w	r0, r0, #1
 8003e2e:	d003      	beq.n	8003e38 <__lo0bits+0x56>
 8003e30:	6013      	str	r3, [r2, #0]
 8003e32:	4770      	bx	lr
 8003e34:	2000      	movs	r0, #0
 8003e36:	4770      	bx	lr
 8003e38:	2020      	movs	r0, #32
 8003e3a:	4770      	bx	lr

08003e3c <__i2b>:
 8003e3c:	b510      	push	{r4, lr}
 8003e3e:	460c      	mov	r4, r1
 8003e40:	2101      	movs	r1, #1
 8003e42:	f7ff febf 	bl	8003bc4 <_Balloc>
 8003e46:	4602      	mov	r2, r0
 8003e48:	b928      	cbnz	r0, 8003e56 <__i2b+0x1a>
 8003e4a:	4b05      	ldr	r3, [pc, #20]	@ (8003e60 <__i2b+0x24>)
 8003e4c:	4805      	ldr	r0, [pc, #20]	@ (8003e64 <__i2b+0x28>)
 8003e4e:	f240 1145 	movw	r1, #325	@ 0x145
 8003e52:	f001 fdcd 	bl	80059f0 <__assert_func>
 8003e56:	2301      	movs	r3, #1
 8003e58:	6144      	str	r4, [r0, #20]
 8003e5a:	6103      	str	r3, [r0, #16]
 8003e5c:	bd10      	pop	{r4, pc}
 8003e5e:	bf00      	nop
 8003e60:	08006ba1 	.word	0x08006ba1
 8003e64:	08006bb2 	.word	0x08006bb2

08003e68 <__multiply>:
 8003e68:	e92d 4ff0 	stmdb	sp!, {r4, r5, r6, r7, r8, r9, sl, fp, lr}
 8003e6c:	f8d1 9010 	ldr.w	r9, [r1, #16]
 8003e70:	f8d2 a010 	ldr.w	sl, [r2, #16]
 8003e74:	45d1      	cmp	r9, sl
 8003e76:	b085      	sub	sp, #20
 8003e78:	4688      	mov	r8, r1
 8003e7a:	4614      	mov	r4, r2
 8003e7c:	db04      	blt.n	8003e88 <__multiply+0x20>
 8003e7e:	4653      	mov	r3, sl
 8003e80:	460c      	mov	r4, r1
 8003e82:	46ca      	mov	sl, r9
 8003e84:	4690      	mov	r8, r2
 8003e86:	4699      	mov	r9, r3
 8003e88:	68a3      	ldr	r3, [r4, #8]
 8003e8a:	6861      	ldr	r1, [r4, #4]
 8003e8c:	eb0a 0609 	add.w	r6, sl, r9
 8003e90:	42b3      	cmp	r3, r6
 8003e92:	bfb8      	it	lt
 8003e94:	3101      	addlt	r1, #1
 8003e96:	f7ff fe95 	bl	8003bc4 <_Balloc>
 8003e9a:	b930      	cbnz	r0, 8003eaa <__multiply+0x42>
 8003e9c:	4602      	mov	r2, r0
 8003e9e:	4b45      	ldr	r3, [pc, #276]	@ (8003fb4 <__multiply+0x14c>)
 8003ea0:	4845      	ldr	r0, [pc, #276]	@ (8003fb8 <__multiply+0x150>)
 8003ea2:	f44f 71b1 	mov.w	r1, #354	@ 0x162
 8003ea6:	f001 fda3 	bl	80059f0 <__assert_func>
 8003eaa:	f100 0514 	add.w	r5, r0, #20
 8003eae:	eb05 0786 	add.w	r7, r5, r6, lsl #2
 8003eb2:	462b      	mov	r3, r5
 8003eb4:	2200      	movs	r2, #0
 8003eb6:	42bb      	cmp	r3, r7
 8003eb8:	d31f      	bcc.n	8003efa <__multiply+0x92>
 8003eba:	f104 0c14 	add.w	ip, r4, #20
 8003ebe:	f108 0114 	add.w	r1, r8, #20
 8003ec2:	eb0c 038a 	add.w	r3, ip, sl, lsl #2
 8003ec6:	eb01 0289 	add.w	r2, r1, r9, lsl #2
 8003eca:	9202      	str	r2, [sp, #8]
 8003ecc:	1b1a      	subs	r2, r3, r4
 8003ece:	3a15      	subs	r2, #21
 8003ed0:	f022 0203 	bic.w	r2, r2, #3
 8003ed4:	3415      	adds	r4, #21
 8003ed6:	429c      	cmp	r4, r3
 8003ed8:	bf88      	it	hi
 8003eda:	2200      	movhi	r2, #0
 8003edc:	9201      	str	r2, [sp, #4]
 8003ede:	9a02      	ldr	r2, [sp, #8]
 8003ee0:	9103      	str	r1, [sp, #12]
 8003ee2:	428a      	cmp	r2, r1
 8003ee4:	d80c      	bhi.n	8003f00 <__multiply+0x98>
 8003ee6:	2e00      	cmp	r6, #0
 8003ee8:	dd03      	ble.n	8003ef2 <__multiply+0x8a>
 8003eea:	f857 3d04 	ldr.w	r3, [r7, #-4]!
 8003eee:	2b00      	cmp	r3, #0
 8003ef0:	d05d      	beq.n	8003fae <__multiply+0x146>
 8003ef2:	6106      	str	r6, [r0, #16]
 8003ef4:	b005      	add	sp, #20
 8003ef6:	e8bd 8ff0 	ldmia.w	sp!, {r4, r5, r6, r7, r8, r9, sl, fp, pc}
 8003efa:	f843 2b04 	str.w	r2, [r3], #4
 8003efe:	e7da      	b.n	8003eb6 <__multiply+0x4e>
 8003f00:	f8b1 a000 	ldrh.w	sl, [r1]
 8003f04:	f1ba 0f00 	cmp.w	sl, #0
 8003f08:	d024      	beq.n	8003f54 <__multiply+0xec>
 8003f0a:	46e0      	mov	r8, ip
 8003f0c:	46a9      	mov	r9, r5
 8003f0e:	f04f 0e00 	mov.w	lr, #0
 8003f12:	f858 2b04 	ldr.w	r2, [r8], #4
 8003f16:	f8d9 4000 	ldr.w	r4, [r9]
 8003f1a:	fa1f fb82 	uxth.w	fp, r2
 8003f1e:	b2a4      	uxth	r4, r4
 8003f20:	fb0a 440b 	mla	r4, sl, fp, r4
 8003f24:	ea4f 4b12 	mov.w	fp, r2, lsr #16
 8003f28:	f8d9 2000 	ldr.w	r2, [r9]
 8003f2c:	4474      	add	r4, lr
 8003f2e:	ea4f 4e12 	mov.w	lr, r2, lsr #16
 8003f32:	fb0a e20b 	mla	r2, sl, fp, lr
 8003f36:	eb02 4214 	add.w	r2, r2, r4, lsr #16
 8003f3a:	b2a4      	uxth	r4, r4
 8003f3c:	ea44 4402 	orr.w	r4, r4, r2, lsl #16
 8003f40:	4543      	cmp	r3, r8
 8003f42:	f849 4b04 	str.w	r4, [r9], #4
 8003f46:	ea4f 4e12 	mov.w	lr, r2, lsr #16
 8003f4a:	d8e2      	bhi.n	8003f12 <__multiply+0xaa>
 8003f4c:	9a01      	ldr	r2, [sp, #4]
 8003f4e:	18aa      	adds	r2, r5, r2
 8003f50:	f8c2 e004 	str.w	lr, [r2, #4]
 8003f54:	9a03      	ldr	r2, [sp, #12]
 8003f56:	f8b2 8002 	ldrh.w	r8, [r2, #2]
 8003f5a:	3104      	adds	r1, #4
 8003f5c:	f1b8 0f00 	cmp.w	r8, #0
 8003f60:	d023      	beq.n	8003faa <__multiply+0x142>
 8003f62:	682a      	ldr	r2, [r5, #0]
 8003f64:	46e6      	mov	lr, ip
 8003f66:	4691      	mov	r9, r2
 8003f68:	46aa      	mov	sl, r5
 8003f6a:	f04f 0b00 	mov.w	fp, #0
 8003f6e:	f8be 4000 	ldrh.w	r4, [lr]
 8003f72:	fb08 b404 	mla	r4, r8, r4, fp
 8003f76:	eb04 4419 	add.w	r4, r4, r9, lsr #16
 8003f7a:	b292      	uxth	r2, r2
 8003f7c:	ea42 4204 	orr.w	r2, r2, r4, lsl #16
 8003f80:	f84a 2b04 	str.w	r2, [sl], #4
 8003f84:	f85e 2b04 	ldr.w	r2, [lr], #4
 8003f88:	f8da 9000 	ldr.w	r9, [sl]
 8003f8c:	ea4f 4b12 	mov.w	fp, r2, lsr #16
 8003f90:	fa1f f289 	uxth.w	r2, r9
 8003f94:	fb08 220b 	mla	r2, r8, fp, r2
 8003f98:	eb02 4214 	add.w	r2, r2, r4, lsr #16
 8003f9c:	4573      	cmp	r3, lr
 8003f9e:	ea4f 4b12 	mov.w	fp, r2, lsr #16
 8003fa2:	d8e4      	bhi.n	8003f6e <__multiply+0x106>
 8003fa4:	9c01      	ldr	r4, [sp, #4]
 8003fa6:	192c      	adds	r4, r5, r4
 8003fa8:	6062      	str	r2, [r4, #4]
 8003faa:	3504      	adds	r5, #4
 8003fac:	e797      	b.n	8003ede <__multiply+0x76>
 8003fae:	3e01      	subs	r6, #1
 8003fb0:	e799      	b.n	8003ee6 <__multiply+0x7e>
 8003fb2:	bf00      	nop
 8003fb4:	08006ba1 	.word	0x08006ba1
 8003fb8:	08006bb2 	.word	0x08006bb2

08003fbc <__pow5mult>:
 8003fbc:	e92d 43f8 	stmdb	sp!, {r3, r4, r5, r6, r7, r8, r9, lr}
 8003fc0:	4617      	mov	r7, r2
 8003fc2:	f012 0203 	ands.w	r2, r2, #3
 8003fc6:	4680      	mov	r8, r0
 8003fc8:	460d      	mov	r5, r1
 8003fca:	d007      	beq.n	8003fdc <__pow5mult+0x20>
 8003fcc:	4c26      	ldr	r4, [pc, #152]	@ (8004068 <__pow5mult+0xac>)
 8003fce:	3a01      	subs	r2, #1
 8003fd0:	2300      	movs	r3, #0
 8003fd2:	f854 2022 	ldr.w	r2, [r4, r2, lsl #2]
 8003fd6:	f7ff fe55 	bl	8003c84 <__multadd>
 8003fda:	4605      	mov	r5, r0
 8003fdc:	10bf      	asrs	r7, r7, #2
 8003fde:	d03f      	beq.n	8004060 <__pow5mult+0xa4>
 8003fe0:	f8d8 401c 	ldr.w	r4, [r8, #28]
 8003fe4:	b994      	cbnz	r4, 800400c <__pow5mult+0x50>
 8003fe6:	2010      	movs	r0, #16
 8003fe8:	f7ff fd36 	bl	8003a58 <malloc>
 8003fec:	4604      	mov	r4, r0
 8003fee:	f8c8 001c 	str.w	r0, [r8, #28]
 8003ff2:	b930      	cbnz	r0, 8004002 <__pow5mult+0x46>
 8003ff4:	4602      	mov	r2, r0
 8003ff6:	4b1d      	ldr	r3, [pc, #116]	@ (800406c <__pow5mult+0xb0>)
 8003ff8:	481d      	ldr	r0, [pc, #116]	@ (8004070 <__pow5mult+0xb4>)
 8003ffa:	f240 11b3 	movw	r1, #435	@ 0x1b3
 8003ffe:	f001 fcf7 	bl	80059f0 <__assert_func>
 8004002:	2300      	movs	r3, #0
 8004004:	e9c0 3301 	strd	r3, r3, [r0, #4]
 8004008:	6003      	str	r3, [r0, #0]
 800400a:	60c3      	str	r3, [r0, #12]
 800400c:	68a6      	ldr	r6, [r4, #8]
 800400e:	b946      	cbnz	r6, 8004022 <__pow5mult+0x66>
 8004010:	f240 2171 	movw	r1, #625	@ 0x271
 8004014:	4640      	mov	r0, r8
 8004016:	f7ff ff11 	bl	8003e3c <__i2b>
 800401a:	2300      	movs	r3, #0
 800401c:	60a0      	str	r0, [r4, #8]
 800401e:	4606      	mov	r6, r0
 8004020:	6003      	str	r3, [r0, #0]
 8004022:	462c      	mov	r4, r5
 8004024:	f04f 0900 	mov.w	r9, #0
 8004028:	f007 0301 	and.w	r3, r7, #1
 800402c:	107f      	asrs	r7, r7, #1
 800402e:	b153      	cbz	r3, 8004046 <__pow5mult+0x8a>
 8004030:	4629      	mov	r1, r5
 8004032:	4632      	mov	r2, r6
 8004034:	4640      	mov	r0, r8
 8004036:	f7ff ff17 	bl	8003e68 <__multiply>
 800403a:	4621      	mov	r1, r4
 800403c:	4605      	mov	r5, r0
 800403e:	4640      	mov	r0, r8
 8004040:	f7ff fdfe 	bl	8003c40 <_Bfree>
 8004044:	b167      	cbz	r7, 8004060 <__pow5mult+0xa4>
 8004046:	6830      	ldr	r0, [r6, #0]
 8004048:	b938      	cbnz	r0, 800405a <__pow5mult+0x9e>
 800404a:	4632      	mov	r2, r6
 800404c:	4631      	mov	r1, r6
 800404e:	4640      	mov	r0, r8
 8004050:	f7ff ff0a 	bl	8003e68 <__multiply>
 8004054:	6030      	str	r0, [r6, #0]
 8004056:	f8c0 9000 	str.w	r9, [r0]
 800405a:	4606      	mov	r6, r0
 800405c:	462c      	mov	r4, r5
 800405e:	e7e3      	b.n	8004028 <__pow5mult+0x6c>
 8004060:	4628      	mov	r0, r5
 8004062:	e8bd 83f8 	ldmia.w	sp!, {r3, r4, r5, r6, r7, r8, r9, pc}
 8004066:	bf00      	nop
 8004068:	08006cc4 	.word	0x08006cc4
 800406c:	08006b32 	.word	0x08006b32
 8004070:	08006bb2 	.word	0x08006bb2

08004074 <__lshift>:
 8004074:	e92d 4ff8 	stmdb	sp!, {r3, r4, r5, r6, r7, r8, r9, sl, fp, lr}
 8004078:	460c      	mov	r4, r1
 800407a:	6849      	ldr	r1, [r1, #4]
 800407c:	6923      	ldr	r3, [r4, #16]
 800407e:	eb03 1862 	add.w	r8, r3, r2, asr #5
 8004082:	68a3      	ldr	r3, [r4, #8]
 8004084:	4607      	mov	r7, r0
 8004086:	4615      	mov	r5, r2
 8004088:	ea4f 1a62 	mov.w	sl, r2, asr #5
 800408c:	f108 0901 	add.w	r9, r8, #1
 8004090:	454b      	cmp	r3, r9
 8004092:	db0b      	blt.n	80040ac <__lshift+0x38>
 8004094:	4638      	mov	r0, r7
 8004096:	f7ff fd95 	bl	8003bc4 <_Balloc>
 800409a:	4606      	mov	r6, r0
 800409c:	b948      	cbnz	r0, 80040b2 <__lshift+0x3e>
 800409e:	4602      	mov	r2, r0
 80040a0:	4b29      	ldr	r3, [pc, #164]	@ (8004148 <__lshift+0xd4>)
 80040a2:	482a      	ldr	r0, [pc, #168]	@ (800414c <__lshift+0xd8>)
 80040a4:	f44f 71ef 	mov.w	r1, #478	@ 0x1de
 80040a8:	f001 fca2 	bl	80059f0 <__assert_func>
 80040ac:	3101      	adds	r1, #1
 80040ae:	005b      	lsls	r3, r3, #1
 80040b0:	e7ee      	b.n	8004090 <__lshift+0x1c>
 80040b2:	2300      	movs	r3, #0
 80040b4:	f100 0c14 	add.w	ip, r0, #20
 80040b8:	f100 0210 	add.w	r2, r0, #16
 80040bc:	4619      	mov	r1, r3
 80040be:	4553      	cmp	r3, sl
 80040c0:	db35      	blt.n	800412e <__lshift+0xba>
 80040c2:	6922      	ldr	r2, [r4, #16]
 80040c4:	ea2a 7aea 	bic.w	sl, sl, sl, asr #31
 80040c8:	eb0c 0c8a 	add.w	ip, ip, sl, lsl #2
 80040cc:	f104 0314 	add.w	r3, r4, #20
 80040d0:	f015 0e1f 	ands.w	lr, r5, #31
 80040d4:	4661      	mov	r1, ip
 80040d6:	eb03 0282 	add.w	r2, r3, r2, lsl #2
 80040da:	d02c      	beq.n	8004136 <__lshift+0xc2>
 80040dc:	f1ce 0a20 	rsb	sl, lr, #32
 80040e0:	2500      	movs	r5, #0
 80040e2:	6818      	ldr	r0, [r3, #0]
 80040e4:	468b      	mov	fp, r1
 80040e6:	fa00 f00e 	lsl.w	r0, r0, lr
 80040ea:	4328      	orrs	r0, r5
 80040ec:	f8cb 0000 	str.w	r0, [fp]
 80040f0:	f853 5b04 	ldr.w	r5, [r3], #4
 80040f4:	429a      	cmp	r2, r3
 80040f6:	f101 0104 	add.w	r1, r1, #4
 80040fa:	fa25 f50a 	lsr.w	r5, r5, sl
 80040fe:	d8f0      	bhi.n	80040e2 <__lshift+0x6e>
 8004100:	1b13      	subs	r3, r2, r4
 8004102:	3b15      	subs	r3, #21
 8004104:	f023 0303 	bic.w	r3, r3, #3
 8004108:	f104 0115 	add.w	r1, r4, #21
 800410c:	428a      	cmp	r2, r1
 800410e:	bf38      	it	cc
 8004110:	2300      	movcc	r3, #0
 8004112:	449c      	add	ip, r3
 8004114:	f8cc 5004 	str.w	r5, [ip, #4]
 8004118:	b905      	cbnz	r5, 800411c <__lshift+0xa8>
 800411a:	46c1      	mov	r9, r8
 800411c:	4638      	mov	r0, r7
 800411e:	f8c6 9010 	str.w	r9, [r6, #16]
 8004122:	4621      	mov	r1, r4
 8004124:	f7ff fd8c 	bl	8003c40 <_Bfree>
 8004128:	4630      	mov	r0, r6
 800412a:	e8bd 8ff8 	ldmia.w	sp!, {r3, r4, r5, r6, r7, r8, r9, sl, fp, pc}
 800412e:	f842 1f04 	str.w	r1, [r2, #4]!
 8004132:	3301      	adds	r3, #1
 8004134:	e7c3      	b.n	80040be <__lshift+0x4a>
 8004136:	f853 5b04 	ldr.w	r5, [r3], #4
 800413a:	600d      	str	r5, [r1, #0]
 800413c:	429a      	cmp	r2, r3
 800413e:	f101 0104 	add.w	r1, r1, #4
 8004142:	d8f8      	bhi.n	8004136 <__lshift+0xc2>
 8004144:	e7e9      	b.n	800411a <__lshift+0xa6>
 8004146:	bf00      	nop
 8004148:	08006ba1 	.word	0x08006ba1
 800414c:	08006bb2 	.word	0x08006bb2

08004150 <__mcmp>:
 8004150:	690a      	ldr	r2, [r1, #16]
 8004152:	4603      	mov	r3, r0
 8004154:	6900      	ldr	r0, [r0, #16]
 8004156:	1a80      	subs	r0, r0, r2
 8004158:	b530      	push	{r4, r5, lr}
 800415a:	d10e      	bne.n	800417a <__mcmp+0x2a>
 800415c:	3314      	adds	r3, #20
 800415e:	3114      	adds	r1, #20
 8004160:	eb03 0482 	add.w	r4, r3, r2, lsl #2
 8004164:	eb01 0182 	add.w	r1, r1, r2, lsl #2
 8004168:	f854 5d04 	ldr.w	r5, [r4, #-4]!
 800416c:	f851 2d04 	ldr.w	r2, [r1, #-4]!
 8004170:	4295      	cmp	r5, r2
 8004172:	d003      	beq.n	800417c <__mcmp+0x2c>
 8004174:	d205      	bcs.n	8004182 <__mcmp+0x32>
 8004176:	f04f 30ff 	mov.w	r0, #4294967295
 800417a:	bd30      	pop	{r4, r5, pc}
 800417c:	42a3      	cmp	r3, r4
 800417e:	d3f3      	bcc.n	8004168 <__mcmp+0x18>
 8004180:	e7fb      	b.n	800417a <__mcmp+0x2a>
 8004182:	2001      	movs	r0, #1
 8004184:	e7f9      	b.n	800417a <__mcmp+0x2a>
	...

08004188 <__mdiff>:
 8004188:	e92d 4ff7 	stmdb	sp!, {r0, r1, r2, r4, r5, r6, r7, r8, r9, sl, fp, lr}
 800418c:	468a      	mov	sl, r1
 800418e:	4606      	mov	r6, r0
 8004190:	4611      	mov	r1, r2
 8004192:	4650      	mov	r0, sl
 8004194:	4614      	mov	r4, r2
 8004196:	f7ff ffdb 	bl	8004150 <__mcmp>
 800419a:	1e05      	subs	r5, r0, #0
 800419c:	d112      	bne.n	80041c4 <__mdiff+0x3c>
 800419e:	4629      	mov	r1, r5
 80041a0:	4630      	mov	r0, r6
 80041a2:	f7ff fd0f 	bl	8003bc4 <_Balloc>
 80041a6:	4602      	mov	r2, r0
 80041a8:	b928      	cbnz	r0, 80041b6 <__mdiff+0x2e>
 80041aa:	4b41      	ldr	r3, [pc, #260]	@ (80042b0 <__mdiff+0x128>)
 80041ac:	f240 2137 	movw	r1, #567	@ 0x237
 80041b0:	4840      	ldr	r0, [pc, #256]	@ (80042b4 <__mdiff+0x12c>)
 80041b2:	f001 fc1d 	bl	80059f0 <__assert_func>
 80041b6:	2301      	movs	r3, #1
 80041b8:	e9c0 3504 	strd	r3, r5, [r0, #16]
 80041bc:	4610      	mov	r0, r2
 80041be:	b003      	add	sp, #12
 80041c0:	e8bd 8ff0 	ldmia.w	sp!, {r4, r5, r6, r7, r8, r9, sl, fp, pc}
 80041c4:	bfbc      	itt	lt
 80041c6:	4653      	movlt	r3, sl
 80041c8:	46a2      	movlt	sl, r4
 80041ca:	4630      	mov	r0, r6
 80041cc:	f8da 1004 	ldr.w	r1, [sl, #4]
 80041d0:	bfba      	itte	lt
 80041d2:	461c      	movlt	r4, r3
 80041d4:	2501      	movlt	r5, #1
 80041d6:	2500      	movge	r5, #0
 80041d8:	f7ff fcf4 	bl	8003bc4 <_Balloc>
 80041dc:	4602      	mov	r2, r0
 80041de:	b918      	cbnz	r0, 80041e8 <__mdiff+0x60>
 80041e0:	4b33      	ldr	r3, [pc, #204]	@ (80042b0 <__mdiff+0x128>)
 80041e2:	f240 2145 	movw	r1, #581	@ 0x245
 80041e6:	e7e3      	b.n	80041b0 <__mdiff+0x28>
 80041e8:	f8da 7010 	ldr.w	r7, [sl, #16]
 80041ec:	6926      	ldr	r6, [r4, #16]
 80041ee:	60c5      	str	r5, [r0, #12]
 80041f0:	f10a 0914 	add.w	r9, sl, #20
 80041f4:	f104 0e14 	add.w	lr, r4, #20
 80041f8:	f100 0514 	add.w	r5, r0, #20
 80041fc:	f10a 0310 	add.w	r3, sl, #16
 8004200:	eb09 0887 	add.w	r8, r9, r7, lsl #2
 8004204:	eb0e 0686 	add.w	r6, lr, r6, lsl #2
 8004208:	9301      	str	r3, [sp, #4]
 800420a:	46ab      	mov	fp, r5
 800420c:	f04f 0c00 	mov.w	ip, #0
 8004210:	9b01      	ldr	r3, [sp, #4]
 8004212:	f85e 0b04 	ldr.w	r0, [lr], #4
 8004216:	f853 af04 	ldr.w	sl, [r3, #4]!
 800421a:	9301      	str	r3, [sp, #4]
 800421c:	fa1f f38a 	uxth.w	r3, sl
 8004220:	4619      	mov	r1, r3
 8004222:	b283      	uxth	r3, r0
 8004224:	1acb      	subs	r3, r1, r3
 8004226:	0c00      	lsrs	r0, r0, #16
 8004228:	4463      	add	r3, ip
 800422a:	ebc0 401a 	rsb	r0, r0, sl, lsr #16
 800422e:	eb00 4023 	add.w	r0, r0, r3, asr #16
 8004232:	b29b      	uxth	r3, r3
 8004234:	ea43 4300 	orr.w	r3, r3, r0, lsl #16
 8004238:	4576      	cmp	r6, lr
 800423a:	f84b 3b04 	str.w	r3, [fp], #4
 800423e:	ea4f 4c20 	mov.w	ip, r0, asr #16
 8004242:	d8e5      	bhi.n	8004210 <__mdiff+0x88>
 8004244:	1b33      	subs	r3, r6, r4
 8004246:	3b15      	subs	r3, #21
 8004248:	3415      	adds	r4, #21
 800424a:	f023 0303 	bic.w	r3, r3, #3
 800424e:	42a6      	cmp	r6, r4
 8004250:	bf38      	it	cc
 8004252:	2300      	movcc	r3, #0
 8004254:	18e8      	adds	r0, r5, r3
 8004256:	444b      	add	r3, r9
 8004258:	1d1c      	adds	r4, r3, #4
 800425a:	3004      	adds	r0, #4
 800425c:	4626      	mov	r6, r4
 800425e:	eba5 0509 	sub.w	r5, r5, r9
 8004262:	4546      	cmp	r6, r8
 8004264:	eb06 0e05 	add.w	lr, r6, r5
 8004268:	d30e      	bcc.n	8004288 <__mdiff+0x100>
 800426a:	f108 0103 	add.w	r1, r8, #3
 800426e:	1b09      	subs	r1, r1, r4
 8004270:	f021 0103 	bic.w	r1, r1, #3
 8004274:	3301      	adds	r3, #1
 8004276:	4598      	cmp	r8, r3
 8004278:	bf38      	it	cc
 800427a:	2100      	movcc	r1, #0
 800427c:	4401      	add	r1, r0
 800427e:	f851 3d04 	ldr.w	r3, [r1, #-4]!
 8004282:	b19b      	cbz	r3, 80042ac <__mdiff+0x124>
 8004284:	6117      	str	r7, [r2, #16]
 8004286:	e799      	b.n	80041bc <__mdiff+0x34>
 8004288:	f856 1b04 	ldr.w	r1, [r6], #4
 800428c:	46e2      	mov	sl, ip
 800428e:	ea4f 4911 	mov.w	r9, r1, lsr #16
 8004292:	fa1c fc81 	uxtah	ip, ip, r1
 8004296:	4451      	add	r1, sl
 8004298:	eb09 492c 	add.w	r9, r9, ip, asr #16
 800429c:	b289      	uxth	r1, r1
 800429e:	ea41 4109 	orr.w	r1, r1, r9, lsl #16
 80042a2:	ea4f 4c29 	mov.w	ip, r9, asr #16
 80042a6:	f8ce 1000 	str.w	r1, [lr]
 80042aa:	e7da      	b.n	8004262 <__mdiff+0xda>
 80042ac:	3f01      	subs	r7, #1
 80042ae:	e7e6      	b.n	800427e <__mdiff+0xf6>
 80042b0:	08006ba1 	.word	0x08006ba1
 80042b4:	08006bb2 	.word	0x08006bb2

080042b8 <__ulp>:
 80042b8:	b082      	sub	sp, #8
 80042ba:	ed8d 0b00 	vstr	d0, [sp]
 80042be:	9a01      	ldr	r2, [sp, #4]
 80042c0:	4b0f      	ldr	r3, [pc, #60]	@ (8004300 <__ulp+0x48>)
 80042c2:	4013      	ands	r3, r2
 80042c4:	f1a3 7350 	sub.w	r3, r3, #54525952	@ 0x3400000
 80042c8:	2b00      	cmp	r3, #0
 80042ca:	dc08      	bgt.n	80042de <__ulp+0x26>
 80042cc:	425b      	negs	r3, r3
 80042ce:	f1b3 7fa0 	cmp.w	r3, #20971520	@ 0x1400000
 80042d2:	ea4f 5223 	mov.w	r2, r3, asr #20
 80042d6:	da04      	bge.n	80042e2 <__ulp+0x2a>
 80042d8:	f44f 2300 	mov.w	r3, #524288	@ 0x80000
 80042dc:	4113      	asrs	r3, r2
 80042de:	2200      	movs	r2, #0
 80042e0:	e008      	b.n	80042f4 <__ulp+0x3c>
 80042e2:	f1a2 0314 	sub.w	r3, r2, #20
 80042e6:	2b1e      	cmp	r3, #30
 80042e8:	bfda      	itte	le
 80042ea:	f04f 4200 	movle.w	r2, #2147483648	@ 0x80000000
 80042ee:	40da      	lsrle	r2, r3
 80042f0:	2201      	movgt	r2, #1
 80042f2:	2300      	movs	r3, #0
 80042f4:	4619      	mov	r1, r3
 80042f6:	4610      	mov	r0, r2
 80042f8:	ec41 0b10 	vmov	d0, r0, r1
 80042fc:	b002      	add	sp, #8
 80042fe:	4770      	bx	lr
 8004300:	7ff00000 	.word	0x7ff00000

08004304 <__b2d>:
 8004304:	e92d 41f0 	stmdb	sp!, {r4, r5, r6, r7, r8, lr}
 8004308:	6906      	ldr	r6, [r0, #16]
 800430a:	f100 0814 	add.w	r8, r0, #20
 800430e:	eb08 0686 	add.w	r6, r8, r6, lsl #2
 8004312:	1f37      	subs	r7, r6, #4
 8004314:	f856 2c04 	ldr.w	r2, [r6, #-4]
 8004318:	4610      	mov	r0, r2
 800431a:	f7ff fd43 	bl	8003da4 <__hi0bits>
 800431e:	f1c0 0320 	rsb	r3, r0, #32
 8004322:	280a      	cmp	r0, #10
 8004324:	600b      	str	r3, [r1, #0]
 8004326:	491b      	ldr	r1, [pc, #108]	@ (8004394 <__b2d+0x90>)
 8004328:	dc15      	bgt.n	8004356 <__b2d+0x52>
 800432a:	f1c0 0c0b 	rsb	ip, r0, #11
 800432e:	fa22 f30c 	lsr.w	r3, r2, ip
 8004332:	45b8      	cmp	r8, r7
 8004334:	ea43 0501 	orr.w	r5, r3, r1
 8004338:	bf34      	ite	cc
 800433a:	f856 3c08 	ldrcc.w	r3, [r6, #-8]
 800433e:	2300      	movcs	r3, #0
 8004340:	3015      	adds	r0, #21
 8004342:	fa02 f000 	lsl.w	r0, r2, r0
 8004346:	fa23 f30c 	lsr.w	r3, r3, ip
 800434a:	4303      	orrs	r3, r0
 800434c:	461c      	mov	r4, r3
 800434e:	ec45 4b10 	vmov	d0, r4, r5
 8004352:	e8bd 81f0 	ldmia.w	sp!, {r4, r5, r6, r7, r8, pc}
 8004356:	45b8      	cmp	r8, r7
 8004358:	bf3a      	itte	cc
 800435a:	f856 3c08 	ldrcc.w	r3, [r6, #-8]
 800435e:	f1a6 0708 	subcc.w	r7, r6, #8
 8004362:	2300      	movcs	r3, #0
 8004364:	380b      	subs	r0, #11
 8004366:	d012      	beq.n	800438e <__b2d+0x8a>
 8004368:	f1c0 0120 	rsb	r1, r0, #32
 800436c:	fa23 f401 	lsr.w	r4, r3, r1
 8004370:	4082      	lsls	r2, r0
 8004372:	4322      	orrs	r2, r4
 8004374:	4547      	cmp	r7, r8
 8004376:	f042 557f 	orr.w	r5, r2, #1069547520	@ 0x3fc00000
 800437a:	bf8c      	ite	hi
 800437c:	f857 2c04 	ldrhi.w	r2, [r7, #-4]
 8004380:	2200      	movls	r2, #0
 8004382:	4083      	lsls	r3, r0
 8004384:	40ca      	lsrs	r2, r1
 8004386:	f445 1540 	orr.w	r5, r5, #3145728	@ 0x300000
 800438a:	4313      	orrs	r3, r2
 800438c:	e7de      	b.n	800434c <__b2d+0x48>
 800438e:	ea42 0501 	orr.w	r5, r2, r1
 8004392:	e7db      	b.n	800434c <__b2d+0x48>
 8004394:	3ff00000 	.word	0x3ff00000

08004398 <__d2b>:
 8004398:	e92d 43f7 	stmdb	sp!, {r0, r1, r2, r4, r5, r6, r7, r8, r9, lr}
 800439c:	460f      	mov	r7, r1
 800439e:	2101      	movs	r1, #1
 80043a0:	ec59 8b10 	vmov	r8, r9, d0
 80043a4:	4616      	mov	r6, r2
 80043a6:	f7ff fc0d 	bl	8003bc4 <_Balloc>
 80043aa:	4604      	mov	r4, r0
 80043ac:	b930      	cbnz	r0, 80043bc <__d2b+0x24>
 80043ae:	4602      	mov	r2, r0
 80043b0:	4b23      	ldr	r3, [pc, #140]	@ (8004440 <__d2b+0xa8>)
 80043b2:	4824      	ldr	r0, [pc, #144]	@ (8004444 <__d2b+0xac>)
 80043b4:	f240 310f 	movw	r1, #783	@ 0x30f
 80043b8:	f001 fb1a 	bl	80059f0 <__assert_func>
 80043bc:	f3c9 550a 	ubfx	r5, r9, #20, #11
 80043c0:	f3c9 0313 	ubfx	r3, r9, #0, #20
 80043c4:	b10d      	cbz	r5, 80043ca <__d2b+0x32>
 80043c6:	f443 1380 	orr.w	r3, r3, #1048576	@ 0x100000
 80043ca:	9301      	str	r3, [sp, #4]
 80043cc:	f1b8 0300 	subs.w	r3, r8, #0
 80043d0:	d023      	beq.n	800441a <__d2b+0x82>
 80043d2:	4668      	mov	r0, sp
 80043d4:	9300      	str	r3, [sp, #0]
 80043d6:	f7ff fd04 	bl	8003de2 <__lo0bits>
 80043da:	9900      	ldr	r1, [sp, #0]
 80043dc:	b1d8      	cbz	r0, 8004416 <__d2b+0x7e>
 80043de:	9a01      	ldr	r2, [sp, #4]
 80043e0:	f1c0 0320 	rsb	r3, r0, #32
 80043e4:	fa02 f303 	lsl.w	r3, r2, r3
 80043e8:	430b      	orrs	r3, r1
 80043ea:	40c2      	lsrs	r2, r0
 80043ec:	6163      	str	r3, [r4, #20]
 80043ee:	9201      	str	r2, [sp, #4]
 80043f0:	9b01      	ldr	r3, [sp, #4]
 80043f2:	61a3      	str	r3, [r4, #24]
 80043f4:	2b00      	cmp	r3, #0
 80043f6:	bf0c      	ite	eq
 80043f8:	2201      	moveq	r2, #1
 80043fa:	2202      	movne	r2, #2
 80043fc:	6122      	str	r2, [r4, #16]
 80043fe:	b1a5      	cbz	r5, 800442a <__d2b+0x92>
 8004400:	f2a5 4533 	subw	r5, r5, #1075	@ 0x433
 8004404:	4405      	add	r5, r0
 8004406:	603d      	str	r5, [r7, #0]
 8004408:	f1c0 0035 	rsb	r0, r0, #53	@ 0x35
 800440c:	6030      	str	r0, [r6, #0]
 800440e:	4620      	mov	r0, r4
 8004410:	b003      	add	sp, #12
 8004412:	e8bd 83f0 	ldmia.w	sp!, {r4, r5, r6, r7, r8, r9, pc}
 8004416:	6161      	str	r1, [r4, #20]
 8004418:	e7ea      	b.n	80043f0 <__d2b+0x58>
 800441a:	a801      	add	r0, sp, #4
 800441c:	f7ff fce1 	bl	8003de2 <__lo0bits>
 8004420:	9b01      	ldr	r3, [sp, #4]
 8004422:	6163      	str	r3, [r4, #20]
 8004424:	3020      	adds	r0, #32
 8004426:	2201      	movs	r2, #1
 8004428:	e7e8      	b.n	80043fc <__d2b+0x64>
 800442a:	eb04 0382 	add.w	r3, r4, r2, lsl #2
 800442e:	f2a0 4032 	subw	r0, r0, #1074	@ 0x432
 8004432:	6038      	str	r0, [r7, #0]
 8004434:	6918      	ldr	r0, [r3, #16]
 8004436:	f7ff fcb5 	bl	8003da4 <__hi0bits>
 800443a:	ebc0 1042 	rsb	r0, r0, r2, lsl #5
 800443e:	e7e5      	b.n	800440c <__d2b+0x74>
 8004440:	08006ba1 	.word	0x08006ba1
 8004444:	08006bb2 	.word	0x08006bb2

08004448 <__ratio>:
 8004448:	e92d 4ff7 	stmdb	sp!, {r0, r1, r2, r4, r5, r6, r7, r8, r9, sl, fp, lr}
 800444c:	4688      	mov	r8, r1
 800444e:	4669      	mov	r1, sp
 8004450:	4681      	mov	r9, r0
 8004452:	f7ff ff57 	bl	8004304 <__b2d>
 8004456:	a901      	add	r1, sp, #4
 8004458:	4640      	mov	r0, r8
 800445a:	ec55 4b10 	vmov	r4, r5, d0
 800445e:	f7ff ff51 	bl	8004304 <__b2d>
 8004462:	f8d8 3010 	ldr.w	r3, [r8, #16]
 8004466:	f8d9 2010 	ldr.w	r2, [r9, #16]
 800446a:	1ad2      	subs	r2, r2, r3
 800446c:	e9dd 3100 	ldrd	r3, r1, [sp]
 8004470:	1a5b      	subs	r3, r3, r1
 8004472:	eb03 1342 	add.w	r3, r3, r2, lsl #5
 8004476:	ec57 6b10 	vmov	r6, r7, d0
 800447a:	2b00      	cmp	r3, #0
 800447c:	bfd6      	itet	le
 800447e:	ebc3 3303 	rsble	r3, r3, r3, lsl #12
 8004482:	462a      	movgt	r2, r5
 8004484:	463a      	movle	r2, r7
 8004486:	46ab      	mov	fp, r5
 8004488:	46a2      	mov	sl, r4
 800448a:	bfce      	itee	gt
 800448c:	eb02 5b03 	addgt.w	fp, r2, r3, lsl #20
 8004490:	eb02 5303 	addle.w	r3, r2, r3, lsl #20
 8004494:	ee00 3a90 	vmovle	s1, r3
 8004498:	ec4b ab17 	vmov	d7, sl, fp
 800449c:	ee87 0b00 	vdiv.f64	d0, d7, d0
 80044a0:	b003      	add	sp, #12
 80044a2:	e8bd 8ff0 	ldmia.w	sp!, {r4, r5, r6, r7, r8, r9, sl, fp, pc}

080044a6 <__copybits>:
 80044a6:	3901      	subs	r1, #1
 80044a8:	b570      	push	{r4, r5, r6, lr}
 80044aa:	1149      	asrs	r1, r1, #5
 80044ac:	6914      	ldr	r4, [r2, #16]
 80044ae:	3101      	adds	r1, #1
 80044b0:	f102 0314 	add.w	r3, r2, #20
 80044b4:	eb00 0181 	add.w	r1, r0, r1, lsl #2
 80044b8:	eb03 0484 	add.w	r4, r3, r4, lsl #2
 80044bc:	1f05      	subs	r5, r0, #4
 80044be:	42a3      	cmp	r3, r4
 80044c0:	d30c      	bcc.n	80044dc <__copybits+0x36>
 80044c2:	1aa3      	subs	r3, r4, r2
 80044c4:	3b11      	subs	r3, #17
 80044c6:	f023 0303 	bic.w	r3, r3, #3
 80044ca:	3211      	adds	r2, #17
 80044cc:	4294      	cmp	r4, r2
 80044ce:	bf38      	it	cc
 80044d0:	2300      	movcc	r3, #0
 80044d2:	4418      	add	r0, r3
 80044d4:	2300      	movs	r3, #0
 80044d6:	4288      	cmp	r0, r1
 80044d8:	d305      	bcc.n	80044e6 <__copybits+0x40>
 80044da:	bd70      	pop	{r4, r5, r6, pc}
 80044dc:	f853 6b04 	ldr.w	r6, [r3], #4
 80044e0:	f845 6f04 	str.w	r6, [r5, #4]!
 80044e4:	e7eb      	b.n	80044be <__copybits+0x18>
 80044e6:	f840 3b04 	str.w	r3, [r0], #4
 80044ea:	e7f4      	b.n	80044d6 <__copybits+0x30>

080044ec <__any_on>:
 80044ec:	f100 0214 	add.w	r2, r0, #20
 80044f0:	6900      	ldr	r0, [r0, #16]
 80044f2:	114b      	asrs	r3, r1, #5
 80044f4:	4298      	cmp	r0, r3
 80044f6:	b510      	push	{r4, lr}
 80044f8:	db11      	blt.n	800451e <__any_on+0x32>
 80044fa:	dd0a      	ble.n	8004512 <__any_on+0x26>
 80044fc:	f011 011f 	ands.w	r1, r1, #31
 8004500:	d007      	beq.n	8004512 <__any_on+0x26>
 8004502:	f852 4023 	ldr.w	r4, [r2, r3, lsl #2]
 8004506:	fa24 f001 	lsr.w	r0, r4, r1
 800450a:	fa00 f101 	lsl.w	r1, r0, r1
 800450e:	428c      	cmp	r4, r1
 8004510:	d10b      	bne.n	800452a <__any_on+0x3e>
 8004512:	eb02 0383 	add.w	r3, r2, r3, lsl #2
 8004516:	4293      	cmp	r3, r2
 8004518:	d803      	bhi.n	8004522 <__any_on+0x36>
 800451a:	2000      	movs	r0, #0
 800451c:	bd10      	pop	{r4, pc}
 800451e:	4603      	mov	r3, r0
 8004520:	e7f7      	b.n	8004512 <__any_on+0x26>
 8004522:	f853 1d04 	ldr.w	r1, [r3, #-4]!
 8004526:	2900      	cmp	r1, #0
 8004528:	d0f5      	beq.n	8004516 <__any_on+0x2a>
 800452a:	2001      	movs	r0, #1
 800452c:	e7f6      	b.n	800451c <__any_on+0x30>

0800452e <sulp>:
 800452e:	b570      	push	{r4, r5, r6, lr}
 8004530:	4604      	mov	r4, r0
 8004532:	460d      	mov	r5, r1
 8004534:	4616      	mov	r6, r2
 8004536:	ec45 4b10 	vmov	d0, r4, r5
 800453a:	f7ff febd 	bl	80042b8 <__ulp>
 800453e:	b17e      	cbz	r6, 8004560 <sulp+0x32>
 8004540:	f3c5 530a 	ubfx	r3, r5, #20, #11
 8004544:	f1c3 036b 	rsb	r3, r3, #107	@ 0x6b
 8004548:	2b00      	cmp	r3, #0
 800454a:	dd09      	ble.n	8004560 <sulp+0x32>
 800454c:	051b      	lsls	r3, r3, #20
 800454e:	f103 517f 	add.w	r1, r3, #1069547520	@ 0x3fc00000
 8004552:	2000      	movs	r0, #0
 8004554:	f501 1140 	add.w	r1, r1, #3145728	@ 0x300000
 8004558:	ec41 0b17 	vmov	d7, r0, r1
 800455c:	ee20 0b07 	vmul.f64	d0, d0, d7
 8004560:	bd70      	pop	{r4, r5, r6, pc}
 8004562:	0000      	movs	r0, r0
 8004564:	0000      	movs	r0, r0
	...

08004568 <_strtod_l>:
 8004568:	e92d 4ff0 	stmdb	sp!, {r4, r5, r6, r7, r8, r9, sl, fp, lr}
 800456c:	ed2d 8b0a 	vpush	{d8-d12}
 8004570:	b097      	sub	sp, #92	@ 0x5c
 8004572:	4681      	mov	r9, r0
 8004574:	920e      	str	r2, [sp, #56]	@ 0x38
 8004576:	2200      	movs	r2, #0
 8004578:	9105      	str	r1, [sp, #20]
 800457a:	9212      	str	r2, [sp, #72]	@ 0x48
 800457c:	f04f 0a00 	mov.w	sl, #0
 8004580:	f04f 0b00 	mov.w	fp, #0
 8004584:	9111      	str	r1, [sp, #68]	@ 0x44
 8004586:	780a      	ldrb	r2, [r1, #0]
 8004588:	2a2b      	cmp	r2, #43	@ 0x2b
 800458a:	460c      	mov	r4, r1
 800458c:	f101 0101 	add.w	r1, r1, #1
 8004590:	d01d      	beq.n	80045ce <_strtod_l+0x66>
 8004592:	d80a      	bhi.n	80045aa <_strtod_l+0x42>
 8004594:	2a0d      	cmp	r2, #13
 8004596:	d805      	bhi.n	80045a4 <_strtod_l+0x3c>
 8004598:	2a08      	cmp	r2, #8
 800459a:	d8f3      	bhi.n	8004584 <_strtod_l+0x1c>
 800459c:	b172      	cbz	r2, 80045bc <_strtod_l+0x54>
 800459e:	2300      	movs	r3, #0
 80045a0:	9306      	str	r3, [sp, #24]
 80045a2:	e084      	b.n	80046ae <_strtod_l+0x146>
 80045a4:	2a20      	cmp	r2, #32
 80045a6:	d0ed      	beq.n	8004584 <_strtod_l+0x1c>
 80045a8:	e7f9      	b.n	800459e <_strtod_l+0x36>
 80045aa:	2a2d      	cmp	r2, #45	@ 0x2d
 80045ac:	d111      	bne.n	80045d2 <_strtod_l+0x6a>
 80045ae:	2201      	movs	r2, #1
 80045b0:	1c61      	adds	r1, r4, #1
 80045b2:	9111      	str	r1, [sp, #68]	@ 0x44
 80045b4:	9206      	str	r2, [sp, #24]
 80045b6:	7862      	ldrb	r2, [r4, #1]
 80045b8:	2a00      	cmp	r2, #0
 80045ba:	d139      	bne.n	8004630 <_strtod_l+0xc8>
 80045bc:	9b05      	ldr	r3, [sp, #20]
 80045be:	9311      	str	r3, [sp, #68]	@ 0x44
 80045c0:	9b0e      	ldr	r3, [sp, #56]	@ 0x38
 80045c2:	2b00      	cmp	r3, #0
 80045c4:	f040 8546 	bne.w	8005054 <_strtod_l+0xaec>
 80045c8:	ec4b ab10 	vmov	d0, sl, fp
 80045cc:	e02b      	b.n	8004626 <_strtod_l+0xbe>
 80045ce:	2200      	movs	r2, #0
 80045d0:	e7ee      	b.n	80045b0 <_strtod_l+0x48>
 80045d2:	2100      	movs	r1, #0
 80045d4:	9106      	str	r1, [sp, #24]
 80045d6:	2a30      	cmp	r2, #48	@ 0x30
 80045d8:	f040 809f 	bne.w	800471a <_strtod_l+0x1b2>
 80045dc:	7862      	ldrb	r2, [r4, #1]
 80045de:	f002 02df 	and.w	r2, r2, #223	@ 0xdf
 80045e2:	2a58      	cmp	r2, #88	@ 0x58
 80045e4:	d15b      	bne.n	800469e <_strtod_l+0x136>
 80045e6:	9302      	str	r3, [sp, #8]
 80045e8:	9b06      	ldr	r3, [sp, #24]
 80045ea:	9301      	str	r3, [sp, #4]
 80045ec:	ab12      	add	r3, sp, #72	@ 0x48
 80045ee:	9300      	str	r3, [sp, #0]
 80045f0:	4a80      	ldr	r2, [pc, #512]	@ (80047f4 <_strtod_l+0x28c>)
 80045f2:	ab13      	add	r3, sp, #76	@ 0x4c
 80045f4:	a911      	add	r1, sp, #68	@ 0x44
 80045f6:	4648      	mov	r0, r9
 80045f8:	f001 fa94 	bl	8005b24 <__gethex>
 80045fc:	f010 050f 	ands.w	r5, r0, #15
 8004600:	4606      	mov	r6, r0
 8004602:	d005      	beq.n	8004610 <_strtod_l+0xa8>
 8004604:	2d06      	cmp	r5, #6
 8004606:	d115      	bne.n	8004634 <_strtod_l+0xcc>
 8004608:	3401      	adds	r4, #1
 800460a:	2300      	movs	r3, #0
 800460c:	9411      	str	r4, [sp, #68]	@ 0x44
 800460e:	9306      	str	r3, [sp, #24]
 8004610:	9b0e      	ldr	r3, [sp, #56]	@ 0x38
 8004612:	2b00      	cmp	r3, #0
 8004614:	f040 8520 	bne.w	8005058 <_strtod_l+0xaf0>
 8004618:	9b06      	ldr	r3, [sp, #24]
 800461a:	2b00      	cmp	r3, #0
 800461c:	d0d4      	beq.n	80045c8 <_strtod_l+0x60>
 800461e:	ec4b ab17 	vmov	d7, sl, fp
 8004622:	eeb1 0b47 	vneg.f64	d0, d7
 8004626:	b017      	add	sp, #92	@ 0x5c
 8004628:	ecbd 8b0a 	vpop	{d8-d12}
 800462c:	e8bd 8ff0 	ldmia.w	sp!, {r4, r5, r6, r7, r8, r9, sl, fp, pc}
 8004630:	460c      	mov	r4, r1
 8004632:	e7d0      	b.n	80045d6 <_strtod_l+0x6e>
 8004634:	9a12      	ldr	r2, [sp, #72]	@ 0x48
 8004636:	b13a      	cbz	r2, 8004648 <_strtod_l+0xe0>
 8004638:	2135      	movs	r1, #53	@ 0x35
 800463a:	a814      	add	r0, sp, #80	@ 0x50
 800463c:	f7ff ff33 	bl	80044a6 <__copybits>
 8004640:	9912      	ldr	r1, [sp, #72]	@ 0x48
 8004642:	4648      	mov	r0, r9
 8004644:	f7ff fafc 	bl	8003c40 <_Bfree>
 8004648:	3d01      	subs	r5, #1
 800464a:	2d04      	cmp	r5, #4
 800464c:	d806      	bhi.n	800465c <_strtod_l+0xf4>
 800464e:	e8df f005 	tbb	[pc, r5]
 8004652:	0314      	.short	0x0314
 8004654:	211e      	.short	0x211e
 8004656:	14          	.byte	0x14
 8004657:	00          	.byte	0x00
 8004658:	e9dd ab14 	ldrd	sl, fp, [sp, #80]	@ 0x50
 800465c:	05f3      	lsls	r3, r6, #23
 800465e:	bf48      	it	mi
 8004660:	f04b 4b00 	orrmi.w	fp, fp, #2147483648	@ 0x80000000
 8004664:	f02b 4300 	bic.w	r3, fp, #2147483648	@ 0x80000000
 8004668:	0d1b      	lsrs	r3, r3, #20
 800466a:	051b      	lsls	r3, r3, #20
 800466c:	2b00      	cmp	r3, #0
 800466e:	d1cf      	bne.n	8004610 <_strtod_l+0xa8>
 8004670:	f7fe fbc4 	bl	8002dfc <__errno>
 8004674:	2322      	movs	r3, #34	@ 0x22
 8004676:	6003      	str	r3, [r0, #0]
 8004678:	e7ca      	b.n	8004610 <_strtod_l+0xa8>
 800467a:	e9dd a314 	ldrd	sl, r3, [sp, #80]	@ 0x50
 800467e:	9a13      	ldr	r2, [sp, #76]	@ 0x4c
 8004680:	f423 1380 	bic.w	r3, r3, #1048576	@ 0x100000
 8004684:	f202 4233 	addw	r2, r2, #1075	@ 0x433
 8004688:	ea43 5b02 	orr.w	fp, r3, r2, lsl #20
 800468c:	e7e6      	b.n	800465c <_strtod_l+0xf4>
 800468e:	f8df b16c 	ldr.w	fp, [pc, #364]	@ 80047fc <_strtod_l+0x294>
 8004692:	e7e3      	b.n	800465c <_strtod_l+0xf4>
 8004694:	f06f 4b00 	mvn.w	fp, #2147483648	@ 0x80000000
 8004698:	f04f 3aff 	mov.w	sl, #4294967295
 800469c:	e7de      	b.n	800465c <_strtod_l+0xf4>
 800469e:	3401      	adds	r4, #1
 80046a0:	9411      	str	r4, [sp, #68]	@ 0x44
 80046a2:	7823      	ldrb	r3, [r4, #0]
 80046a4:	2b30      	cmp	r3, #48	@ 0x30
 80046a6:	d0fa      	beq.n	800469e <_strtod_l+0x136>
 80046a8:	2b00      	cmp	r3, #0
 80046aa:	d0b1      	beq.n	8004610 <_strtod_l+0xa8>
 80046ac:	2301      	movs	r3, #1
 80046ae:	2700      	movs	r7, #0
 80046b0:	9308      	str	r3, [sp, #32]
 80046b2:	9707      	str	r7, [sp, #28]
 80046b4:	4623      	mov	r3, r4
 80046b6:	463e      	mov	r6, r7
 80046b8:	210a      	movs	r1, #10
 80046ba:	4618      	mov	r0, r3
 80046bc:	f813 5b01 	ldrb.w	r5, [r3], #1
 80046c0:	f1a5 0230 	sub.w	r2, r5, #48	@ 0x30
 80046c4:	2a09      	cmp	r2, #9
 80046c6:	d92a      	bls.n	800471e <_strtod_l+0x1b6>
 80046c8:	494b      	ldr	r1, [pc, #300]	@ (80047f8 <_strtod_l+0x290>)
 80046ca:	2201      	movs	r2, #1
 80046cc:	f001 f957 	bl	800597e <strncmp>
 80046d0:	2800      	cmp	r0, #0
 80046d2:	d034      	beq.n	800473e <_strtod_l+0x1d6>
 80046d4:	2000      	movs	r0, #0
 80046d6:	462a      	mov	r2, r5
 80046d8:	4633      	mov	r3, r6
 80046da:	4680      	mov	r8, r0
 80046dc:	4684      	mov	ip, r0
 80046de:	2a65      	cmp	r2, #101	@ 0x65
 80046e0:	d001      	beq.n	80046e6 <_strtod_l+0x17e>
 80046e2:	2a45      	cmp	r2, #69	@ 0x45
 80046e4:	d117      	bne.n	8004716 <_strtod_l+0x1ae>
 80046e6:	b923      	cbnz	r3, 80046f2 <_strtod_l+0x18a>
 80046e8:	9b08      	ldr	r3, [sp, #32]
 80046ea:	4303      	orrs	r3, r0
 80046ec:	f43f af66 	beq.w	80045bc <_strtod_l+0x54>
 80046f0:	2300      	movs	r3, #0
 80046f2:	9a11      	ldr	r2, [sp, #68]	@ 0x44
 80046f4:	9205      	str	r2, [sp, #20]
 80046f6:	3201      	adds	r2, #1
 80046f8:	9211      	str	r2, [sp, #68]	@ 0x44
 80046fa:	9a05      	ldr	r2, [sp, #20]
 80046fc:	7852      	ldrb	r2, [r2, #1]
 80046fe:	2a2b      	cmp	r2, #43	@ 0x2b
 8004700:	d06d      	beq.n	80047de <_strtod_l+0x276>
 8004702:	2a2d      	cmp	r2, #45	@ 0x2d
 8004704:	d073      	beq.n	80047ee <_strtod_l+0x286>
 8004706:	2100      	movs	r1, #0
 8004708:	9109      	str	r1, [sp, #36]	@ 0x24
 800470a:	f1a2 0130 	sub.w	r1, r2, #48	@ 0x30
 800470e:	2909      	cmp	r1, #9
 8004710:	d97a      	bls.n	8004808 <_strtod_l+0x2a0>
 8004712:	9905      	ldr	r1, [sp, #20]
 8004714:	9111      	str	r1, [sp, #68]	@ 0x44
 8004716:	2500      	movs	r5, #0
 8004718:	e094      	b.n	8004844 <_strtod_l+0x2dc>
 800471a:	2300      	movs	r3, #0
 800471c:	e7c7      	b.n	80046ae <_strtod_l+0x146>
 800471e:	2e08      	cmp	r6, #8
 8004720:	bfd8      	it	le
 8004722:	9a07      	ldrle	r2, [sp, #28]
 8004724:	9311      	str	r3, [sp, #68]	@ 0x44
 8004726:	bfdb      	ittet	le
 8004728:	fb01 5202 	mlale	r2, r1, r2, r5
 800472c:	3a30      	suble	r2, #48	@ 0x30
 800472e:	fb01 5207 	mlagt	r2, r1, r7, r5
 8004732:	9207      	strle	r2, [sp, #28]
 8004734:	bfc8      	it	gt
 8004736:	f1a2 0730 	subgt.w	r7, r2, #48	@ 0x30
 800473a:	3601      	adds	r6, #1
 800473c:	e7bd      	b.n	80046ba <_strtod_l+0x152>
 800473e:	9b11      	ldr	r3, [sp, #68]	@ 0x44
 8004740:	1c5a      	adds	r2, r3, #1
 8004742:	9211      	str	r2, [sp, #68]	@ 0x44
 8004744:	785a      	ldrb	r2, [r3, #1]
 8004746:	b38e      	cbz	r6, 80047ac <_strtod_l+0x244>
 8004748:	4680      	mov	r8, r0
 800474a:	4633      	mov	r3, r6
 800474c:	f1a2 0130 	sub.w	r1, r2, #48	@ 0x30
 8004750:	2909      	cmp	r1, #9
 8004752:	d912      	bls.n	800477a <_strtod_l+0x212>
 8004754:	f04f 0c01 	mov.w	ip, #1
 8004758:	e7c1      	b.n	80046de <_strtod_l+0x176>
 800475a:	9b11      	ldr	r3, [sp, #68]	@ 0x44
 800475c:	1c5a      	adds	r2, r3, #1
 800475e:	9211      	str	r2, [sp, #68]	@ 0x44
 8004760:	785a      	ldrb	r2, [r3, #1]
 8004762:	3001      	adds	r0, #1
 8004764:	2a30      	cmp	r2, #48	@ 0x30
 8004766:	d0f8      	beq.n	800475a <_strtod_l+0x1f2>
 8004768:	f1a2 0331 	sub.w	r3, r2, #49	@ 0x31
 800476c:	2b08      	cmp	r3, #8
 800476e:	f200 8478 	bhi.w	8005062 <_strtod_l+0xafa>
 8004772:	4680      	mov	r8, r0
 8004774:	9c11      	ldr	r4, [sp, #68]	@ 0x44
 8004776:	2000      	movs	r0, #0
 8004778:	4603      	mov	r3, r0
 800477a:	3a30      	subs	r2, #48	@ 0x30
 800477c:	f100 0101 	add.w	r1, r0, #1
 8004780:	d00e      	beq.n	80047a0 <_strtod_l+0x238>
 8004782:	4488      	add	r8, r1
 8004784:	4418      	add	r0, r3
 8004786:	210a      	movs	r1, #10
 8004788:	4298      	cmp	r0, r3
 800478a:	d111      	bne.n	80047b0 <_strtod_l+0x248>
 800478c:	2808      	cmp	r0, #8
 800478e:	f100 0301 	add.w	r3, r0, #1
 8004792:	dc19      	bgt.n	80047c8 <_strtod_l+0x260>
 8004794:	9807      	ldr	r0, [sp, #28]
 8004796:	210a      	movs	r1, #10
 8004798:	fb01 2200 	mla	r2, r1, r0, r2
 800479c:	9207      	str	r2, [sp, #28]
 800479e:	2100      	movs	r1, #0
 80047a0:	9a11      	ldr	r2, [sp, #68]	@ 0x44
 80047a2:	1c50      	adds	r0, r2, #1
 80047a4:	9011      	str	r0, [sp, #68]	@ 0x44
 80047a6:	7852      	ldrb	r2, [r2, #1]
 80047a8:	4608      	mov	r0, r1
 80047aa:	e7cf      	b.n	800474c <_strtod_l+0x1e4>
 80047ac:	4630      	mov	r0, r6
 80047ae:	e7d9      	b.n	8004764 <_strtod_l+0x1fc>
 80047b0:	2b08      	cmp	r3, #8
 80047b2:	f103 0301 	add.w	r3, r3, #1
 80047b6:	dc03      	bgt.n	80047c0 <_strtod_l+0x258>
 80047b8:	9d07      	ldr	r5, [sp, #28]
 80047ba:	434d      	muls	r5, r1
 80047bc:	9507      	str	r5, [sp, #28]
 80047be:	e7e3      	b.n	8004788 <_strtod_l+0x220>
 80047c0:	2b10      	cmp	r3, #16
 80047c2:	bfd8      	it	le
 80047c4:	434f      	mulle	r7, r1
 80047c6:	e7df      	b.n	8004788 <_strtod_l+0x220>
 80047c8:	280f      	cmp	r0, #15
 80047ca:	bfdc      	itt	le
 80047cc:	210a      	movle	r1, #10
 80047ce:	fb01 2707 	mlale	r7, r1, r7, r2
 80047d2:	e7e4      	b.n	800479e <_strtod_l+0x236>
 80047d4:	f04f 0800 	mov.w	r8, #0
 80047d8:	f04f 0c01 	mov.w	ip, #1
 80047dc:	e784      	b.n	80046e8 <_strtod_l+0x180>
 80047de:	2200      	movs	r2, #0
 80047e0:	9209      	str	r2, [sp, #36]	@ 0x24
 80047e2:	9a05      	ldr	r2, [sp, #20]
 80047e4:	3202      	adds	r2, #2
 80047e6:	9211      	str	r2, [sp, #68]	@ 0x44
 80047e8:	9a05      	ldr	r2, [sp, #20]
 80047ea:	7892      	ldrb	r2, [r2, #2]
 80047ec:	e78d      	b.n	800470a <_strtod_l+0x1a2>
 80047ee:	2201      	movs	r2, #1
 80047f0:	e7f6      	b.n	80047e0 <_strtod_l+0x278>
 80047f2:	bf00      	nop
 80047f4:	08006dd4 	.word	0x08006dd4
 80047f8:	08006c0b 	.word	0x08006c0b
 80047fc:	7ff00000 	.word	0x7ff00000
 8004800:	9a11      	ldr	r2, [sp, #68]	@ 0x44
 8004802:	1c51      	adds	r1, r2, #1
 8004804:	9111      	str	r1, [sp, #68]	@ 0x44
 8004806:	7852      	ldrb	r2, [r2, #1]
 8004808:	2a30      	cmp	r2, #48	@ 0x30
 800480a:	d0f9      	beq.n	8004800 <_strtod_l+0x298>
 800480c:	f1a2 0131 	sub.w	r1, r2, #49	@ 0x31
 8004810:	2908      	cmp	r1, #8
 8004812:	d880      	bhi.n	8004716 <_strtod_l+0x1ae>
 8004814:	f1a2 0e30 	sub.w	lr, r2, #48	@ 0x30
 8004818:	9a11      	ldr	r2, [sp, #68]	@ 0x44
 800481a:	920a      	str	r2, [sp, #40]	@ 0x28
 800481c:	4611      	mov	r1, r2
 800481e:	3101      	adds	r1, #1
 8004820:	9111      	str	r1, [sp, #68]	@ 0x44
 8004822:	780a      	ldrb	r2, [r1, #0]
 8004824:	f1a2 0530 	sub.w	r5, r2, #48	@ 0x30
 8004828:	2d09      	cmp	r5, #9
 800482a:	d937      	bls.n	800489c <_strtod_l+0x334>
 800482c:	9d0a      	ldr	r5, [sp, #40]	@ 0x28
 800482e:	1b49      	subs	r1, r1, r5
 8004830:	2908      	cmp	r1, #8
 8004832:	f644 651f 	movw	r5, #19999	@ 0x4e1f
 8004836:	dc02      	bgt.n	800483e <_strtod_l+0x2d6>
 8004838:	4575      	cmp	r5, lr
 800483a:	bfa8      	it	ge
 800483c:	4675      	movge	r5, lr
 800483e:	9909      	ldr	r1, [sp, #36]	@ 0x24
 8004840:	b101      	cbz	r1, 8004844 <_strtod_l+0x2dc>
 8004842:	426d      	negs	r5, r5
 8004844:	2b00      	cmp	r3, #0
 8004846:	d14e      	bne.n	80048e6 <_strtod_l+0x37e>
 8004848:	9b08      	ldr	r3, [sp, #32]
 800484a:	4303      	orrs	r3, r0
 800484c:	f47f aee0 	bne.w	8004610 <_strtod_l+0xa8>
 8004850:	f1bc 0f00 	cmp.w	ip, #0
 8004854:	f47f aeb2 	bne.w	80045bc <_strtod_l+0x54>
 8004858:	2a69      	cmp	r2, #105	@ 0x69
 800485a:	d027      	beq.n	80048ac <_strtod_l+0x344>
 800485c:	dc24      	bgt.n	80048a8 <_strtod_l+0x340>
 800485e:	2a49      	cmp	r2, #73	@ 0x49
 8004860:	d024      	beq.n	80048ac <_strtod_l+0x344>
 8004862:	2a4e      	cmp	r2, #78	@ 0x4e
 8004864:	f47f aeaa 	bne.w	80045bc <_strtod_l+0x54>
 8004868:	499b      	ldr	r1, [pc, #620]	@ (8004ad8 <_strtod_l+0x570>)
 800486a:	a811      	add	r0, sp, #68	@ 0x44
 800486c:	f001 fb7c 	bl	8005f68 <__match>
 8004870:	2800      	cmp	r0, #0
 8004872:	f43f aea3 	beq.w	80045bc <_strtod_l+0x54>
 8004876:	9b11      	ldr	r3, [sp, #68]	@ 0x44
 8004878:	781b      	ldrb	r3, [r3, #0]
 800487a:	2b28      	cmp	r3, #40	@ 0x28
 800487c:	d12d      	bne.n	80048da <_strtod_l+0x372>
 800487e:	4997      	ldr	r1, [pc, #604]	@ (8004adc <_strtod_l+0x574>)
 8004880:	aa14      	add	r2, sp, #80	@ 0x50
 8004882:	a811      	add	r0, sp, #68	@ 0x44
 8004884:	f001 fb84 	bl	8005f90 <__hexnan>
 8004888:	2805      	cmp	r0, #5
 800488a:	d126      	bne.n	80048da <_strtod_l+0x372>
 800488c:	9b15      	ldr	r3, [sp, #84]	@ 0x54
 800488e:	f8dd a050 	ldr.w	sl, [sp, #80]	@ 0x50
 8004892:	f043 4bff 	orr.w	fp, r3, #2139095040	@ 0x7f800000
 8004896:	f44b 0be0 	orr.w	fp, fp, #7340032	@ 0x700000
 800489a:	e6b9      	b.n	8004610 <_strtod_l+0xa8>
 800489c:	250a      	movs	r5, #10
 800489e:	fb05 2e0e 	mla	lr, r5, lr, r2
 80048a2:	f1ae 0e30 	sub.w	lr, lr, #48	@ 0x30
 80048a6:	e7ba      	b.n	800481e <_strtod_l+0x2b6>
 80048a8:	2a6e      	cmp	r2, #110	@ 0x6e
 80048aa:	e7db      	b.n	8004864 <_strtod_l+0x2fc>
 80048ac:	498c      	ldr	r1, [pc, #560]	@ (8004ae0 <_strtod_l+0x578>)
 80048ae:	a811      	add	r0, sp, #68	@ 0x44
 80048b0:	f001 fb5a 	bl	8005f68 <__match>
 80048b4:	2800      	cmp	r0, #0
 80048b6:	f43f ae81 	beq.w	80045bc <_strtod_l+0x54>
 80048ba:	9b11      	ldr	r3, [sp, #68]	@ 0x44
 80048bc:	4989      	ldr	r1, [pc, #548]	@ (8004ae4 <_strtod_l+0x57c>)
 80048be:	3b01      	subs	r3, #1
 80048c0:	a811      	add	r0, sp, #68	@ 0x44
 80048c2:	9311      	str	r3, [sp, #68]	@ 0x44
 80048c4:	f001 fb50 	bl	8005f68 <__match>
 80048c8:	b910      	cbnz	r0, 80048d0 <_strtod_l+0x368>
 80048ca:	9b11      	ldr	r3, [sp, #68]	@ 0x44
 80048cc:	3301      	adds	r3, #1
 80048ce:	9311      	str	r3, [sp, #68]	@ 0x44
 80048d0:	f8df b224 	ldr.w	fp, [pc, #548]	@ 8004af8 <_strtod_l+0x590>
 80048d4:	f04f 0a00 	mov.w	sl, #0
 80048d8:	e69a      	b.n	8004610 <_strtod_l+0xa8>
 80048da:	4883      	ldr	r0, [pc, #524]	@ (8004ae8 <_strtod_l+0x580>)
 80048dc:	f001 f880 	bl	80059e0 <nan>
 80048e0:	ec5b ab10 	vmov	sl, fp, d0
 80048e4:	e694      	b.n	8004610 <_strtod_l+0xa8>
 80048e6:	eddd 7a07 	vldr	s15, [sp, #28]
 80048ea:	eba5 0208 	sub.w	r2, r5, r8
 80048ee:	eeb8 7b67 	vcvt.f64.u32	d7, s15
 80048f2:	2e00      	cmp	r6, #0
 80048f4:	bf08      	it	eq
 80048f6:	461e      	moveq	r6, r3
 80048f8:	2b10      	cmp	r3, #16
 80048fa:	9209      	str	r2, [sp, #36]	@ 0x24
 80048fc:	461a      	mov	r2, r3
 80048fe:	bfa8      	it	ge
 8004900:	2210      	movge	r2, #16
 8004902:	2b09      	cmp	r3, #9
 8004904:	ec5b ab17 	vmov	sl, fp, d7
 8004908:	dc16      	bgt.n	8004938 <_strtod_l+0x3d0>
 800490a:	eba5 0108 	sub.w	r1, r5, r8
 800490e:	2900      	cmp	r1, #0
 8004910:	f43f ae7e 	beq.w	8004610 <_strtod_l+0xa8>
 8004914:	eba5 0108 	sub.w	r1, r5, r8
 8004918:	dd6e      	ble.n	80049f8 <_strtod_l+0x490>
 800491a:	2916      	cmp	r1, #22
 800491c:	dc54      	bgt.n	80049c8 <_strtod_l+0x460>
 800491e:	4b73      	ldr	r3, [pc, #460]	@ (8004aec <_strtod_l+0x584>)
 8004920:	9a09      	ldr	r2, [sp, #36]	@ 0x24
 8004922:	eb03 03c2 	add.w	r3, r3, r2, lsl #3
 8004926:	ed93 7b00 	vldr	d7, [r3]
 800492a:	ec4b ab16 	vmov	d6, sl, fp
 800492e:	ee27 7b06 	vmul.f64	d7, d7, d6
 8004932:	ec5b ab17 	vmov	sl, fp, d7
 8004936:	e66b      	b.n	8004610 <_strtod_l+0xa8>
 8004938:	496c      	ldr	r1, [pc, #432]	@ (8004aec <_strtod_l+0x584>)
 800493a:	eb01 01c2 	add.w	r1, r1, r2, lsl #3
 800493e:	ed11 5b12 	vldr	d5, [r1, #-72]	@ 0xffffffb8
 8004942:	ee06 7a90 	vmov	s13, r7
 8004946:	2b0f      	cmp	r3, #15
 8004948:	eeb8 6b66 	vcvt.f64.u32	d6, s13
 800494c:	eea7 6b05 	vfma.f64	d6, d7, d5
 8004950:	ec5b ab16 	vmov	sl, fp, d6
 8004954:	ddd9      	ble.n	800490a <_strtod_l+0x3a2>
 8004956:	1a9a      	subs	r2, r3, r2
 8004958:	eba5 0108 	sub.w	r1, r5, r8
 800495c:	440a      	add	r2, r1
 800495e:	2a00      	cmp	r2, #0
 8004960:	f340 8098 	ble.w	8004a94 <_strtod_l+0x52c>
 8004964:	f022 010f 	bic.w	r1, r2, #15
 8004968:	f012 020f 	ands.w	r2, r2, #15
 800496c:	d152      	bne.n	8004a14 <_strtod_l+0x4ac>
 800496e:	f5b1 7f9a 	cmp.w	r1, #308	@ 0x134
 8004972:	dc5f      	bgt.n	8004a34 <_strtod_l+0x4cc>
 8004974:	2000      	movs	r0, #0
 8004976:	ec4b ab17 	vmov	d7, sl, fp
 800497a:	4f5d      	ldr	r7, [pc, #372]	@ (8004af0 <_strtod_l+0x588>)
 800497c:	110a      	asrs	r2, r1, #4
 800497e:	4601      	mov	r1, r0
 8004980:	2a01      	cmp	r2, #1
 8004982:	d17b      	bne.n	8004a7c <_strtod_l+0x514>
 8004984:	b108      	cbz	r0, 800498a <_strtod_l+0x422>
 8004986:	ec5b ab17 	vmov	sl, fp, d7
 800498a:	4a59      	ldr	r2, [pc, #356]	@ (8004af0 <_strtod_l+0x588>)
 800498c:	4859      	ldr	r0, [pc, #356]	@ (8004af4 <_strtod_l+0x58c>)
 800498e:	eb02 02c1 	add.w	r2, r2, r1, lsl #3
 8004992:	ed92 7b00 	vldr	d7, [r2]
 8004996:	f1ab 7b54 	sub.w	fp, fp, #55574528	@ 0x3500000
 800499a:	ec4b ab16 	vmov	d6, sl, fp
 800499e:	4a56      	ldr	r2, [pc, #344]	@ (8004af8 <_strtod_l+0x590>)
 80049a0:	ee27 7b06 	vmul.f64	d7, d7, d6
 80049a4:	ee17 1a90 	vmov	r1, s15
 80049a8:	400a      	ands	r2, r1
 80049aa:	4282      	cmp	r2, r0
 80049ac:	ec5b ab17 	vmov	sl, fp, d7
 80049b0:	d840      	bhi.n	8004a34 <_strtod_l+0x4cc>
 80049b2:	f5a0 1080 	sub.w	r0, r0, #1048576	@ 0x100000
 80049b6:	4282      	cmp	r2, r0
 80049b8:	bf86      	itte	hi
 80049ba:	f8df b140 	ldrhi.w	fp, [pc, #320]	@ 8004afc <_strtod_l+0x594>
 80049be:	f04f 3aff 	movhi.w	sl, #4294967295
 80049c2:	f101 7b54 	addls.w	fp, r1, #55574528	@ 0x3500000
 80049c6:	e032      	b.n	8004a2e <_strtod_l+0x4c6>
 80049c8:	f1c3 0125 	rsb	r1, r3, #37	@ 0x25
 80049cc:	eba5 0008 	sub.w	r0, r5, r8
 80049d0:	4281      	cmp	r1, r0
 80049d2:	dbc0      	blt.n	8004956 <_strtod_l+0x3ee>
 80049d4:	4a45      	ldr	r2, [pc, #276]	@ (8004aec <_strtod_l+0x584>)
 80049d6:	f1c3 030f 	rsb	r3, r3, #15
 80049da:	eb02 01c3 	add.w	r1, r2, r3, lsl #3
 80049de:	ed91 7b00 	vldr	d7, [r1]
 80049e2:	9909      	ldr	r1, [sp, #36]	@ 0x24
 80049e4:	ec4b ab16 	vmov	d6, sl, fp
 80049e8:	1acb      	subs	r3, r1, r3
 80049ea:	eb02 02c3 	add.w	r2, r2, r3, lsl #3
 80049ee:	ee27 7b06 	vmul.f64	d7, d7, d6
 80049f2:	ed92 6b00 	vldr	d6, [r2]
 80049f6:	e79a      	b.n	800492e <_strtod_l+0x3c6>
 80049f8:	3116      	adds	r1, #22
 80049fa:	dbac      	blt.n	8004956 <_strtod_l+0x3ee>
 80049fc:	4b3b      	ldr	r3, [pc, #236]	@ (8004aec <_strtod_l+0x584>)
 80049fe:	eba8 0505 	sub.w	r5, r8, r5
 8004a02:	eb03 05c5 	add.w	r5, r3, r5, lsl #3
 8004a06:	ed95 7b00 	vldr	d7, [r5]
 8004a0a:	ec4b ab16 	vmov	d6, sl, fp
 8004a0e:	ee86 7b07 	vdiv.f64	d7, d6, d7
 8004a12:	e78e      	b.n	8004932 <_strtod_l+0x3ca>
 8004a14:	4835      	ldr	r0, [pc, #212]	@ (8004aec <_strtod_l+0x584>)
 8004a16:	eb00 02c2 	add.w	r2, r0, r2, lsl #3
 8004a1a:	ed92 7b00 	vldr	d7, [r2]
 8004a1e:	ec4b ab16 	vmov	d6, sl, fp
 8004a22:	ee27 7b06 	vmul.f64	d7, d7, d6
 8004a26:	ec5b ab17 	vmov	sl, fp, d7
 8004a2a:	2900      	cmp	r1, #0
 8004a2c:	d19f      	bne.n	800496e <_strtod_l+0x406>
 8004a2e:	2200      	movs	r2, #0
 8004a30:	9205      	str	r2, [sp, #20]
 8004a32:	e09c      	b.n	8004b6e <_strtod_l+0x606>
 8004a34:	2400      	movs	r4, #0
 8004a36:	4625      	mov	r5, r4
 8004a38:	9407      	str	r4, [sp, #28]
 8004a3a:	4626      	mov	r6, r4
 8004a3c:	2322      	movs	r3, #34	@ 0x22
 8004a3e:	f8df b0b8 	ldr.w	fp, [pc, #184]	@ 8004af8 <_strtod_l+0x590>
 8004a42:	f8c9 3000 	str.w	r3, [r9]
 8004a46:	f04f 0a00 	mov.w	sl, #0
 8004a4a:	9b07      	ldr	r3, [sp, #28]
 8004a4c:	2b00      	cmp	r3, #0
 8004a4e:	f43f addf 	beq.w	8004610 <_strtod_l+0xa8>
 8004a52:	9912      	ldr	r1, [sp, #72]	@ 0x48
 8004a54:	4648      	mov	r0, r9
 8004a56:	f7ff f8f3 	bl	8003c40 <_Bfree>
 8004a5a:	4631      	mov	r1, r6
 8004a5c:	4648      	mov	r0, r9
 8004a5e:	f7ff f8ef 	bl	8003c40 <_Bfree>
 8004a62:	4629      	mov	r1, r5
 8004a64:	4648      	mov	r0, r9
 8004a66:	f7ff f8eb 	bl	8003c40 <_Bfree>
 8004a6a:	9907      	ldr	r1, [sp, #28]
 8004a6c:	4648      	mov	r0, r9
 8004a6e:	f7ff f8e7 	bl	8003c40 <_Bfree>
 8004a72:	4621      	mov	r1, r4
 8004a74:	4648      	mov	r0, r9
 8004a76:	f7ff f8e3 	bl	8003c40 <_Bfree>
 8004a7a:	e5c9      	b.n	8004610 <_strtod_l+0xa8>
 8004a7c:	f012 0f01 	tst.w	r2, #1
 8004a80:	d004      	beq.n	8004a8c <_strtod_l+0x524>
 8004a82:	ed97 6b00 	vldr	d6, [r7]
 8004a86:	2001      	movs	r0, #1
 8004a88:	ee27 7b06 	vmul.f64	d7, d7, d6
 8004a8c:	3101      	adds	r1, #1
 8004a8e:	1052      	asrs	r2, r2, #1
 8004a90:	3708      	adds	r7, #8
 8004a92:	e775      	b.n	8004980 <_strtod_l+0x418>
 8004a94:	d0cb      	beq.n	8004a2e <_strtod_l+0x4c6>
 8004a96:	4252      	negs	r2, r2
 8004a98:	1111      	asrs	r1, r2, #4
 8004a9a:	f012 020f 	ands.w	r2, r2, #15
 8004a9e:	d10d      	bne.n	8004abc <_strtod_l+0x554>
 8004aa0:	291f      	cmp	r1, #31
 8004aa2:	dd2d      	ble.n	8004b00 <_strtod_l+0x598>
 8004aa4:	2400      	movs	r4, #0
 8004aa6:	4625      	mov	r5, r4
 8004aa8:	9407      	str	r4, [sp, #28]
 8004aaa:	4626      	mov	r6, r4
 8004aac:	2322      	movs	r3, #34	@ 0x22
 8004aae:	f04f 0a00 	mov.w	sl, #0
 8004ab2:	f04f 0b00 	mov.w	fp, #0
 8004ab6:	f8c9 3000 	str.w	r3, [r9]
 8004aba:	e7c6      	b.n	8004a4a <_strtod_l+0x4e2>
 8004abc:	480b      	ldr	r0, [pc, #44]	@ (8004aec <_strtod_l+0x584>)
 8004abe:	eb00 02c2 	add.w	r2, r0, r2, lsl #3
 8004ac2:	ed92 7b00 	vldr	d7, [r2]
 8004ac6:	ec4b ab16 	vmov	d6, sl, fp
 8004aca:	ee86 7b07 	vdiv.f64	d7, d6, d7
 8004ace:	ec5b ab17 	vmov	sl, fp, d7
 8004ad2:	2900      	cmp	r1, #0
 8004ad4:	d0ab      	beq.n	8004a2e <_strtod_l+0x4c6>
 8004ad6:	e7e3      	b.n	8004aa0 <_strtod_l+0x538>
 8004ad8:	08006af9 	.word	0x08006af9
 8004adc:	08006dc0 	.word	0x08006dc0
 8004ae0:	08006af1 	.word	0x08006af1
 8004ae4:	08006b28 	.word	0x08006b28
 8004ae8:	08006c61 	.word	0x08006c61
 8004aec:	08006cf8 	.word	0x08006cf8
 8004af0:	08006cd0 	.word	0x08006cd0
 8004af4:	7ca00000 	.word	0x7ca00000
 8004af8:	7ff00000 	.word	0x7ff00000
 8004afc:	7fefffff 	.word	0x7fefffff
 8004b00:	f011 0210 	ands.w	r2, r1, #16
 8004b04:	bf18      	it	ne
 8004b06:	226a      	movne	r2, #106	@ 0x6a
 8004b08:	9205      	str	r2, [sp, #20]
 8004b0a:	ec4b ab17 	vmov	d7, sl, fp
 8004b0e:	4ab0      	ldr	r2, [pc, #704]	@ (8004dd0 <_strtod_l+0x868>)
 8004b10:	2000      	movs	r0, #0
 8004b12:	07cf      	lsls	r7, r1, #31
 8004b14:	d504      	bpl.n	8004b20 <_strtod_l+0x5b8>
 8004b16:	ed92 6b00 	vldr	d6, [r2]
 8004b1a:	2001      	movs	r0, #1
 8004b1c:	ee27 7b06 	vmul.f64	d7, d7, d6
 8004b20:	1049      	asrs	r1, r1, #1
 8004b22:	f102 0208 	add.w	r2, r2, #8
 8004b26:	d1f4      	bne.n	8004b12 <_strtod_l+0x5aa>
 8004b28:	b108      	cbz	r0, 8004b2e <_strtod_l+0x5c6>
 8004b2a:	ec5b ab17 	vmov	sl, fp, d7
 8004b2e:	9a05      	ldr	r2, [sp, #20]
 8004b30:	b1b2      	cbz	r2, 8004b60 <_strtod_l+0x5f8>
 8004b32:	f3cb 510a 	ubfx	r1, fp, #20, #11
 8004b36:	f1c1 026b 	rsb	r2, r1, #107	@ 0x6b
 8004b3a:	2a00      	cmp	r2, #0
 8004b3c:	4658      	mov	r0, fp
 8004b3e:	dd0f      	ble.n	8004b60 <_strtod_l+0x5f8>
 8004b40:	2a1f      	cmp	r2, #31
 8004b42:	dd54      	ble.n	8004bee <_strtod_l+0x686>
 8004b44:	2a34      	cmp	r2, #52	@ 0x34
 8004b46:	bfde      	ittt	le
 8004b48:	f04f 32ff 	movle.w	r2, #4294967295
 8004b4c:	f1c1 014b 	rsble	r1, r1, #75	@ 0x4b
 8004b50:	408a      	lslle	r2, r1
 8004b52:	f04f 0a00 	mov.w	sl, #0
 8004b56:	bfcc      	ite	gt
 8004b58:	f04f 7b5c 	movgt.w	fp, #57671680	@ 0x3700000
 8004b5c:	ea02 0b00 	andle.w	fp, r2, r0
 8004b60:	ec4b ab17 	vmov	d7, sl, fp
 8004b64:	eeb5 7b40 	vcmp.f64	d7, #0.0
 8004b68:	eef1 fa10 	vmrs	APSR_nzcv, fpscr
 8004b6c:	d09a      	beq.n	8004aa4 <_strtod_l+0x53c>
 8004b6e:	9a07      	ldr	r2, [sp, #28]
 8004b70:	9200      	str	r2, [sp, #0]
 8004b72:	4621      	mov	r1, r4
 8004b74:	4632      	mov	r2, r6
 8004b76:	4648      	mov	r0, r9
 8004b78:	f7ff f8ca 	bl	8003d10 <__s2b>
 8004b7c:	9007      	str	r0, [sp, #28]
 8004b7e:	2800      	cmp	r0, #0
 8004b80:	f43f af58 	beq.w	8004a34 <_strtod_l+0x4cc>
 8004b84:	9a09      	ldr	r2, [sp, #36]	@ 0x24
 8004b86:	2a00      	cmp	r2, #0
 8004b88:	eba8 0305 	sub.w	r3, r8, r5
 8004b8c:	ed9f bb8c 	vldr	d11, [pc, #560]	@ 8004dc0 <_strtod_l+0x858>
 8004b90:	bfa8      	it	ge
 8004b92:	2300      	movge	r3, #0
 8004b94:	930a      	str	r3, [sp, #40]	@ 0x28
 8004b96:	2400      	movs	r4, #0
 8004b98:	ea22 73e2 	bic.w	r3, r2, r2, asr #31
 8004b9c:	930d      	str	r3, [sp, #52]	@ 0x34
 8004b9e:	4625      	mov	r5, r4
 8004ba0:	9b07      	ldr	r3, [sp, #28]
 8004ba2:	4648      	mov	r0, r9
 8004ba4:	6859      	ldr	r1, [r3, #4]
 8004ba6:	f7ff f80d 	bl	8003bc4 <_Balloc>
 8004baa:	4606      	mov	r6, r0
 8004bac:	2800      	cmp	r0, #0
 8004bae:	f43f af45 	beq.w	8004a3c <_strtod_l+0x4d4>
 8004bb2:	9b07      	ldr	r3, [sp, #28]
 8004bb4:	691a      	ldr	r2, [r3, #16]
 8004bb6:	ec4b ab19 	vmov	d9, sl, fp
 8004bba:	3202      	adds	r2, #2
 8004bbc:	f103 010c 	add.w	r1, r3, #12
 8004bc0:	0092      	lsls	r2, r2, #2
 8004bc2:	300c      	adds	r0, #12
 8004bc4:	f000 fefe 	bl	80059c4 <memcpy>
 8004bc8:	eeb0 0b49 	vmov.f64	d0, d9
 8004bcc:	aa14      	add	r2, sp, #80	@ 0x50
 8004bce:	a913      	add	r1, sp, #76	@ 0x4c
 8004bd0:	4648      	mov	r0, r9
 8004bd2:	f7ff fbe1 	bl	8004398 <__d2b>
 8004bd6:	9012      	str	r0, [sp, #72]	@ 0x48
 8004bd8:	2800      	cmp	r0, #0
 8004bda:	f43f af2f 	beq.w	8004a3c <_strtod_l+0x4d4>
 8004bde:	2101      	movs	r1, #1
 8004be0:	4648      	mov	r0, r9
 8004be2:	f7ff f92b 	bl	8003e3c <__i2b>
 8004be6:	4605      	mov	r5, r0
 8004be8:	b940      	cbnz	r0, 8004bfc <_strtod_l+0x694>
 8004bea:	2500      	movs	r5, #0
 8004bec:	e726      	b.n	8004a3c <_strtod_l+0x4d4>
 8004bee:	f04f 31ff 	mov.w	r1, #4294967295
 8004bf2:	fa01 f202 	lsl.w	r2, r1, r2
 8004bf6:	ea02 0a0a 	and.w	sl, r2, sl
 8004bfa:	e7b1      	b.n	8004b60 <_strtod_l+0x5f8>
 8004bfc:	9f13      	ldr	r7, [sp, #76]	@ 0x4c
 8004bfe:	9a14      	ldr	r2, [sp, #80]	@ 0x50
 8004c00:	2f00      	cmp	r7, #0
 8004c02:	bfb1      	iteee	lt
 8004c04:	9b0d      	ldrlt	r3, [sp, #52]	@ 0x34
 8004c06:	9b0a      	ldrge	r3, [sp, #40]	@ 0x28
 8004c08:	f8dd 8034 	ldrge.w	r8, [sp, #52]	@ 0x34
 8004c0c:	18fb      	addge	r3, r7, r3
 8004c0e:	bfbb      	ittet	lt
 8004c10:	eba3 0807 	sublt.w	r8, r3, r7
 8004c14:	9b0a      	ldrlt	r3, [sp, #40]	@ 0x28
 8004c16:	9308      	strge	r3, [sp, #32]
 8004c18:	9308      	strlt	r3, [sp, #32]
 8004c1a:	9b05      	ldr	r3, [sp, #20]
 8004c1c:	1aff      	subs	r7, r7, r3
 8004c1e:	4417      	add	r7, r2
 8004c20:	f1c2 0336 	rsb	r3, r2, #54	@ 0x36
 8004c24:	4a6b      	ldr	r2, [pc, #428]	@ (8004dd4 <_strtod_l+0x86c>)
 8004c26:	3f01      	subs	r7, #1
 8004c28:	4297      	cmp	r7, r2
 8004c2a:	da51      	bge.n	8004cd0 <_strtod_l+0x768>
 8004c2c:	1bd1      	subs	r1, r2, r7
 8004c2e:	291f      	cmp	r1, #31
 8004c30:	eba3 0301 	sub.w	r3, r3, r1
 8004c34:	f04f 0201 	mov.w	r2, #1
 8004c38:	dc3e      	bgt.n	8004cb8 <_strtod_l+0x750>
 8004c3a:	408a      	lsls	r2, r1
 8004c3c:	920c      	str	r2, [sp, #48]	@ 0x30
 8004c3e:	2200      	movs	r2, #0
 8004c40:	920b      	str	r2, [sp, #44]	@ 0x2c
 8004c42:	9a08      	ldr	r2, [sp, #32]
 8004c44:	4498      	add	r8, r3
 8004c46:	18d7      	adds	r7, r2, r3
 8004c48:	9b05      	ldr	r3, [sp, #20]
 8004c4a:	42ba      	cmp	r2, r7
 8004c4c:	4498      	add	r8, r3
 8004c4e:	4613      	mov	r3, r2
 8004c50:	bfa8      	it	ge
 8004c52:	463b      	movge	r3, r7
 8004c54:	4543      	cmp	r3, r8
 8004c56:	bfa8      	it	ge
 8004c58:	4643      	movge	r3, r8
 8004c5a:	2b00      	cmp	r3, #0
 8004c5c:	bfc1      	itttt	gt
 8004c5e:	1aff      	subgt	r7, r7, r3
 8004c60:	eba8 0803 	subgt.w	r8, r8, r3
 8004c64:	1ad3      	subgt	r3, r2, r3
 8004c66:	9308      	strgt	r3, [sp, #32]
 8004c68:	9b0a      	ldr	r3, [sp, #40]	@ 0x28
 8004c6a:	2b00      	cmp	r3, #0
 8004c6c:	dd16      	ble.n	8004c9c <_strtod_l+0x734>
 8004c6e:	4629      	mov	r1, r5
 8004c70:	461a      	mov	r2, r3
 8004c72:	4648      	mov	r0, r9
 8004c74:	f7ff f9a2 	bl	8003fbc <__pow5mult>
 8004c78:	4605      	mov	r5, r0
 8004c7a:	2800      	cmp	r0, #0
 8004c7c:	d0b5      	beq.n	8004bea <_strtod_l+0x682>
 8004c7e:	4601      	mov	r1, r0
 8004c80:	9a12      	ldr	r2, [sp, #72]	@ 0x48
 8004c82:	4648      	mov	r0, r9
 8004c84:	f7ff f8f0 	bl	8003e68 <__multiply>
 8004c88:	900f      	str	r0, [sp, #60]	@ 0x3c
 8004c8a:	2800      	cmp	r0, #0
 8004c8c:	f43f aed6 	beq.w	8004a3c <_strtod_l+0x4d4>
 8004c90:	9912      	ldr	r1, [sp, #72]	@ 0x48
 8004c92:	4648      	mov	r0, r9
 8004c94:	f7fe ffd4 	bl	8003c40 <_Bfree>
 8004c98:	9b0f      	ldr	r3, [sp, #60]	@ 0x3c
 8004c9a:	9312      	str	r3, [sp, #72]	@ 0x48
 8004c9c:	2f00      	cmp	r7, #0
 8004c9e:	dc1b      	bgt.n	8004cd8 <_strtod_l+0x770>
 8004ca0:	9b09      	ldr	r3, [sp, #36]	@ 0x24
 8004ca2:	2b00      	cmp	r3, #0
 8004ca4:	dd21      	ble.n	8004cea <_strtod_l+0x782>
 8004ca6:	4631      	mov	r1, r6
 8004ca8:	9a0d      	ldr	r2, [sp, #52]	@ 0x34
 8004caa:	4648      	mov	r0, r9
 8004cac:	f7ff f986 	bl	8003fbc <__pow5mult>
 8004cb0:	4606      	mov	r6, r0
 8004cb2:	b9d0      	cbnz	r0, 8004cea <_strtod_l+0x782>
 8004cb4:	2600      	movs	r6, #0
 8004cb6:	e6c1      	b.n	8004a3c <_strtod_l+0x4d4>
 8004cb8:	f1c7 477f 	rsb	r7, r7, #4278190080	@ 0xff000000
 8004cbc:	f507 077f 	add.w	r7, r7, #16711680	@ 0xff0000
 8004cc0:	f507 477b 	add.w	r7, r7, #64256	@ 0xfb00
 8004cc4:	37e2      	adds	r7, #226	@ 0xe2
 8004cc6:	fa02 f107 	lsl.w	r1, r2, r7
 8004cca:	910b      	str	r1, [sp, #44]	@ 0x2c
 8004ccc:	920c      	str	r2, [sp, #48]	@ 0x30
 8004cce:	e7b8      	b.n	8004c42 <_strtod_l+0x6da>
 8004cd0:	2200      	movs	r2, #0
 8004cd2:	920b      	str	r2, [sp, #44]	@ 0x2c
 8004cd4:	2201      	movs	r2, #1
 8004cd6:	e7f9      	b.n	8004ccc <_strtod_l+0x764>
 8004cd8:	9912      	ldr	r1, [sp, #72]	@ 0x48
 8004cda:	463a      	mov	r2, r7
 8004cdc:	4648      	mov	r0, r9
 8004cde:	f7ff f9c9 	bl	8004074 <__lshift>
 8004ce2:	9012      	str	r0, [sp, #72]	@ 0x48
 8004ce4:	2800      	cmp	r0, #0
 8004ce6:	d1db      	bne.n	8004ca0 <_strtod_l+0x738>
 8004ce8:	e6a8      	b.n	8004a3c <_strtod_l+0x4d4>
 8004cea:	f1b8 0f00 	cmp.w	r8, #0
 8004cee:	dd07      	ble.n	8004d00 <_strtod_l+0x798>
 8004cf0:	4631      	mov	r1, r6
 8004cf2:	4642      	mov	r2, r8
 8004cf4:	4648      	mov	r0, r9
 8004cf6:	f7ff f9bd 	bl	8004074 <__lshift>
 8004cfa:	4606      	mov	r6, r0
 8004cfc:	2800      	cmp	r0, #0
 8004cfe:	d0d9      	beq.n	8004cb4 <_strtod_l+0x74c>
 8004d00:	9b08      	ldr	r3, [sp, #32]
 8004d02:	2b00      	cmp	r3, #0
 8004d04:	dd08      	ble.n	8004d18 <_strtod_l+0x7b0>
 8004d06:	4629      	mov	r1, r5
 8004d08:	461a      	mov	r2, r3
 8004d0a:	4648      	mov	r0, r9
 8004d0c:	f7ff f9b2 	bl	8004074 <__lshift>
 8004d10:	4605      	mov	r5, r0
 8004d12:	2800      	cmp	r0, #0
 8004d14:	f43f ae92 	beq.w	8004a3c <_strtod_l+0x4d4>
 8004d18:	9912      	ldr	r1, [sp, #72]	@ 0x48
 8004d1a:	4632      	mov	r2, r6
 8004d1c:	4648      	mov	r0, r9
 8004d1e:	f7ff fa33 	bl	8004188 <__mdiff>
 8004d22:	4604      	mov	r4, r0
 8004d24:	2800      	cmp	r0, #0
 8004d26:	f43f ae89 	beq.w	8004a3c <_strtod_l+0x4d4>
 8004d2a:	68c3      	ldr	r3, [r0, #12]
 8004d2c:	9308      	str	r3, [sp, #32]
 8004d2e:	2300      	movs	r3, #0
 8004d30:	60c3      	str	r3, [r0, #12]
 8004d32:	4629      	mov	r1, r5
 8004d34:	f7ff fa0c 	bl	8004150 <__mcmp>
 8004d38:	2800      	cmp	r0, #0
 8004d3a:	da4f      	bge.n	8004ddc <_strtod_l+0x874>
 8004d3c:	9b08      	ldr	r3, [sp, #32]
 8004d3e:	ea53 030a 	orrs.w	r3, r3, sl
 8004d42:	d173      	bne.n	8004e2c <_strtod_l+0x8c4>
 8004d44:	f3cb 0313 	ubfx	r3, fp, #0, #20
 8004d48:	46d8      	mov	r8, fp
 8004d4a:	2b00      	cmp	r3, #0
 8004d4c:	d16e      	bne.n	8004e2c <_strtod_l+0x8c4>
 8004d4e:	f02b 4300 	bic.w	r3, fp, #2147483648	@ 0x80000000
 8004d52:	0d1b      	lsrs	r3, r3, #20
 8004d54:	051b      	lsls	r3, r3, #20
 8004d56:	f1b3 6fd6 	cmp.w	r3, #112197632	@ 0x6b00000
 8004d5a:	d967      	bls.n	8004e2c <_strtod_l+0x8c4>
 8004d5c:	6963      	ldr	r3, [r4, #20]
 8004d5e:	b913      	cbnz	r3, 8004d66 <_strtod_l+0x7fe>
 8004d60:	6923      	ldr	r3, [r4, #16]
 8004d62:	2b01      	cmp	r3, #1
 8004d64:	dd62      	ble.n	8004e2c <_strtod_l+0x8c4>
 8004d66:	4621      	mov	r1, r4
 8004d68:	2201      	movs	r2, #1
 8004d6a:	4648      	mov	r0, r9
 8004d6c:	f7ff f982 	bl	8004074 <__lshift>
 8004d70:	4629      	mov	r1, r5
 8004d72:	4604      	mov	r4, r0
 8004d74:	f7ff f9ec 	bl	8004150 <__mcmp>
 8004d78:	2800      	cmp	r0, #0
 8004d7a:	dd57      	ble.n	8004e2c <_strtod_l+0x8c4>
 8004d7c:	4b16      	ldr	r3, [pc, #88]	@ (8004dd8 <_strtod_l+0x870>)
 8004d7e:	9a05      	ldr	r2, [sp, #20]
 8004d80:	ea08 0303 	and.w	r3, r8, r3
 8004d84:	2a00      	cmp	r2, #0
 8004d86:	d06e      	beq.n	8004e66 <_strtod_l+0x8fe>
 8004d88:	f1b3 6fd6 	cmp.w	r3, #112197632	@ 0x6b00000
 8004d8c:	d86b      	bhi.n	8004e66 <_strtod_l+0x8fe>
 8004d8e:	f1b3 7f5c 	cmp.w	r3, #57671680	@ 0x3700000
 8004d92:	f67f ae8b 	bls.w	8004aac <_strtod_l+0x544>
 8004d96:	ed9f 7b0c 	vldr	d7, [pc, #48]	@ 8004dc8 <_strtod_l+0x860>
 8004d9a:	ec4b ab16 	vmov	d6, sl, fp
 8004d9e:	4b0e      	ldr	r3, [pc, #56]	@ (8004dd8 <_strtod_l+0x870>)
 8004da0:	ee26 7b07 	vmul.f64	d7, d6, d7
 8004da4:	ee17 2a90 	vmov	r2, s15
 8004da8:	4013      	ands	r3, r2
 8004daa:	ec5b ab17 	vmov	sl, fp, d7
 8004dae:	2b00      	cmp	r3, #0
 8004db0:	f47f ae4f 	bne.w	8004a52 <_strtod_l+0x4ea>
 8004db4:	2322      	movs	r3, #34	@ 0x22
 8004db6:	f8c9 3000 	str.w	r3, [r9]
 8004dba:	e64a      	b.n	8004a52 <_strtod_l+0x4ea>
 8004dbc:	f3af 8000 	nop.w
 8004dc0:	ffc00000 	.word	0xffc00000
 8004dc4:	41dfffff 	.word	0x41dfffff
 8004dc8:	00000000 	.word	0x00000000
 8004dcc:	39500000 	.word	0x39500000
 8004dd0:	08006de8 	.word	0x08006de8
 8004dd4:	fffffc02 	.word	0xfffffc02
 8004dd8:	7ff00000 	.word	0x7ff00000
 8004ddc:	46d8      	mov	r8, fp
 8004dde:	d15b      	bne.n	8004e98 <_strtod_l+0x930>
 8004de0:	9a08      	ldr	r2, [sp, #32]
 8004de2:	f3cb 0313 	ubfx	r3, fp, #0, #20
 8004de6:	b352      	cbz	r2, 8004e3e <_strtod_l+0x8d6>
 8004de8:	4aa9      	ldr	r2, [pc, #676]	@ (8005090 <_strtod_l+0xb28>)
 8004dea:	4293      	cmp	r3, r2
 8004dec:	d12a      	bne.n	8004e44 <_strtod_l+0x8dc>
 8004dee:	9b05      	ldr	r3, [sp, #20]
 8004df0:	4652      	mov	r2, sl
 8004df2:	b1fb      	cbz	r3, 8004e34 <_strtod_l+0x8cc>
 8004df4:	4ba7      	ldr	r3, [pc, #668]	@ (8005094 <_strtod_l+0xb2c>)
 8004df6:	ea0b 0303 	and.w	r3, fp, r3
 8004dfa:	f1b3 6fd4 	cmp.w	r3, #111149056	@ 0x6a00000
 8004dfe:	f04f 31ff 	mov.w	r1, #4294967295
 8004e02:	d81a      	bhi.n	8004e3a <_strtod_l+0x8d2>
 8004e04:	0d1b      	lsrs	r3, r3, #20
 8004e06:	f1c3 036b 	rsb	r3, r3, #107	@ 0x6b
 8004e0a:	fa01 f303 	lsl.w	r3, r1, r3
 8004e0e:	429a      	cmp	r2, r3
 8004e10:	d118      	bne.n	8004e44 <_strtod_l+0x8dc>
 8004e12:	4ba1      	ldr	r3, [pc, #644]	@ (8005098 <_strtod_l+0xb30>)
 8004e14:	4598      	cmp	r8, r3
 8004e16:	d102      	bne.n	8004e1e <_strtod_l+0x8b6>
 8004e18:	3201      	adds	r2, #1
 8004e1a:	f43f ae0f 	beq.w	8004a3c <_strtod_l+0x4d4>
 8004e1e:	4b9d      	ldr	r3, [pc, #628]	@ (8005094 <_strtod_l+0xb2c>)
 8004e20:	ea08 0303 	and.w	r3, r8, r3
 8004e24:	f503 1b80 	add.w	fp, r3, #1048576	@ 0x100000
 8004e28:	f04f 0a00 	mov.w	sl, #0
 8004e2c:	9b05      	ldr	r3, [sp, #20]
 8004e2e:	2b00      	cmp	r3, #0
 8004e30:	d1b1      	bne.n	8004d96 <_strtod_l+0x82e>
 8004e32:	e60e      	b.n	8004a52 <_strtod_l+0x4ea>
 8004e34:	f04f 33ff 	mov.w	r3, #4294967295
 8004e38:	e7e9      	b.n	8004e0e <_strtod_l+0x8a6>
 8004e3a:	460b      	mov	r3, r1
 8004e3c:	e7e7      	b.n	8004e0e <_strtod_l+0x8a6>
 8004e3e:	ea53 030a 	orrs.w	r3, r3, sl
 8004e42:	d09b      	beq.n	8004d7c <_strtod_l+0x814>
 8004e44:	9b0b      	ldr	r3, [sp, #44]	@ 0x2c
 8004e46:	b1bb      	cbz	r3, 8004e78 <_strtod_l+0x910>
 8004e48:	ea13 0f08 	tst.w	r3, r8
 8004e4c:	d0ee      	beq.n	8004e2c <_strtod_l+0x8c4>
 8004e4e:	9b08      	ldr	r3, [sp, #32]
 8004e50:	9a05      	ldr	r2, [sp, #20]
 8004e52:	4650      	mov	r0, sl
 8004e54:	4659      	mov	r1, fp
 8004e56:	b19b      	cbz	r3, 8004e80 <_strtod_l+0x918>
 8004e58:	f7ff fb69 	bl	800452e <sulp>
 8004e5c:	ee39 7b00 	vadd.f64	d7, d9, d0
 8004e60:	ec5b ab17 	vmov	sl, fp, d7
 8004e64:	e7e2      	b.n	8004e2c <_strtod_l+0x8c4>
 8004e66:	f5a3 1380 	sub.w	r3, r3, #1048576	@ 0x100000
 8004e6a:	ea6f 5b13 	mvn.w	fp, r3, lsr #20
 8004e6e:	ea6f 5b0b 	mvn.w	fp, fp, lsl #20
 8004e72:	f04f 3aff 	mov.w	sl, #4294967295
 8004e76:	e7d9      	b.n	8004e2c <_strtod_l+0x8c4>
 8004e78:	9b0c      	ldr	r3, [sp, #48]	@ 0x30
 8004e7a:	ea13 0f0a 	tst.w	r3, sl
 8004e7e:	e7e5      	b.n	8004e4c <_strtod_l+0x8e4>
 8004e80:	f7ff fb55 	bl	800452e <sulp>
 8004e84:	ee39 0b40 	vsub.f64	d0, d9, d0
 8004e88:	eeb5 0b40 	vcmp.f64	d0, #0.0
 8004e8c:	eef1 fa10 	vmrs	APSR_nzcv, fpscr
 8004e90:	ec5b ab10 	vmov	sl, fp, d0
 8004e94:	d1ca      	bne.n	8004e2c <_strtod_l+0x8c4>
 8004e96:	e609      	b.n	8004aac <_strtod_l+0x544>
 8004e98:	4629      	mov	r1, r5
 8004e9a:	4620      	mov	r0, r4
 8004e9c:	f7ff fad4 	bl	8004448 <__ratio>
 8004ea0:	eeb0 7b00 	vmov.f64	d7, #0	@ 0x40000000  2.0
 8004ea4:	eeb4 0bc7 	vcmpe.f64	d0, d7
 8004ea8:	eef1 fa10 	vmrs	APSR_nzcv, fpscr
 8004eac:	d85d      	bhi.n	8004f6a <_strtod_l+0xa02>
 8004eae:	9b08      	ldr	r3, [sp, #32]
 8004eb0:	2b00      	cmp	r3, #0
 8004eb2:	d164      	bne.n	8004f7e <_strtod_l+0xa16>
 8004eb4:	f1ba 0f00 	cmp.w	sl, #0
 8004eb8:	d14b      	bne.n	8004f52 <_strtod_l+0x9ea>
 8004eba:	f3cb 0313 	ubfx	r3, fp, #0, #20
 8004ebe:	eeb7 8b00 	vmov.f64	d8, #112	@ 0x3f800000  1.0
 8004ec2:	2b00      	cmp	r3, #0
 8004ec4:	d160      	bne.n	8004f88 <_strtod_l+0xa20>
 8004ec6:	eeb4 0bc8 	vcmpe.f64	d0, d8
 8004eca:	eeb6 8b00 	vmov.f64	d8, #96	@ 0x3f000000  0.5
 8004ece:	eef1 fa10 	vmrs	APSR_nzcv, fpscr
 8004ed2:	d401      	bmi.n	8004ed8 <_strtod_l+0x970>
 8004ed4:	ee20 8b08 	vmul.f64	d8, d0, d8
 8004ed8:	eeb1 ab48 	vneg.f64	d10, d8
 8004edc:	4f6d      	ldr	r7, [pc, #436]	@ (8005094 <_strtod_l+0xb2c>)
 8004ede:	496f      	ldr	r1, [pc, #444]	@ (800509c <_strtod_l+0xb34>)
 8004ee0:	ea08 0007 	and.w	r0, r8, r7
 8004ee4:	4288      	cmp	r0, r1
 8004ee6:	ec53 2b1a 	vmov	r2, r3, d10
 8004eea:	d17c      	bne.n	8004fe6 <_strtod_l+0xa7e>
 8004eec:	f1a8 7b54 	sub.w	fp, r8, #55574528	@ 0x3500000
 8004ef0:	ec4b ab1c 	vmov	d12, sl, fp
 8004ef4:	eeb0 0b4c 	vmov.f64	d0, d12
 8004ef8:	900b      	str	r0, [sp, #44]	@ 0x2c
 8004efa:	f7ff f9dd 	bl	80042b8 <__ulp>
 8004efe:	eea0 cb0a 	vfma.f64	d12, d0, d10
 8004f02:	ee1c 3a90 	vmov	r3, s25
 8004f06:	4a66      	ldr	r2, [pc, #408]	@ (80050a0 <_strtod_l+0xb38>)
 8004f08:	980b      	ldr	r0, [sp, #44]	@ 0x2c
 8004f0a:	401f      	ands	r7, r3
 8004f0c:	4297      	cmp	r7, r2
 8004f0e:	ec5b ab1c 	vmov	sl, fp, d12
 8004f12:	d93c      	bls.n	8004f8e <_strtod_l+0xa26>
 8004f14:	ee19 2a90 	vmov	r2, s19
 8004f18:	4b5f      	ldr	r3, [pc, #380]	@ (8005098 <_strtod_l+0xb30>)
 8004f1a:	429a      	cmp	r2, r3
 8004f1c:	d104      	bne.n	8004f28 <_strtod_l+0x9c0>
 8004f1e:	ee19 3a10 	vmov	r3, s18
 8004f22:	3301      	adds	r3, #1
 8004f24:	f43f ad8a 	beq.w	8004a3c <_strtod_l+0x4d4>
 8004f28:	f8df b16c 	ldr.w	fp, [pc, #364]	@ 8005098 <_strtod_l+0xb30>
 8004f2c:	f04f 3aff 	mov.w	sl, #4294967295
 8004f30:	9912      	ldr	r1, [sp, #72]	@ 0x48
 8004f32:	4648      	mov	r0, r9
 8004f34:	f7fe fe84 	bl	8003c40 <_Bfree>
 8004f38:	4631      	mov	r1, r6
 8004f3a:	4648      	mov	r0, r9
 8004f3c:	f7fe fe80 	bl	8003c40 <_Bfree>
 8004f40:	4629      	mov	r1, r5
 8004f42:	4648      	mov	r0, r9
 8004f44:	f7fe fe7c 	bl	8003c40 <_Bfree>
 8004f48:	4621      	mov	r1, r4
 8004f4a:	4648      	mov	r0, r9
 8004f4c:	f7fe fe78 	bl	8003c40 <_Bfree>
 8004f50:	e626      	b.n	8004ba0 <_strtod_l+0x638>
 8004f52:	f1ba 0f01 	cmp.w	sl, #1
 8004f56:	d103      	bne.n	8004f60 <_strtod_l+0x9f8>
 8004f58:	f1bb 0f00 	cmp.w	fp, #0
 8004f5c:	f43f ada6 	beq.w	8004aac <_strtod_l+0x544>
 8004f60:	eebf ab00 	vmov.f64	d10, #240	@ 0xbf800000 -1.0
 8004f64:	eeb7 8b00 	vmov.f64	d8, #112	@ 0x3f800000  1.0
 8004f68:	e7b8      	b.n	8004edc <_strtod_l+0x974>
 8004f6a:	9b08      	ldr	r3, [sp, #32]
 8004f6c:	eeb6 8b00 	vmov.f64	d8, #96	@ 0x3f000000  0.5
 8004f70:	ee20 8b08 	vmul.f64	d8, d0, d8
 8004f74:	2b00      	cmp	r3, #0
 8004f76:	d0af      	beq.n	8004ed8 <_strtod_l+0x970>
 8004f78:	eeb0 ab48 	vmov.f64	d10, d8
 8004f7c:	e7ae      	b.n	8004edc <_strtod_l+0x974>
 8004f7e:	eeb7 ab00 	vmov.f64	d10, #112	@ 0x3f800000  1.0
 8004f82:	eeb0 8b4a 	vmov.f64	d8, d10
 8004f86:	e7a9      	b.n	8004edc <_strtod_l+0x974>
 8004f88:	eebf ab00 	vmov.f64	d10, #240	@ 0xbf800000 -1.0
 8004f8c:	e7a6      	b.n	8004edc <_strtod_l+0x974>
 8004f8e:	f103 7b54 	add.w	fp, r3, #55574528	@ 0x3500000
 8004f92:	9b05      	ldr	r3, [sp, #20]
 8004f94:	2b00      	cmp	r3, #0
 8004f96:	d1cb      	bne.n	8004f30 <_strtod_l+0x9c8>
 8004f98:	f02b 4300 	bic.w	r3, fp, #2147483648	@ 0x80000000
 8004f9c:	0d1b      	lsrs	r3, r3, #20
 8004f9e:	051b      	lsls	r3, r3, #20
 8004fa0:	4298      	cmp	r0, r3
 8004fa2:	d1c5      	bne.n	8004f30 <_strtod_l+0x9c8>
 8004fa4:	ec51 0b18 	vmov	r0, r1, d8
 8004fa8:	f7fb fabe 	bl	8000528 <__aeabi_d2lz>
 8004fac:	f7fb fa8e 	bl	80004cc <__aeabi_l2d>
 8004fb0:	9a08      	ldr	r2, [sp, #32]
 8004fb2:	f3cb 0313 	ubfx	r3, fp, #0, #20
 8004fb6:	ec41 0b17 	vmov	d7, r0, r1
 8004fba:	ea43 030a 	orr.w	r3, r3, sl
 8004fbe:	4313      	orrs	r3, r2
 8004fc0:	ee38 8b47 	vsub.f64	d8, d8, d7
 8004fc4:	d03d      	beq.n	8005042 <_strtod_l+0xada>
 8004fc6:	ed9f 7b2c 	vldr	d7, [pc, #176]	@ 8005078 <_strtod_l+0xb10>
 8004fca:	eeb4 8bc7 	vcmpe.f64	d8, d7
 8004fce:	eef1 fa10 	vmrs	APSR_nzcv, fpscr
 8004fd2:	f53f ad3e 	bmi.w	8004a52 <_strtod_l+0x4ea>
 8004fd6:	ed9f 7b2a 	vldr	d7, [pc, #168]	@ 8005080 <_strtod_l+0xb18>
 8004fda:	eeb4 8bc7 	vcmpe.f64	d8, d7
 8004fde:	eef1 fa10 	vmrs	APSR_nzcv, fpscr
 8004fe2:	dda5      	ble.n	8004f30 <_strtod_l+0x9c8>
 8004fe4:	e535      	b.n	8004a52 <_strtod_l+0x4ea>
 8004fe6:	9905      	ldr	r1, [sp, #20]
 8004fe8:	b1d9      	cbz	r1, 8005022 <_strtod_l+0xaba>
 8004fea:	f1b0 6fd4 	cmp.w	r0, #111149056	@ 0x6a00000
 8004fee:	d818      	bhi.n	8005022 <_strtod_l+0xaba>
 8004ff0:	eeb4 8bcb 	vcmpe.f64	d8, d11
 8004ff4:	eef1 fa10 	vmrs	APSR_nzcv, fpscr
 8004ff8:	d810      	bhi.n	800501c <_strtod_l+0xab4>
 8004ffa:	eebc 8bc8 	vcvt.u32.f64	s16, d8
 8004ffe:	ee18 3a10 	vmov	r3, s16
 8005002:	2b01      	cmp	r3, #1
 8005004:	bf38      	it	cc
 8005006:	2301      	movcc	r3, #1
 8005008:	ee08 3a10 	vmov	s16, r3
 800500c:	9b08      	ldr	r3, [sp, #32]
 800500e:	eeb8 8b48 	vcvt.f64.u32	d8, s16
 8005012:	b99b      	cbnz	r3, 800503c <_strtod_l+0xad4>
 8005014:	eeb1 7b48 	vneg.f64	d7, d8
 8005018:	ec53 2b17 	vmov	r2, r3, d7
 800501c:	f103 61d6 	add.w	r1, r3, #112197632	@ 0x6b00000
 8005020:	1a0b      	subs	r3, r1, r0
 8005022:	eeb0 0b49 	vmov.f64	d0, d9
 8005026:	ec43 2b1a 	vmov	d10, r2, r3
 800502a:	900b      	str	r0, [sp, #44]	@ 0x2c
 800502c:	f7ff f944 	bl	80042b8 <__ulp>
 8005030:	980b      	ldr	r0, [sp, #44]	@ 0x2c
 8005032:	eeaa 9b00 	vfma.f64	d9, d10, d0
 8005036:	ec5b ab19 	vmov	sl, fp, d9
 800503a:	e7aa      	b.n	8004f92 <_strtod_l+0xa2a>
 800503c:	eeb0 7b48 	vmov.f64	d7, d8
 8005040:	e7ea      	b.n	8005018 <_strtod_l+0xab0>
 8005042:	ed9f 7b11 	vldr	d7, [pc, #68]	@ 8005088 <_strtod_l+0xb20>
 8005046:	eeb4 8bc7 	vcmpe.f64	d8, d7
 800504a:	eef1 fa10 	vmrs	APSR_nzcv, fpscr
 800504e:	f57f af6f 	bpl.w	8004f30 <_strtod_l+0x9c8>
 8005052:	e4fe      	b.n	8004a52 <_strtod_l+0x4ea>
 8005054:	2300      	movs	r3, #0
 8005056:	9306      	str	r3, [sp, #24]
 8005058:	9a0e      	ldr	r2, [sp, #56]	@ 0x38
 800505a:	9b11      	ldr	r3, [sp, #68]	@ 0x44
 800505c:	6013      	str	r3, [r2, #0]
 800505e:	f7ff badb 	b.w	8004618 <_strtod_l+0xb0>
 8005062:	2a65      	cmp	r2, #101	@ 0x65
 8005064:	f43f abb6 	beq.w	80047d4 <_strtod_l+0x26c>
 8005068:	2a45      	cmp	r2, #69	@ 0x45
 800506a:	f43f abb3 	beq.w	80047d4 <_strtod_l+0x26c>
 800506e:	f04f 0c01 	mov.w	ip, #1
 8005072:	f7ff bbe9 	b.w	8004848 <_strtod_l+0x2e0>
 8005076:	bf00      	nop
 8005078:	94a03595 	.word	0x94a03595
 800507c:	3fdfffff 	.word	0x3fdfffff
 8005080:	35afe535 	.word	0x35afe535
 8005084:	3fe00000 	.word	0x3fe00000
 8005088:	94a03595 	.word	0x94a03595
 800508c:	3fcfffff 	.word	0x3fcfffff
 8005090:	000fffff 	.word	0x000fffff
 8005094:	7ff00000 	.word	0x7ff00000
 8005098:	7fefffff 	.word	0x7fefffff
 800509c:	7fe00000 	.word	0x7fe00000
 80050a0:	7c9fffff 	.word	0x7c9fffff

080050a4 <_strtod_r>:
 80050a4:	4b01      	ldr	r3, [pc, #4]	@ (80050ac <_strtod_r+0x8>)
 80050a6:	f7ff ba5f 	b.w	8004568 <_strtod_l>
 80050aa:	bf00      	nop
 80050ac:	2000006c 	.word	0x2000006c

080050b0 <_strtol_l.isra.0>:
 80050b0:	2b24      	cmp	r3, #36	@ 0x24
 80050b2:	e92d 47f0 	stmdb	sp!, {r4, r5, r6, r7, r8, r9, sl, lr}
 80050b6:	4686      	mov	lr, r0
 80050b8:	4690      	mov	r8, r2
 80050ba:	d801      	bhi.n	80050c0 <_strtol_l.isra.0+0x10>
 80050bc:	2b01      	cmp	r3, #1
 80050be:	d106      	bne.n	80050ce <_strtol_l.isra.0+0x1e>
 80050c0:	f7fd fe9c 	bl	8002dfc <__errno>
 80050c4:	2316      	movs	r3, #22
 80050c6:	6003      	str	r3, [r0, #0]
 80050c8:	2000      	movs	r0, #0
 80050ca:	e8bd 87f0 	ldmia.w	sp!, {r4, r5, r6, r7, r8, r9, sl, pc}
 80050ce:	4834      	ldr	r0, [pc, #208]	@ (80051a0 <_strtol_l.isra.0+0xf0>)
 80050d0:	460d      	mov	r5, r1
 80050d2:	462a      	mov	r2, r5
 80050d4:	f815 4b01 	ldrb.w	r4, [r5], #1
 80050d8:	5d06      	ldrb	r6, [r0, r4]
 80050da:	f016 0608 	ands.w	r6, r6, #8
 80050de:	d1f8      	bne.n	80050d2 <_strtol_l.isra.0+0x22>
 80050e0:	2c2d      	cmp	r4, #45	@ 0x2d
 80050e2:	d110      	bne.n	8005106 <_strtol_l.isra.0+0x56>
 80050e4:	782c      	ldrb	r4, [r5, #0]
 80050e6:	2601      	movs	r6, #1
 80050e8:	1c95      	adds	r5, r2, #2
 80050ea:	f033 0210 	bics.w	r2, r3, #16
 80050ee:	d115      	bne.n	800511c <_strtol_l.isra.0+0x6c>
 80050f0:	2c30      	cmp	r4, #48	@ 0x30
 80050f2:	d10d      	bne.n	8005110 <_strtol_l.isra.0+0x60>
 80050f4:	782a      	ldrb	r2, [r5, #0]
 80050f6:	f002 02df 	and.w	r2, r2, #223	@ 0xdf
 80050fa:	2a58      	cmp	r2, #88	@ 0x58
 80050fc:	d108      	bne.n	8005110 <_strtol_l.isra.0+0x60>
 80050fe:	786c      	ldrb	r4, [r5, #1]
 8005100:	3502      	adds	r5, #2
 8005102:	2310      	movs	r3, #16
 8005104:	e00a      	b.n	800511c <_strtol_l.isra.0+0x6c>
 8005106:	2c2b      	cmp	r4, #43	@ 0x2b
 8005108:	bf04      	itt	eq
 800510a:	782c      	ldrbeq	r4, [r5, #0]
 800510c:	1c95      	addeq	r5, r2, #2
 800510e:	e7ec      	b.n	80050ea <_strtol_l.isra.0+0x3a>
 8005110:	2b00      	cmp	r3, #0
 8005112:	d1f6      	bne.n	8005102 <_strtol_l.isra.0+0x52>
 8005114:	2c30      	cmp	r4, #48	@ 0x30
 8005116:	bf14      	ite	ne
 8005118:	230a      	movne	r3, #10
 800511a:	2308      	moveq	r3, #8
 800511c:	f106 4c00 	add.w	ip, r6, #2147483648	@ 0x80000000
 8005120:	f10c 3cff 	add.w	ip, ip, #4294967295
 8005124:	2200      	movs	r2, #0
 8005126:	fbbc f9f3 	udiv	r9, ip, r3
 800512a:	4610      	mov	r0, r2
 800512c:	fb03 ca19 	mls	sl, r3, r9, ip
 8005130:	f1a4 0730 	sub.w	r7, r4, #48	@ 0x30
 8005134:	2f09      	cmp	r7, #9
 8005136:	d80f      	bhi.n	8005158 <_strtol_l.isra.0+0xa8>
 8005138:	463c      	mov	r4, r7
 800513a:	42a3      	cmp	r3, r4
 800513c:	dd1b      	ble.n	8005176 <_strtol_l.isra.0+0xc6>
 800513e:	1c57      	adds	r7, r2, #1
 8005140:	d007      	beq.n	8005152 <_strtol_l.isra.0+0xa2>
 8005142:	4581      	cmp	r9, r0
 8005144:	d314      	bcc.n	8005170 <_strtol_l.isra.0+0xc0>
 8005146:	d101      	bne.n	800514c <_strtol_l.isra.0+0x9c>
 8005148:	45a2      	cmp	sl, r4
 800514a:	db11      	blt.n	8005170 <_strtol_l.isra.0+0xc0>
 800514c:	fb00 4003 	mla	r0, r0, r3, r4
 8005150:	2201      	movs	r2, #1
 8005152:	f815 4b01 	ldrb.w	r4, [r5], #1
 8005156:	e7eb      	b.n	8005130 <_strtol_l.isra.0+0x80>
 8005158:	f1a4 0741 	sub.w	r7, r4, #65	@ 0x41
 800515c:	2f19      	cmp	r7, #25
 800515e:	d801      	bhi.n	8005164 <_strtol_l.isra.0+0xb4>
 8005160:	3c37      	subs	r4, #55	@ 0x37
 8005162:	e7ea      	b.n	800513a <_strtol_l.isra.0+0x8a>
 8005164:	f1a4 0761 	sub.w	r7, r4, #97	@ 0x61
 8005168:	2f19      	cmp	r7, #25
 800516a:	d804      	bhi.n	8005176 <_strtol_l.isra.0+0xc6>
 800516c:	3c57      	subs	r4, #87	@ 0x57
 800516e:	e7e4      	b.n	800513a <_strtol_l.isra.0+0x8a>
 8005170:	f04f 32ff 	mov.w	r2, #4294967295
 8005174:	e7ed      	b.n	8005152 <_strtol_l.isra.0+0xa2>
 8005176:	1c53      	adds	r3, r2, #1
 8005178:	d108      	bne.n	800518c <_strtol_l.isra.0+0xdc>
 800517a:	2322      	movs	r3, #34	@ 0x22
 800517c:	f8ce 3000 	str.w	r3, [lr]
 8005180:	4660      	mov	r0, ip
 8005182:	f1b8 0f00 	cmp.w	r8, #0
 8005186:	d0a0      	beq.n	80050ca <_strtol_l.isra.0+0x1a>
 8005188:	1e69      	subs	r1, r5, #1
 800518a:	e006      	b.n	800519a <_strtol_l.isra.0+0xea>
 800518c:	b106      	cbz	r6, 8005190 <_strtol_l.isra.0+0xe0>
 800518e:	4240      	negs	r0, r0
 8005190:	f1b8 0f00 	cmp.w	r8, #0
 8005194:	d099      	beq.n	80050ca <_strtol_l.isra.0+0x1a>
 8005196:	2a00      	cmp	r2, #0
 8005198:	d1f6      	bne.n	8005188 <_strtol_l.isra.0+0xd8>
 800519a:	f8c8 1000 	str.w	r1, [r8]
 800519e:	e794      	b.n	80050ca <_strtol_l.isra.0+0x1a>
 80051a0:	08006e11 	.word	0x08006e11

080051a4 <_strtol_r>:
 80051a4:	f7ff bf84 	b.w	80050b0 <_strtol_l.isra.0>

080051a8 <__ssputs_r>:
 80051a8:	e92d 47f0 	stmdb	sp!, {r4, r5, r6, r7, r8, r9, sl, lr}
 80051ac:	688e      	ldr	r6, [r1, #8]
 80051ae:	461f      	mov	r7, r3
 80051b0:	42be      	cmp	r6, r7
 80051b2:	4682      	mov	sl, r0
 80051b4:	460c      	mov	r4, r1
 80051b6:	4690      	mov	r8, r2
 80051b8:	4633      	mov	r3, r6
 80051ba:	d853      	bhi.n	8005264 <__ssputs_r+0xbc>
 80051bc:	f9b1 000c 	ldrsh.w	r0, [r1, #12]
 80051c0:	f410 6f90 	tst.w	r0, #1152	@ 0x480
 80051c4:	d02b      	beq.n	800521e <__ssputs_r+0x76>
 80051c6:	6965      	ldr	r5, [r4, #20]
 80051c8:	6823      	ldr	r3, [r4, #0]
 80051ca:	6909      	ldr	r1, [r1, #16]
 80051cc:	eb05 0545 	add.w	r5, r5, r5, lsl #1
 80051d0:	eba3 0901 	sub.w	r9, r3, r1
 80051d4:	eb05 75d5 	add.w	r5, r5, r5, lsr #31
 80051d8:	1c7b      	adds	r3, r7, #1
 80051da:	106d      	asrs	r5, r5, #1
 80051dc:	444b      	add	r3, r9
 80051de:	42ab      	cmp	r3, r5
 80051e0:	462a      	mov	r2, r5
 80051e2:	bf84      	itt	hi
 80051e4:	461d      	movhi	r5, r3
 80051e6:	462a      	movhi	r2, r5
 80051e8:	0543      	lsls	r3, r0, #21
 80051ea:	d527      	bpl.n	800523c <__ssputs_r+0x94>
 80051ec:	4611      	mov	r1, r2
 80051ee:	4650      	mov	r0, sl
 80051f0:	f7fe fc5c 	bl	8003aac <_malloc_r>
 80051f4:	4606      	mov	r6, r0
 80051f6:	b358      	cbz	r0, 8005250 <__ssputs_r+0xa8>
 80051f8:	6921      	ldr	r1, [r4, #16]
 80051fa:	464a      	mov	r2, r9
 80051fc:	f000 fbe2 	bl	80059c4 <memcpy>
 8005200:	89a3      	ldrh	r3, [r4, #12]
 8005202:	f423 6390 	bic.w	r3, r3, #1152	@ 0x480
 8005206:	f043 0380 	orr.w	r3, r3, #128	@ 0x80
 800520a:	81a3      	strh	r3, [r4, #12]
 800520c:	6126      	str	r6, [r4, #16]
 800520e:	6165      	str	r5, [r4, #20]
 8005210:	444e      	add	r6, r9
 8005212:	eba5 0509 	sub.w	r5, r5, r9
 8005216:	6026      	str	r6, [r4, #0]
 8005218:	60a5      	str	r5, [r4, #8]
 800521a:	463e      	mov	r6, r7
 800521c:	463b      	mov	r3, r7
 800521e:	461f      	mov	r7, r3
 8005220:	6820      	ldr	r0, [r4, #0]
 8005222:	463a      	mov	r2, r7
 8005224:	4641      	mov	r1, r8
 8005226:	f000 fb91 	bl	800594c <memmove>
 800522a:	68a3      	ldr	r3, [r4, #8]
 800522c:	1b9b      	subs	r3, r3, r6
 800522e:	60a3      	str	r3, [r4, #8]
 8005230:	6823      	ldr	r3, [r4, #0]
 8005232:	443b      	add	r3, r7
 8005234:	6023      	str	r3, [r4, #0]
 8005236:	2000      	movs	r0, #0
 8005238:	e8bd 87f0 	ldmia.w	sp!, {r4, r5, r6, r7, r8, r9, sl, pc}
 800523c:	4650      	mov	r0, sl
 800523e:	f000 ff56 	bl	80060ee <_realloc_r>
 8005242:	4606      	mov	r6, r0
 8005244:	2800      	cmp	r0, #0
 8005246:	d1e1      	bne.n	800520c <__ssputs_r+0x64>
 8005248:	6921      	ldr	r1, [r4, #16]
 800524a:	4650      	mov	r0, sl
 800524c:	f7fe fbba 	bl	80039c4 <_free_r>
 8005250:	230c      	movs	r3, #12
 8005252:	f8ca 3000 	str.w	r3, [sl]
 8005256:	89a3      	ldrh	r3, [r4, #12]
 8005258:	f043 0340 	orr.w	r3, r3, #64	@ 0x40
 800525c:	81a3      	strh	r3, [r4, #12]
 800525e:	f04f 30ff 	mov.w	r0, #4294967295
 8005262:	e7e9      	b.n	8005238 <__ssputs_r+0x90>
 8005264:	463e      	mov	r6, r7
 8005266:	e7db      	b.n	8005220 <__ssputs_r+0x78>

08005268 <_svfiprintf_r>:
 8005268:	e92d 47f0 	stmdb	sp!, {r4, r5, r6, r7, r8, r9, sl, lr}
 800526c:	461f      	mov	r7, r3
 800526e:	898b      	ldrh	r3, [r1, #12]
 8005270:	061b      	lsls	r3, r3, #24
 8005272:	b09c      	sub	sp, #112	@ 0x70
 8005274:	4606      	mov	r6, r0
 8005276:	460d      	mov	r5, r1
 8005278:	4614      	mov	r4, r2
 800527a:	d510      	bpl.n	800529e <_svfiprintf_r+0x36>
 800527c:	690b      	ldr	r3, [r1, #16]
 800527e:	b973      	cbnz	r3, 800529e <_svfiprintf_r+0x36>
 8005280:	2140      	movs	r1, #64	@ 0x40
 8005282:	f7fe fc13 	bl	8003aac <_malloc_r>
 8005286:	6028      	str	r0, [r5, #0]
 8005288:	6128      	str	r0, [r5, #16]
 800528a:	b930      	cbnz	r0, 800529a <_svfiprintf_r+0x32>
 800528c:	230c      	movs	r3, #12
 800528e:	6033      	str	r3, [r6, #0]
 8005290:	f04f 30ff 	mov.w	r0, #4294967295
 8005294:	b01c      	add	sp, #112	@ 0x70
 8005296:	e8bd 87f0 	ldmia.w	sp!, {r4, r5, r6, r7, r8, r9, sl, pc}
 800529a:	2340      	movs	r3, #64	@ 0x40
 800529c:	616b      	str	r3, [r5, #20]
 800529e:	2300      	movs	r3, #0
 80052a0:	9309      	str	r3, [sp, #36]	@ 0x24
 80052a2:	2320      	movs	r3, #32
 80052a4:	f88d 3029 	strb.w	r3, [sp, #41]	@ 0x29
 80052a8:	9703      	str	r7, [sp, #12]
 80052aa:	2330      	movs	r3, #48	@ 0x30
 80052ac:	4f65      	ldr	r7, [pc, #404]	@ (8005444 <_svfiprintf_r+0x1dc>)
 80052ae:	f88d 302a 	strb.w	r3, [sp, #42]	@ 0x2a
 80052b2:	f04f 0801 	mov.w	r8, #1
 80052b6:	4623      	mov	r3, r4
 80052b8:	4699      	mov	r9, r3
 80052ba:	f813 2b01 	ldrb.w	r2, [r3], #1
 80052be:	b10a      	cbz	r2, 80052c4 <_svfiprintf_r+0x5c>
 80052c0:	2a25      	cmp	r2, #37	@ 0x25
 80052c2:	d1f9      	bne.n	80052b8 <_svfiprintf_r+0x50>
 80052c4:	ebb9 0a04 	subs.w	sl, r9, r4
 80052c8:	d00b      	beq.n	80052e2 <_svfiprintf_r+0x7a>
 80052ca:	4653      	mov	r3, sl
 80052cc:	4622      	mov	r2, r4
 80052ce:	4629      	mov	r1, r5
 80052d0:	4630      	mov	r0, r6
 80052d2:	f7ff ff69 	bl	80051a8 <__ssputs_r>
 80052d6:	3001      	adds	r0, #1
 80052d8:	f000 80a4 	beq.w	8005424 <_svfiprintf_r+0x1bc>
 80052dc:	9a09      	ldr	r2, [sp, #36]	@ 0x24
 80052de:	4452      	add	r2, sl
 80052e0:	9209      	str	r2, [sp, #36]	@ 0x24
 80052e2:	f899 3000 	ldrb.w	r3, [r9]
 80052e6:	2b00      	cmp	r3, #0
 80052e8:	f000 809c 	beq.w	8005424 <_svfiprintf_r+0x1bc>
 80052ec:	2300      	movs	r3, #0
 80052ee:	f04f 32ff 	mov.w	r2, #4294967295
 80052f2:	e9cd 2305 	strd	r2, r3, [sp, #20]
 80052f6:	f109 0901 	add.w	r9, r9, #1
 80052fa:	9304      	str	r3, [sp, #16]
 80052fc:	9307      	str	r3, [sp, #28]
 80052fe:	f88d 3053 	strb.w	r3, [sp, #83]	@ 0x53
 8005302:	931a      	str	r3, [sp, #104]	@ 0x68
 8005304:	464c      	mov	r4, r9
 8005306:	484f      	ldr	r0, [pc, #316]	@ (8005444 <_svfiprintf_r+0x1dc>)
 8005308:	f814 1b01 	ldrb.w	r1, [r4], #1
 800530c:	2205      	movs	r2, #5
 800530e:	f7fa fef7 	bl	8000100 <memchr>
 8005312:	9b04      	ldr	r3, [sp, #16]
 8005314:	b9d0      	cbnz	r0, 800534c <_svfiprintf_r+0xe4>
 8005316:	06d8      	lsls	r0, r3, #27
 8005318:	bf44      	itt	mi
 800531a:	2220      	movmi	r2, #32
 800531c:	f88d 2053 	strbmi.w	r2, [sp, #83]	@ 0x53
 8005320:	0719      	lsls	r1, r3, #28
 8005322:	bf44      	itt	mi
 8005324:	222b      	movmi	r2, #43	@ 0x2b
 8005326:	f88d 2053 	strbmi.w	r2, [sp, #83]	@ 0x53
 800532a:	f899 2000 	ldrb.w	r2, [r9]
 800532e:	2a2a      	cmp	r2, #42	@ 0x2a
 8005330:	d013      	beq.n	800535a <_svfiprintf_r+0xf2>
 8005332:	9a07      	ldr	r2, [sp, #28]
 8005334:	464c      	mov	r4, r9
 8005336:	2000      	movs	r0, #0
 8005338:	f04f 0c0a 	mov.w	ip, #10
 800533c:	4621      	mov	r1, r4
 800533e:	f811 3b01 	ldrb.w	r3, [r1], #1
 8005342:	3b30      	subs	r3, #48	@ 0x30
 8005344:	2b09      	cmp	r3, #9
 8005346:	d949      	bls.n	80053dc <_svfiprintf_r+0x174>
 8005348:	b968      	cbnz	r0, 8005366 <_svfiprintf_r+0xfe>
 800534a:	e013      	b.n	8005374 <_svfiprintf_r+0x10c>
 800534c:	1bc0      	subs	r0, r0, r7
 800534e:	fa08 f000 	lsl.w	r0, r8, r0
 8005352:	4318      	orrs	r0, r3
 8005354:	9004      	str	r0, [sp, #16]
 8005356:	46a1      	mov	r9, r4
 8005358:	e7d4      	b.n	8005304 <_svfiprintf_r+0x9c>
 800535a:	9a03      	ldr	r2, [sp, #12]
 800535c:	1d11      	adds	r1, r2, #4
 800535e:	6812      	ldr	r2, [r2, #0]
 8005360:	9103      	str	r1, [sp, #12]
 8005362:	2a00      	cmp	r2, #0
 8005364:	db01      	blt.n	800536a <_svfiprintf_r+0x102>
 8005366:	9207      	str	r2, [sp, #28]
 8005368:	e004      	b.n	8005374 <_svfiprintf_r+0x10c>
 800536a:	4252      	negs	r2, r2
 800536c:	f043 0302 	orr.w	r3, r3, #2
 8005370:	9207      	str	r2, [sp, #28]
 8005372:	9304      	str	r3, [sp, #16]
 8005374:	7823      	ldrb	r3, [r4, #0]
 8005376:	2b2e      	cmp	r3, #46	@ 0x2e
 8005378:	d10a      	bne.n	8005390 <_svfiprintf_r+0x128>
 800537a:	7863      	ldrb	r3, [r4, #1]
 800537c:	2b2a      	cmp	r3, #42	@ 0x2a
 800537e:	d132      	bne.n	80053e6 <_svfiprintf_r+0x17e>
 8005380:	9b03      	ldr	r3, [sp, #12]
 8005382:	1d1a      	adds	r2, r3, #4
 8005384:	681b      	ldr	r3, [r3, #0]
 8005386:	9203      	str	r2, [sp, #12]
 8005388:	ea43 73e3 	orr.w	r3, r3, r3, asr #31
 800538c:	3402      	adds	r4, #2
 800538e:	9305      	str	r3, [sp, #20]
 8005390:	f8df 90c0 	ldr.w	r9, [pc, #192]	@ 8005454 <_svfiprintf_r+0x1ec>
 8005394:	7821      	ldrb	r1, [r4, #0]
 8005396:	2203      	movs	r2, #3
 8005398:	4648      	mov	r0, r9
 800539a:	f7fa feb1 	bl	8000100 <memchr>
 800539e:	b138      	cbz	r0, 80053b0 <_svfiprintf_r+0x148>
 80053a0:	9b04      	ldr	r3, [sp, #16]
 80053a2:	eba0 0009 	sub.w	r0, r0, r9
 80053a6:	2240      	movs	r2, #64	@ 0x40
 80053a8:	4082      	lsls	r2, r0
 80053aa:	4313      	orrs	r3, r2
 80053ac:	3401      	adds	r4, #1
 80053ae:	9304      	str	r3, [sp, #16]
 80053b0:	f814 1b01 	ldrb.w	r1, [r4], #1
 80053b4:	4824      	ldr	r0, [pc, #144]	@ (8005448 <_svfiprintf_r+0x1e0>)
 80053b6:	f88d 1028 	strb.w	r1, [sp, #40]	@ 0x28
 80053ba:	2206      	movs	r2, #6
 80053bc:	f7fa fea0 	bl	8000100 <memchr>
 80053c0:	2800      	cmp	r0, #0
 80053c2:	d035      	beq.n	8005430 <_svfiprintf_r+0x1c8>
 80053c4:	4821      	ldr	r0, [pc, #132]	@ (800544c <_svfiprintf_r+0x1e4>)
 80053c6:	bb18      	cbnz	r0, 8005410 <_svfiprintf_r+0x1a8>
 80053c8:	9b03      	ldr	r3, [sp, #12]
 80053ca:	3307      	adds	r3, #7
 80053cc:	f023 0307 	bic.w	r3, r3, #7
 80053d0:	3308      	adds	r3, #8
 80053d2:	9303      	str	r3, [sp, #12]
 80053d4:	9b09      	ldr	r3, [sp, #36]	@ 0x24
 80053d6:	4403      	add	r3, r0
 80053d8:	9309      	str	r3, [sp, #36]	@ 0x24
 80053da:	e76c      	b.n	80052b6 <_svfiprintf_r+0x4e>
 80053dc:	fb0c 3202 	mla	r2, ip, r2, r3
 80053e0:	460c      	mov	r4, r1
 80053e2:	2001      	movs	r0, #1
 80053e4:	e7aa      	b.n	800533c <_svfiprintf_r+0xd4>
 80053e6:	2300      	movs	r3, #0
 80053e8:	3401      	adds	r4, #1
 80053ea:	9305      	str	r3, [sp, #20]
 80053ec:	4619      	mov	r1, r3
 80053ee:	f04f 0c0a 	mov.w	ip, #10
 80053f2:	4620      	mov	r0, r4
 80053f4:	f810 2b01 	ldrb.w	r2, [r0], #1
 80053f8:	3a30      	subs	r2, #48	@ 0x30
 80053fa:	2a09      	cmp	r2, #9
 80053fc:	d903      	bls.n	8005406 <_svfiprintf_r+0x19e>
 80053fe:	2b00      	cmp	r3, #0
 8005400:	d0c6      	beq.n	8005390 <_svfiprintf_r+0x128>
 8005402:	9105      	str	r1, [sp, #20]
 8005404:	e7c4      	b.n	8005390 <_svfiprintf_r+0x128>
 8005406:	fb0c 2101 	mla	r1, ip, r1, r2
 800540a:	4604      	mov	r4, r0
 800540c:	2301      	movs	r3, #1
 800540e:	e7f0      	b.n	80053f2 <_svfiprintf_r+0x18a>
 8005410:	ab03      	add	r3, sp, #12
 8005412:	9300      	str	r3, [sp, #0]
 8005414:	462a      	mov	r2, r5
 8005416:	4b0e      	ldr	r3, [pc, #56]	@ (8005450 <_svfiprintf_r+0x1e8>)
 8005418:	a904      	add	r1, sp, #16
 800541a:	4630      	mov	r0, r6
 800541c:	f7fc fdac 	bl	8001f78 <_printf_float>
 8005420:	1c42      	adds	r2, r0, #1
 8005422:	d1d7      	bne.n	80053d4 <_svfiprintf_r+0x16c>
 8005424:	89ab      	ldrh	r3, [r5, #12]
 8005426:	065b      	lsls	r3, r3, #25
 8005428:	f53f af32 	bmi.w	8005290 <_svfiprintf_r+0x28>
 800542c:	9809      	ldr	r0, [sp, #36]	@ 0x24
 800542e:	e731      	b.n	8005294 <_svfiprintf_r+0x2c>
 8005430:	ab03      	add	r3, sp, #12
 8005432:	9300      	str	r3, [sp, #0]
 8005434:	462a      	mov	r2, r5
 8005436:	4b06      	ldr	r3, [pc, #24]	@ (8005450 <_svfiprintf_r+0x1e8>)
 8005438:	a904      	add	r1, sp, #16
 800543a:	4630      	mov	r0, r6
 800543c:	f7fd f824 	bl	8002488 <_printf_i>
 8005440:	e7ee      	b.n	8005420 <_svfiprintf_r+0x1b8>
 8005442:	bf00      	nop
 8005444:	08006c0d 	.word	0x08006c0d
 8005448:	08006c17 	.word	0x08006c17
 800544c:	08001f79 	.word	0x08001f79
 8005450:	080051a9 	.word	0x080051a9
 8005454:	08006c13 	.word	0x08006c13

08005458 <__sfputc_r>:
 8005458:	6893      	ldr	r3, [r2, #8]
 800545a:	3b01      	subs	r3, #1
 800545c:	2b00      	cmp	r3, #0
 800545e:	b410      	push	{r4}
 8005460:	6093      	str	r3, [r2, #8]
 8005462:	da08      	bge.n	8005476 <__sfputc_r+0x1e>
 8005464:	6994      	ldr	r4, [r2, #24]
 8005466:	42a3      	cmp	r3, r4
 8005468:	db01      	blt.n	800546e <__sfputc_r+0x16>
 800546a:	290a      	cmp	r1, #10
 800546c:	d103      	bne.n	8005476 <__sfputc_r+0x1e>
 800546e:	f85d 4b04 	ldr.w	r4, [sp], #4
 8005472:	f000 b9d9 	b.w	8005828 <__swbuf_r>
 8005476:	6813      	ldr	r3, [r2, #0]
 8005478:	1c58      	adds	r0, r3, #1
 800547a:	6010      	str	r0, [r2, #0]
 800547c:	7019      	strb	r1, [r3, #0]
 800547e:	4608      	mov	r0, r1
 8005480:	f85d 4b04 	ldr.w	r4, [sp], #4
 8005484:	4770      	bx	lr

08005486 <__sfputs_r>:
 8005486:	b5f8      	push	{r3, r4, r5, r6, r7, lr}
 8005488:	4606      	mov	r6, r0
 800548a:	460f      	mov	r7, r1
 800548c:	4614      	mov	r4, r2
 800548e:	18d5      	adds	r5, r2, r3
 8005490:	42ac      	cmp	r4, r5
 8005492:	d101      	bne.n	8005498 <__sfputs_r+0x12>
 8005494:	2000      	movs	r0, #0
 8005496:	e007      	b.n	80054a8 <__sfputs_r+0x22>
 8005498:	f814 1b01 	ldrb.w	r1, [r4], #1
 800549c:	463a      	mov	r2, r7
 800549e:	4630      	mov	r0, r6
 80054a0:	f7ff ffda 	bl	8005458 <__sfputc_r>
 80054a4:	1c43      	adds	r3, r0, #1
 80054a6:	d1f3      	bne.n	8005490 <__sfputs_r+0xa>
 80054a8:	bdf8      	pop	{r3, r4, r5, r6, r7, pc}
	...

080054ac <_vfiprintf_r>:
 80054ac:	e92d 47f0 	stmdb	sp!, {r4, r5, r6, r7, r8, r9, sl, lr}
 80054b0:	460d      	mov	r5, r1
 80054b2:	b09c      	sub	sp, #112	@ 0x70
 80054b4:	4614      	mov	r4, r2
 80054b6:	461f      	mov	r7, r3
 80054b8:	4606      	mov	r6, r0
 80054ba:	b118      	cbz	r0, 80054c4 <_vfiprintf_r+0x18>
 80054bc:	6a03      	ldr	r3, [r0, #32]
 80054be:	b90b      	cbnz	r3, 80054c4 <_vfiprintf_r+0x18>
 80054c0:	f7fd fb9c 	bl	8002bfc <__sinit>
 80054c4:	6e6b      	ldr	r3, [r5, #100]	@ 0x64
 80054c6:	07d9      	lsls	r1, r3, #31
 80054c8:	d405      	bmi.n	80054d6 <_vfiprintf_r+0x2a>
 80054ca:	89ab      	ldrh	r3, [r5, #12]
 80054cc:	059a      	lsls	r2, r3, #22
 80054ce:	d402      	bmi.n	80054d6 <_vfiprintf_r+0x2a>
 80054d0:	6da8      	ldr	r0, [r5, #88]	@ 0x58
 80054d2:	f7fd fc9a 	bl	8002e0a <__retarget_lock_acquire_recursive>
 80054d6:	89ab      	ldrh	r3, [r5, #12]
 80054d8:	071b      	lsls	r3, r3, #28
 80054da:	d501      	bpl.n	80054e0 <_vfiprintf_r+0x34>
 80054dc:	692b      	ldr	r3, [r5, #16]
 80054de:	b99b      	cbnz	r3, 8005508 <_vfiprintf_r+0x5c>
 80054e0:	4629      	mov	r1, r5
 80054e2:	4630      	mov	r0, r6
 80054e4:	f000 f9de 	bl	80058a4 <__swsetup_r>
 80054e8:	b170      	cbz	r0, 8005508 <_vfiprintf_r+0x5c>
 80054ea:	6e6b      	ldr	r3, [r5, #100]	@ 0x64
 80054ec:	07dc      	lsls	r4, r3, #31
 80054ee:	d504      	bpl.n	80054fa <_vfiprintf_r+0x4e>
 80054f0:	f04f 30ff 	mov.w	r0, #4294967295
 80054f4:	b01c      	add	sp, #112	@ 0x70
 80054f6:	e8bd 87f0 	ldmia.w	sp!, {r4, r5, r6, r7, r8, r9, sl, pc}
 80054fa:	89ab      	ldrh	r3, [r5, #12]
 80054fc:	0598      	lsls	r0, r3, #22
 80054fe:	d4f7      	bmi.n	80054f0 <_vfiprintf_r+0x44>
 8005500:	6da8      	ldr	r0, [r5, #88]	@ 0x58
 8005502:	f7fd fc83 	bl	8002e0c <__retarget_lock_release_recursive>
 8005506:	e7f3      	b.n	80054f0 <_vfiprintf_r+0x44>
 8005508:	2300      	movs	r3, #0
 800550a:	9309      	str	r3, [sp, #36]	@ 0x24
 800550c:	2320      	movs	r3, #32
 800550e:	f88d 3029 	strb.w	r3, [sp, #41]	@ 0x29
 8005512:	9703      	str	r7, [sp, #12]
 8005514:	2330      	movs	r3, #48	@ 0x30
 8005516:	4f6a      	ldr	r7, [pc, #424]	@ (80056c0 <_vfiprintf_r+0x214>)
 8005518:	f88d 302a 	strb.w	r3, [sp, #42]	@ 0x2a
 800551c:	f04f 0801 	mov.w	r8, #1
 8005520:	4623      	mov	r3, r4
 8005522:	4699      	mov	r9, r3
 8005524:	f813 2b01 	ldrb.w	r2, [r3], #1
 8005528:	b10a      	cbz	r2, 800552e <_vfiprintf_r+0x82>
 800552a:	2a25      	cmp	r2, #37	@ 0x25
 800552c:	d1f9      	bne.n	8005522 <_vfiprintf_r+0x76>
 800552e:	ebb9 0a04 	subs.w	sl, r9, r4
 8005532:	d00b      	beq.n	800554c <_vfiprintf_r+0xa0>
 8005534:	4653      	mov	r3, sl
 8005536:	4622      	mov	r2, r4
 8005538:	4629      	mov	r1, r5
 800553a:	4630      	mov	r0, r6
 800553c:	f7ff ffa3 	bl	8005486 <__sfputs_r>
 8005540:	3001      	adds	r0, #1
 8005542:	f000 80a4 	beq.w	800568e <_vfiprintf_r+0x1e2>
 8005546:	9a09      	ldr	r2, [sp, #36]	@ 0x24
 8005548:	4452      	add	r2, sl
 800554a:	9209      	str	r2, [sp, #36]	@ 0x24
 800554c:	f899 3000 	ldrb.w	r3, [r9]
 8005550:	2b00      	cmp	r3, #0
 8005552:	f000 809c 	beq.w	800568e <_vfiprintf_r+0x1e2>
 8005556:	2300      	movs	r3, #0
 8005558:	f04f 32ff 	mov.w	r2, #4294967295
 800555c:	e9cd 2305 	strd	r2, r3, [sp, #20]
 8005560:	f109 0901 	add.w	r9, r9, #1
 8005564:	9304      	str	r3, [sp, #16]
 8005566:	9307      	str	r3, [sp, #28]
 8005568:	f88d 3053 	strb.w	r3, [sp, #83]	@ 0x53
 800556c:	931a      	str	r3, [sp, #104]	@ 0x68
 800556e:	464c      	mov	r4, r9
 8005570:	4853      	ldr	r0, [pc, #332]	@ (80056c0 <_vfiprintf_r+0x214>)
 8005572:	f814 1b01 	ldrb.w	r1, [r4], #1
 8005576:	2205      	movs	r2, #5
 8005578:	f7fa fdc2 	bl	8000100 <memchr>
 800557c:	9b04      	ldr	r3, [sp, #16]
 800557e:	b9d0      	cbnz	r0, 80055b6 <_vfiprintf_r+0x10a>
 8005580:	06d9      	lsls	r1, r3, #27
 8005582:	bf44      	itt	mi
 8005584:	2220      	movmi	r2, #32
 8005586:	f88d 2053 	strbmi.w	r2, [sp, #83]	@ 0x53
 800558a:	071a      	lsls	r2, r3, #28
 800558c:	bf44      	itt	mi
 800558e:	222b      	movmi	r2, #43	@ 0x2b
 8005590:	f88d 2053 	strbmi.w	r2, [sp, #83]	@ 0x53
 8005594:	f899 2000 	ldrb.w	r2, [r9]
 8005598:	2a2a      	cmp	r2, #42	@ 0x2a
 800559a:	d013      	beq.n	80055c4 <_vfiprintf_r+0x118>
 800559c:	9a07      	ldr	r2, [sp, #28]
 800559e:	464c      	mov	r4, r9
 80055a0:	2000      	movs	r0, #0
 80055a2:	f04f 0c0a 	mov.w	ip, #10
 80055a6:	4621      	mov	r1, r4
 80055a8:	f811 3b01 	ldrb.w	r3, [r1], #1
 80055ac:	3b30      	subs	r3, #48	@ 0x30
 80055ae:	2b09      	cmp	r3, #9
 80055b0:	d949      	bls.n	8005646 <_vfiprintf_r+0x19a>
 80055b2:	b968      	cbnz	r0, 80055d0 <_vfiprintf_r+0x124>
 80055b4:	e013      	b.n	80055de <_vfiprintf_r+0x132>
 80055b6:	1bc0      	subs	r0, r0, r7
 80055b8:	fa08 f000 	lsl.w	r0, r8, r0
 80055bc:	4318      	orrs	r0, r3
 80055be:	9004      	str	r0, [sp, #16]
 80055c0:	46a1      	mov	r9, r4
 80055c2:	e7d4      	b.n	800556e <_vfiprintf_r+0xc2>
 80055c4:	9a03      	ldr	r2, [sp, #12]
 80055c6:	1d11      	adds	r1, r2, #4
 80055c8:	6812      	ldr	r2, [r2, #0]
 80055ca:	9103      	str	r1, [sp, #12]
 80055cc:	2a00      	cmp	r2, #0
 80055ce:	db01      	blt.n	80055d4 <_vfiprintf_r+0x128>
 80055d0:	9207      	str	r2, [sp, #28]
 80055d2:	e004      	b.n	80055de <_vfiprintf_r+0x132>
 80055d4:	4252      	negs	r2, r2
 80055d6:	f043 0302 	orr.w	r3, r3, #2
 80055da:	9207      	str	r2, [sp, #28]
 80055dc:	9304      	str	r3, [sp, #16]
 80055de:	7823      	ldrb	r3, [r4, #0]
 80055e0:	2b2e      	cmp	r3, #46	@ 0x2e
 80055e2:	d10a      	bne.n	80055fa <_vfiprintf_r+0x14e>
 80055e4:	7863      	ldrb	r3, [r4, #1]
 80055e6:	2b2a      	cmp	r3, #42	@ 0x2a
 80055e8:	d132      	bne.n	8005650 <_vfiprintf_r+0x1a4>
 80055ea:	9b03      	ldr	r3, [sp, #12]
 80055ec:	1d1a      	adds	r2, r3, #4
 80055ee:	681b      	ldr	r3, [r3, #0]
 80055f0:	9203      	str	r2, [sp, #12]
 80055f2:	ea43 73e3 	orr.w	r3, r3, r3, asr #31
 80055f6:	3402      	adds	r4, #2
 80055f8:	9305      	str	r3, [sp, #20]
 80055fa:	f8df 90d4 	ldr.w	r9, [pc, #212]	@ 80056d0 <_vfiprintf_r+0x224>
 80055fe:	7821      	ldrb	r1, [r4, #0]
 8005600:	2203      	movs	r2, #3
 8005602:	4648      	mov	r0, r9
 8005604:	f7fa fd7c 	bl	8000100 <memchr>
 8005608:	b138      	cbz	r0, 800561a <_vfiprintf_r+0x16e>
 800560a:	9b04      	ldr	r3, [sp, #16]
 800560c:	eba0 0009 	sub.w	r0, r0, r9
 8005610:	2240      	movs	r2, #64	@ 0x40
 8005612:	4082      	lsls	r2, r0
 8005614:	4313      	orrs	r3, r2
 8005616:	3401      	adds	r4, #1
 8005618:	9304      	str	r3, [sp, #16]
 800561a:	f814 1b01 	ldrb.w	r1, [r4], #1
 800561e:	4829      	ldr	r0, [pc, #164]	@ (80056c4 <_vfiprintf_r+0x218>)
 8005620:	f88d 1028 	strb.w	r1, [sp, #40]	@ 0x28
 8005624:	2206      	movs	r2, #6
 8005626:	f7fa fd6b 	bl	8000100 <memchr>
 800562a:	2800      	cmp	r0, #0
 800562c:	d03e      	beq.n	80056ac <_vfiprintf_r+0x200>
 800562e:	4826      	ldr	r0, [pc, #152]	@ (80056c8 <_vfiprintf_r+0x21c>)
 8005630:	bb18      	cbnz	r0, 800567a <_vfiprintf_r+0x1ce>
 8005632:	9b03      	ldr	r3, [sp, #12]
 8005634:	3307      	adds	r3, #7
 8005636:	f023 0307 	bic.w	r3, r3, #7
 800563a:	3308      	adds	r3, #8
 800563c:	9303      	str	r3, [sp, #12]
 800563e:	9b09      	ldr	r3, [sp, #36]	@ 0x24
 8005640:	4403      	add	r3, r0
 8005642:	9309      	str	r3, [sp, #36]	@ 0x24
 8005644:	e76c      	b.n	8005520 <_vfiprintf_r+0x74>
 8005646:	fb0c 3202 	mla	r2, ip, r2, r3
 800564a:	460c      	mov	r4, r1
 800564c:	2001      	movs	r0, #1
 800564e:	e7aa      	b.n	80055a6 <_vfiprintf_r+0xfa>
 8005650:	2300      	movs	r3, #0
 8005652:	3401      	adds	r4, #1
 8005654:	9305      	str	r3, [sp, #20]
 8005656:	4619      	mov	r1, r3
 8005658:	f04f 0c0a 	mov.w	ip, #10
 800565c:	4620      	mov	r0, r4
 800565e:	f810 2b01 	ldrb.w	r2, [r0], #1
 8005662:	3a30      	subs	r2, #48	@ 0x30
 8005664:	2a09      	cmp	r2, #9
 8005666:	d903      	bls.n	8005670 <_vfiprintf_r+0x1c4>
 8005668:	2b00      	cmp	r3, #0
 800566a:	d0c6      	beq.n	80055fa <_vfiprintf_r+0x14e>
 800566c:	9105      	str	r1, [sp, #20]
 800566e:	e7c4      	b.n	80055fa <_vfiprintf_r+0x14e>
 8005670:	fb0c 2101 	mla	r1, ip, r1, r2
 8005674:	4604      	mov	r4, r0
 8005676:	2301      	movs	r3, #1
 8005678:	e7f0      	b.n	800565c <_vfiprintf_r+0x1b0>
 800567a:	ab03      	add	r3, sp, #12
 800567c:	9300      	str	r3, [sp, #0]
 800567e:	462a      	mov	r2, r5
 8005680:	4b12      	ldr	r3, [pc, #72]	@ (80056cc <_vfiprintf_r+0x220>)
 8005682:	a904      	add	r1, sp, #16
 8005684:	4630      	mov	r0, r6
 8005686:	f7fc fc77 	bl	8001f78 <_printf_float>
 800568a:	1c43      	adds	r3, r0, #1
 800568c:	d1d7      	bne.n	800563e <_vfiprintf_r+0x192>
 800568e:	6e6b      	ldr	r3, [r5, #100]	@ 0x64
 8005690:	07d9      	lsls	r1, r3, #31
 8005692:	d405      	bmi.n	80056a0 <_vfiprintf_r+0x1f4>
 8005694:	89ab      	ldrh	r3, [r5, #12]
 8005696:	059a      	lsls	r2, r3, #22
 8005698:	d402      	bmi.n	80056a0 <_vfiprintf_r+0x1f4>
 800569a:	6da8      	ldr	r0, [r5, #88]	@ 0x58
 800569c:	f7fd fbb6 	bl	8002e0c <__retarget_lock_release_recursive>
 80056a0:	89ab      	ldrh	r3, [r5, #12]
 80056a2:	065b      	lsls	r3, r3, #25
 80056a4:	f53f af24 	bmi.w	80054f0 <_vfiprintf_r+0x44>
 80056a8:	9809      	ldr	r0, [sp, #36]	@ 0x24
 80056aa:	e723      	b.n	80054f4 <_vfiprintf_r+0x48>
 80056ac:	ab03      	add	r3, sp, #12
 80056ae:	9300      	str	r3, [sp, #0]
 80056b0:	462a      	mov	r2, r5
 80056b2:	4b06      	ldr	r3, [pc, #24]	@ (80056cc <_vfiprintf_r+0x220>)
 80056b4:	a904      	add	r1, sp, #16
 80056b6:	4630      	mov	r0, r6
 80056b8:	f7fc fee6 	bl	8002488 <_printf_i>
 80056bc:	e7e5      	b.n	800568a <_vfiprintf_r+0x1de>
 80056be:	bf00      	nop
 80056c0:	08006c0d 	.word	0x08006c0d
 80056c4:	08006c17 	.word	0x08006c17
 80056c8:	08001f79 	.word	0x08001f79
 80056cc:	08005487 	.word	0x08005487
 80056d0:	08006c13 	.word	0x08006c13

080056d4 <__sflush_r>:
 80056d4:	f9b1 200c 	ldrsh.w	r2, [r1, #12]
 80056d8:	e92d 41f0 	stmdb	sp!, {r4, r5, r6, r7, r8, lr}
 80056dc:	0716      	lsls	r6, r2, #28
 80056de:	4605      	mov	r5, r0
 80056e0:	460c      	mov	r4, r1
 80056e2:	d451      	bmi.n	8005788 <__sflush_r+0xb4>
 80056e4:	684b      	ldr	r3, [r1, #4]
 80056e6:	2b00      	cmp	r3, #0
 80056e8:	dc02      	bgt.n	80056f0 <__sflush_r+0x1c>
 80056ea:	6c0b      	ldr	r3, [r1, #64]	@ 0x40
 80056ec:	2b00      	cmp	r3, #0
 80056ee:	dd49      	ble.n	8005784 <__sflush_r+0xb0>
 80056f0:	6ae6      	ldr	r6, [r4, #44]	@ 0x2c
 80056f2:	2e00      	cmp	r6, #0
 80056f4:	d046      	beq.n	8005784 <__sflush_r+0xb0>
 80056f6:	2300      	movs	r3, #0
 80056f8:	f412 5280 	ands.w	r2, r2, #4096	@ 0x1000
 80056fc:	682f      	ldr	r7, [r5, #0]
 80056fe:	602b      	str	r3, [r5, #0]
 8005700:	d031      	beq.n	8005766 <__sflush_r+0x92>
 8005702:	6d62      	ldr	r2, [r4, #84]	@ 0x54
 8005704:	89a3      	ldrh	r3, [r4, #12]
 8005706:	0759      	lsls	r1, r3, #29
 8005708:	d505      	bpl.n	8005716 <__sflush_r+0x42>
 800570a:	6863      	ldr	r3, [r4, #4]
 800570c:	1ad2      	subs	r2, r2, r3
 800570e:	6b63      	ldr	r3, [r4, #52]	@ 0x34
 8005710:	b10b      	cbz	r3, 8005716 <__sflush_r+0x42>
 8005712:	6c23      	ldr	r3, [r4, #64]	@ 0x40
 8005714:	1ad2      	subs	r2, r2, r3
 8005716:	2300      	movs	r3, #0
 8005718:	6ae6      	ldr	r6, [r4, #44]	@ 0x2c
 800571a:	6a21      	ldr	r1, [r4, #32]
 800571c:	4628      	mov	r0, r5
 800571e:	47b0      	blx	r6
 8005720:	1c42      	adds	r2, r0, #1
 8005722:	f9b4 300c 	ldrsh.w	r3, [r4, #12]
 8005726:	d106      	bne.n	8005736 <__sflush_r+0x62>
 8005728:	6829      	ldr	r1, [r5, #0]
 800572a:	291d      	cmp	r1, #29
 800572c:	d846      	bhi.n	80057bc <__sflush_r+0xe8>
 800572e:	4a29      	ldr	r2, [pc, #164]	@ (80057d4 <__sflush_r+0x100>)
 8005730:	40ca      	lsrs	r2, r1
 8005732:	07d6      	lsls	r6, r2, #31
 8005734:	d542      	bpl.n	80057bc <__sflush_r+0xe8>
 8005736:	2200      	movs	r2, #0
 8005738:	6062      	str	r2, [r4, #4]
 800573a:	04d9      	lsls	r1, r3, #19
 800573c:	6922      	ldr	r2, [r4, #16]
 800573e:	6022      	str	r2, [r4, #0]
 8005740:	d504      	bpl.n	800574c <__sflush_r+0x78>
 8005742:	1c42      	adds	r2, r0, #1
 8005744:	d101      	bne.n	800574a <__sflush_r+0x76>
 8005746:	682b      	ldr	r3, [r5, #0]
 8005748:	b903      	cbnz	r3, 800574c <__sflush_r+0x78>
 800574a:	6560      	str	r0, [r4, #84]	@ 0x54
 800574c:	6b61      	ldr	r1, [r4, #52]	@ 0x34
 800574e:	602f      	str	r7, [r5, #0]
 8005750:	b1c1      	cbz	r1, 8005784 <__sflush_r+0xb0>
 8005752:	f104 0344 	add.w	r3, r4, #68	@ 0x44
 8005756:	4299      	cmp	r1, r3
 8005758:	d002      	beq.n	8005760 <__sflush_r+0x8c>
 800575a:	4628      	mov	r0, r5
 800575c:	f7fe f932 	bl	80039c4 <_free_r>
 8005760:	2300      	movs	r3, #0
 8005762:	6363      	str	r3, [r4, #52]	@ 0x34
 8005764:	e00e      	b.n	8005784 <__sflush_r+0xb0>
 8005766:	6a21      	ldr	r1, [r4, #32]
 8005768:	2301      	movs	r3, #1
 800576a:	4628      	mov	r0, r5
 800576c:	47b0      	blx	r6
 800576e:	4602      	mov	r2, r0
 8005770:	1c50      	adds	r0, r2, #1
 8005772:	d1c7      	bne.n	8005704 <__sflush_r+0x30>
 8005774:	682b      	ldr	r3, [r5, #0]
 8005776:	2b00      	cmp	r3, #0
 8005778:	d0c4      	beq.n	8005704 <__sflush_r+0x30>
 800577a:	2b1d      	cmp	r3, #29
 800577c:	d001      	beq.n	8005782 <__sflush_r+0xae>
 800577e:	2b16      	cmp	r3, #22
 8005780:	d11a      	bne.n	80057b8 <__sflush_r+0xe4>
 8005782:	602f      	str	r7, [r5, #0]
 8005784:	2000      	movs	r0, #0
 8005786:	e01e      	b.n	80057c6 <__sflush_r+0xf2>
 8005788:	690f      	ldr	r7, [r1, #16]
 800578a:	2f00      	cmp	r7, #0
 800578c:	d0fa      	beq.n	8005784 <__sflush_r+0xb0>
 800578e:	0793      	lsls	r3, r2, #30
 8005790:	680e      	ldr	r6, [r1, #0]
 8005792:	bf08      	it	eq
 8005794:	694b      	ldreq	r3, [r1, #20]
 8005796:	600f      	str	r7, [r1, #0]
 8005798:	bf18      	it	ne
 800579a:	2300      	movne	r3, #0
 800579c:	eba6 0807 	sub.w	r8, r6, r7
 80057a0:	608b      	str	r3, [r1, #8]
 80057a2:	f1b8 0f00 	cmp.w	r8, #0
 80057a6:	dded      	ble.n	8005784 <__sflush_r+0xb0>
 80057a8:	6a21      	ldr	r1, [r4, #32]
 80057aa:	6aa6      	ldr	r6, [r4, #40]	@ 0x28
 80057ac:	4643      	mov	r3, r8
 80057ae:	463a      	mov	r2, r7
 80057b0:	4628      	mov	r0, r5
 80057b2:	47b0      	blx	r6
 80057b4:	2800      	cmp	r0, #0
 80057b6:	dc08      	bgt.n	80057ca <__sflush_r+0xf6>
 80057b8:	f9b4 300c 	ldrsh.w	r3, [r4, #12]
 80057bc:	f043 0340 	orr.w	r3, r3, #64	@ 0x40
 80057c0:	81a3      	strh	r3, [r4, #12]
 80057c2:	f04f 30ff 	mov.w	r0, #4294967295
 80057c6:	e8bd 81f0 	ldmia.w	sp!, {r4, r5, r6, r7, r8, pc}
 80057ca:	4407      	add	r7, r0
 80057cc:	eba8 0800 	sub.w	r8, r8, r0
 80057d0:	e7e7      	b.n	80057a2 <__sflush_r+0xce>
 80057d2:	bf00      	nop
 80057d4:	20400001 	.word	0x20400001

080057d8 <_fflush_r>:
 80057d8:	b538      	push	{r3, r4, r5, lr}
 80057da:	690b      	ldr	r3, [r1, #16]
 80057dc:	4605      	mov	r5, r0
 80057de:	460c      	mov	r4, r1
 80057e0:	b913      	cbnz	r3, 80057e8 <_fflush_r+0x10>
 80057e2:	2500      	movs	r5, #0
 80057e4:	4628      	mov	r0, r5
 80057e6:	bd38      	pop	{r3, r4, r5, pc}
 80057e8:	b118      	cbz	r0, 80057f2 <_fflush_r+0x1a>
 80057ea:	6a03      	ldr	r3, [r0, #32]
 80057ec:	b90b      	cbnz	r3, 80057f2 <_fflush_r+0x1a>
 80057ee:	f7fd fa05 	bl	8002bfc <__sinit>
 80057f2:	f9b4 300c 	ldrsh.w	r3, [r4, #12]
 80057f6:	2b00      	cmp	r3, #0
 80057f8:	d0f3      	beq.n	80057e2 <_fflush_r+0xa>
 80057fa:	6e62      	ldr	r2, [r4, #100]	@ 0x64
 80057fc:	07d0      	lsls	r0, r2, #31
 80057fe:	d404      	bmi.n	800580a <_fflush_r+0x32>
 8005800:	0599      	lsls	r1, r3, #22
 8005802:	d402      	bmi.n	800580a <_fflush_r+0x32>
 8005804:	6da0      	ldr	r0, [r4, #88]	@ 0x58
 8005806:	f7fd fb00 	bl	8002e0a <__retarget_lock_acquire_recursive>
 800580a:	4628      	mov	r0, r5
 800580c:	4621      	mov	r1, r4
 800580e:	f7ff ff61 	bl	80056d4 <__sflush_r>
 8005812:	6e63      	ldr	r3, [r4, #100]	@ 0x64
 8005814:	07da      	lsls	r2, r3, #31
 8005816:	4605      	mov	r5, r0
 8005818:	d4e4      	bmi.n	80057e4 <_fflush_r+0xc>
 800581a:	89a3      	ldrh	r3, [r4, #12]
 800581c:	059b      	lsls	r3, r3, #22
 800581e:	d4e1      	bmi.n	80057e4 <_fflush_r+0xc>
 8005820:	6da0      	ldr	r0, [r4, #88]	@ 0x58
 8005822:	f7fd faf3 	bl	8002e0c <__retarget_lock_release_recursive>
 8005826:	e7dd      	b.n	80057e4 <_fflush_r+0xc>

08005828 <__swbuf_r>:
 8005828:	b5f8      	push	{r3, r4, r5, r6, r7, lr}
 800582a:	460e      	mov	r6, r1
 800582c:	4614      	mov	r4, r2
 800582e:	4605      	mov	r5, r0
 8005830:	b118      	cbz	r0, 800583a <__swbuf_r+0x12>
 8005832:	6a03      	ldr	r3, [r0, #32]
 8005834:	b90b      	cbnz	r3, 800583a <__swbuf_r+0x12>
 8005836:	f7fd f9e1 	bl	8002bfc <__sinit>
 800583a:	69a3      	ldr	r3, [r4, #24]
 800583c:	60a3      	str	r3, [r4, #8]
 800583e:	89a3      	ldrh	r3, [r4, #12]
 8005840:	071a      	lsls	r2, r3, #28
 8005842:	d501      	bpl.n	8005848 <__swbuf_r+0x20>
 8005844:	6923      	ldr	r3, [r4, #16]
 8005846:	b943      	cbnz	r3, 800585a <__swbuf_r+0x32>
 8005848:	4621      	mov	r1, r4
 800584a:	4628      	mov	r0, r5
 800584c:	f000 f82a 	bl	80058a4 <__swsetup_r>
 8005850:	b118      	cbz	r0, 800585a <__swbuf_r+0x32>
 8005852:	f04f 37ff 	mov.w	r7, #4294967295
 8005856:	4638      	mov	r0, r7
 8005858:	bdf8      	pop	{r3, r4, r5, r6, r7, pc}
 800585a:	6823      	ldr	r3, [r4, #0]
 800585c:	6922      	ldr	r2, [r4, #16]
 800585e:	1a98      	subs	r0, r3, r2
 8005860:	6963      	ldr	r3, [r4, #20]
 8005862:	b2f6      	uxtb	r6, r6
 8005864:	4283      	cmp	r3, r0
 8005866:	4637      	mov	r7, r6
 8005868:	dc05      	bgt.n	8005876 <__swbuf_r+0x4e>
 800586a:	4621      	mov	r1, r4
 800586c:	4628      	mov	r0, r5
 800586e:	f7ff ffb3 	bl	80057d8 <_fflush_r>
 8005872:	2800      	cmp	r0, #0
 8005874:	d1ed      	bne.n	8005852 <__swbuf_r+0x2a>
 8005876:	68a3      	ldr	r3, [r4, #8]
 8005878:	3b01      	subs	r3, #1
 800587a:	60a3      	str	r3, [r4, #8]
 800587c:	6823      	ldr	r3, [r4, #0]
 800587e:	1c5a      	adds	r2, r3, #1
 8005880:	6022      	str	r2, [r4, #0]
 8005882:	701e      	strb	r6, [r3, #0]
 8005884:	6962      	ldr	r2, [r4, #20]
 8005886:	1c43      	adds	r3, r0, #1
 8005888:	429a      	cmp	r2, r3
 800588a:	d004      	beq.n	8005896 <__swbuf_r+0x6e>
 800588c:	89a3      	ldrh	r3, [r4, #12]
 800588e:	07db      	lsls	r3, r3, #31
 8005890:	d5e1      	bpl.n	8005856 <__swbuf_r+0x2e>
 8005892:	2e0a      	cmp	r6, #10
 8005894:	d1df      	bne.n	8005856 <__swbuf_r+0x2e>
 8005896:	4621      	mov	r1, r4
 8005898:	4628      	mov	r0, r5
 800589a:	f7ff ff9d 	bl	80057d8 <_fflush_r>
 800589e:	2800      	cmp	r0, #0
 80058a0:	d0d9      	beq.n	8005856 <__swbuf_r+0x2e>
 80058a2:	e7d6      	b.n	8005852 <__swbuf_r+0x2a>

080058a4 <__swsetup_r>:
 80058a4:	b538      	push	{r3, r4, r5, lr}
 80058a6:	4b28      	ldr	r3, [pc, #160]	@ (8005948 <__swsetup_r+0xa4>)
 80058a8:	4605      	mov	r5, r0
 80058aa:	6818      	ldr	r0, [r3, #0]
 80058ac:	460c      	mov	r4, r1
 80058ae:	b118      	cbz	r0, 80058b8 <__swsetup_r+0x14>
 80058b0:	6a03      	ldr	r3, [r0, #32]
 80058b2:	b90b      	cbnz	r3, 80058b8 <__swsetup_r+0x14>
 80058b4:	f7fd f9a2 	bl	8002bfc <__sinit>
 80058b8:	f9b4 300c 	ldrsh.w	r3, [r4, #12]
 80058bc:	071a      	lsls	r2, r3, #28
 80058be:	d421      	bmi.n	8005904 <__swsetup_r+0x60>
 80058c0:	06d8      	lsls	r0, r3, #27
 80058c2:	d407      	bmi.n	80058d4 <__swsetup_r+0x30>
 80058c4:	2209      	movs	r2, #9
 80058c6:	602a      	str	r2, [r5, #0]
 80058c8:	f043 0340 	orr.w	r3, r3, #64	@ 0x40
 80058cc:	81a3      	strh	r3, [r4, #12]
 80058ce:	f04f 30ff 	mov.w	r0, #4294967295
 80058d2:	e030      	b.n	8005936 <__swsetup_r+0x92>
 80058d4:	0759      	lsls	r1, r3, #29
 80058d6:	d512      	bpl.n	80058fe <__swsetup_r+0x5a>
 80058d8:	6b61      	ldr	r1, [r4, #52]	@ 0x34
 80058da:	b141      	cbz	r1, 80058ee <__swsetup_r+0x4a>
 80058dc:	f104 0344 	add.w	r3, r4, #68	@ 0x44
 80058e0:	4299      	cmp	r1, r3
 80058e2:	d002      	beq.n	80058ea <__swsetup_r+0x46>
 80058e4:	4628      	mov	r0, r5
 80058e6:	f7fe f86d 	bl	80039c4 <_free_r>
 80058ea:	2300      	movs	r3, #0
 80058ec:	6363      	str	r3, [r4, #52]	@ 0x34
 80058ee:	2200      	movs	r2, #0
 80058f0:	f9b4 300c 	ldrsh.w	r3, [r4, #12]
 80058f4:	6062      	str	r2, [r4, #4]
 80058f6:	6922      	ldr	r2, [r4, #16]
 80058f8:	6022      	str	r2, [r4, #0]
 80058fa:	f023 0324 	bic.w	r3, r3, #36	@ 0x24
 80058fe:	f043 0308 	orr.w	r3, r3, #8
 8005902:	81a3      	strh	r3, [r4, #12]
 8005904:	6922      	ldr	r2, [r4, #16]
 8005906:	b93a      	cbnz	r2, 8005918 <__swsetup_r+0x74>
 8005908:	059a      	lsls	r2, r3, #22
 800590a:	d501      	bpl.n	8005910 <__swsetup_r+0x6c>
 800590c:	0618      	lsls	r0, r3, #24
 800590e:	d503      	bpl.n	8005918 <__swsetup_r+0x74>
 8005910:	4621      	mov	r1, r4
 8005912:	4628      	mov	r0, r5
 8005914:	f000 fc5c 	bl	80061d0 <__smakebuf_r>
 8005918:	f9b4 300c 	ldrsh.w	r3, [r4, #12]
 800591c:	f013 0201 	ands.w	r2, r3, #1
 8005920:	d00a      	beq.n	8005938 <__swsetup_r+0x94>
 8005922:	2200      	movs	r2, #0
 8005924:	60a2      	str	r2, [r4, #8]
 8005926:	6962      	ldr	r2, [r4, #20]
 8005928:	4252      	negs	r2, r2
 800592a:	61a2      	str	r2, [r4, #24]
 800592c:	6922      	ldr	r2, [r4, #16]
 800592e:	b942      	cbnz	r2, 8005942 <__swsetup_r+0x9e>
 8005930:	f013 0080 	ands.w	r0, r3, #128	@ 0x80
 8005934:	d1c8      	bne.n	80058c8 <__swsetup_r+0x24>
 8005936:	bd38      	pop	{r3, r4, r5, pc}
 8005938:	0799      	lsls	r1, r3, #30
 800593a:	bf58      	it	pl
 800593c:	6962      	ldrpl	r2, [r4, #20]
 800593e:	60a2      	str	r2, [r4, #8]
 8005940:	e7f4      	b.n	800592c <__swsetup_r+0x88>
 8005942:	2000      	movs	r0, #0
 8005944:	e7f7      	b.n	8005936 <__swsetup_r+0x92>
 8005946:	bf00      	nop
 8005948:	2000001c 	.word	0x2000001c

0800594c <memmove>:
 800594c:	4288      	cmp	r0, r1
 800594e:	b510      	push	{r4, lr}
 8005950:	eb01 0402 	add.w	r4, r1, r2
 8005954:	d902      	bls.n	800595c <memmove+0x10>
 8005956:	4284      	cmp	r4, r0
 8005958:	4623      	mov	r3, r4
 800595a:	d807      	bhi.n	800596c <memmove+0x20>
 800595c:	1e43      	subs	r3, r0, #1
 800595e:	42a1      	cmp	r1, r4
 8005960:	d007      	beq.n	8005972 <memmove+0x26>
 8005962:	f811 2b01 	ldrb.w	r2, [r1], #1
 8005966:	f803 2f01 	strb.w	r2, [r3, #1]!
 800596a:	e7f8      	b.n	800595e <memmove+0x12>
 800596c:	4402      	add	r2, r0
 800596e:	4282      	cmp	r2, r0
 8005970:	d100      	bne.n	8005974 <memmove+0x28>
 8005972:	bd10      	pop	{r4, pc}
 8005974:	f813 1d01 	ldrb.w	r1, [r3, #-1]!
 8005978:	f802 1d01 	strb.w	r1, [r2, #-1]!
 800597c:	e7f7      	b.n	800596e <memmove+0x22>

0800597e <strncmp>:
 800597e:	b510      	push	{r4, lr}
 8005980:	b16a      	cbz	r2, 800599e <strncmp+0x20>
 8005982:	3901      	subs	r1, #1
 8005984:	1884      	adds	r4, r0, r2
 8005986:	f810 2b01 	ldrb.w	r2, [r0], #1
 800598a:	f811 3f01 	ldrb.w	r3, [r1, #1]!
 800598e:	429a      	cmp	r2, r3
 8005990:	d103      	bne.n	800599a <strncmp+0x1c>
 8005992:	42a0      	cmp	r0, r4
 8005994:	d001      	beq.n	800599a <strncmp+0x1c>
 8005996:	2a00      	cmp	r2, #0
 8005998:	d1f5      	bne.n	8005986 <strncmp+0x8>
 800599a:	1ad0      	subs	r0, r2, r3
 800599c:	bd10      	pop	{r4, pc}
 800599e:	4610      	mov	r0, r2
 80059a0:	e7fc      	b.n	800599c <strncmp+0x1e>
	...

080059a4 <_sbrk_r>:
 80059a4:	b538      	push	{r3, r4, r5, lr}
 80059a6:	4d06      	ldr	r5, [pc, #24]	@ (80059c0 <_sbrk_r+0x1c>)
 80059a8:	2300      	movs	r3, #0
 80059aa:	4604      	mov	r4, r0
 80059ac:	4608      	mov	r0, r1
 80059ae:	602b      	str	r3, [r5, #0]
 80059b0:	f7fc f8ee 	bl	8001b90 <_sbrk>
 80059b4:	1c43      	adds	r3, r0, #1
 80059b6:	d102      	bne.n	80059be <_sbrk_r+0x1a>
 80059b8:	682b      	ldr	r3, [r5, #0]
 80059ba:	b103      	cbz	r3, 80059be <_sbrk_r+0x1a>
 80059bc:	6023      	str	r3, [r4, #0]
 80059be:	bd38      	pop	{r3, r4, r5, pc}
 80059c0:	20000510 	.word	0x20000510

080059c4 <memcpy>:
 80059c4:	440a      	add	r2, r1
 80059c6:	4291      	cmp	r1, r2
 80059c8:	f100 33ff 	add.w	r3, r0, #4294967295
 80059cc:	d100      	bne.n	80059d0 <memcpy+0xc>
 80059ce:	4770      	bx	lr
 80059d0:	b510      	push	{r4, lr}
 80059d2:	f811 4b01 	ldrb.w	r4, [r1], #1
 80059d6:	f803 4f01 	strb.w	r4, [r3, #1]!
 80059da:	4291      	cmp	r1, r2
 80059dc:	d1f9      	bne.n	80059d2 <memcpy+0xe>
 80059de:	bd10      	pop	{r4, pc}

080059e0 <nan>:
 80059e0:	ed9f 0b01 	vldr	d0, [pc, #4]	@ 80059e8 <nan+0x8>
 80059e4:	4770      	bx	lr
 80059e6:	bf00      	nop
 80059e8:	00000000 	.word	0x00000000
 80059ec:	7ff80000 	.word	0x7ff80000

080059f0 <__assert_func>:
 80059f0:	b51f      	push	{r0, r1, r2, r3, r4, lr}
 80059f2:	4614      	mov	r4, r2
 80059f4:	461a      	mov	r2, r3
 80059f6:	4b09      	ldr	r3, [pc, #36]	@ (8005a1c <__assert_func+0x2c>)
 80059f8:	681b      	ldr	r3, [r3, #0]
 80059fa:	4605      	mov	r5, r0
 80059fc:	68d8      	ldr	r0, [r3, #12]
 80059fe:	b14c      	cbz	r4, 8005a14 <__assert_func+0x24>
 8005a00:	4b07      	ldr	r3, [pc, #28]	@ (8005a20 <__assert_func+0x30>)
 8005a02:	9100      	str	r1, [sp, #0]
 8005a04:	e9cd 3401 	strd	r3, r4, [sp, #4]
 8005a08:	4906      	ldr	r1, [pc, #24]	@ (8005a24 <__assert_func+0x34>)
 8005a0a:	462b      	mov	r3, r5
 8005a0c:	f000 fbaa 	bl	8006164 <fiprintf>
 8005a10:	f000 fc3a 	bl	8006288 <abort>
 8005a14:	4b04      	ldr	r3, [pc, #16]	@ (8005a28 <__assert_func+0x38>)
 8005a16:	461c      	mov	r4, r3
 8005a18:	e7f3      	b.n	8005a02 <__assert_func+0x12>
 8005a1a:	bf00      	nop
 8005a1c:	2000001c 	.word	0x2000001c
 8005a20:	08006c26 	.word	0x08006c26
 8005a24:	08006c33 	.word	0x08006c33
 8005a28:	08006c61 	.word	0x08006c61

08005a2c <_calloc_r>:
 8005a2c:	b570      	push	{r4, r5, r6, lr}
 8005a2e:	fba1 5402 	umull	r5, r4, r1, r2
 8005a32:	b934      	cbnz	r4, 8005a42 <_calloc_r+0x16>
 8005a34:	4629      	mov	r1, r5
 8005a36:	f7fe f839 	bl	8003aac <_malloc_r>
 8005a3a:	4606      	mov	r6, r0
 8005a3c:	b928      	cbnz	r0, 8005a4a <_calloc_r+0x1e>
 8005a3e:	4630      	mov	r0, r6
 8005a40:	bd70      	pop	{r4, r5, r6, pc}
 8005a42:	220c      	movs	r2, #12
 8005a44:	6002      	str	r2, [r0, #0]
 8005a46:	2600      	movs	r6, #0
 8005a48:	e7f9      	b.n	8005a3e <_calloc_r+0x12>
 8005a4a:	462a      	mov	r2, r5
 8005a4c:	4621      	mov	r1, r4
 8005a4e:	f7fd f983 	bl	8002d58 <memset>
 8005a52:	e7f4      	b.n	8005a3e <_calloc_r+0x12>

08005a54 <rshift>:
 8005a54:	6903      	ldr	r3, [r0, #16]
 8005a56:	ebb3 1f61 	cmp.w	r3, r1, asr #5
 8005a5a:	e92d 43f0 	stmdb	sp!, {r4, r5, r6, r7, r8, r9, lr}
 8005a5e:	ea4f 1261 	mov.w	r2, r1, asr #5
 8005a62:	f100 0414 	add.w	r4, r0, #20
 8005a66:	dd45      	ble.n	8005af4 <rshift+0xa0>
 8005a68:	f011 011f 	ands.w	r1, r1, #31
 8005a6c:	eb04 0683 	add.w	r6, r4, r3, lsl #2
 8005a70:	eb04 0582 	add.w	r5, r4, r2, lsl #2
 8005a74:	d10c      	bne.n	8005a90 <rshift+0x3c>
 8005a76:	f100 0710 	add.w	r7, r0, #16
 8005a7a:	4629      	mov	r1, r5
 8005a7c:	42b1      	cmp	r1, r6
 8005a7e:	d334      	bcc.n	8005aea <rshift+0x96>
 8005a80:	1a9b      	subs	r3, r3, r2
 8005a82:	009b      	lsls	r3, r3, #2
 8005a84:	1eea      	subs	r2, r5, #3
 8005a86:	4296      	cmp	r6, r2
 8005a88:	bf38      	it	cc
 8005a8a:	2300      	movcc	r3, #0
 8005a8c:	4423      	add	r3, r4
 8005a8e:	e015      	b.n	8005abc <rshift+0x68>
 8005a90:	f854 7022 	ldr.w	r7, [r4, r2, lsl #2]
 8005a94:	f1c1 0820 	rsb	r8, r1, #32
 8005a98:	40cf      	lsrs	r7, r1
 8005a9a:	f105 0e04 	add.w	lr, r5, #4
 8005a9e:	46a1      	mov	r9, r4
 8005aa0:	4576      	cmp	r6, lr
 8005aa2:	46f4      	mov	ip, lr
 8005aa4:	d815      	bhi.n	8005ad2 <rshift+0x7e>
 8005aa6:	1a9a      	subs	r2, r3, r2
 8005aa8:	0092      	lsls	r2, r2, #2
 8005aaa:	3a04      	subs	r2, #4
 8005aac:	3501      	adds	r5, #1
 8005aae:	42ae      	cmp	r6, r5
 8005ab0:	bf38      	it	cc
 8005ab2:	2200      	movcc	r2, #0
 8005ab4:	18a3      	adds	r3, r4, r2
 8005ab6:	50a7      	str	r7, [r4, r2]
 8005ab8:	b107      	cbz	r7, 8005abc <rshift+0x68>
 8005aba:	3304      	adds	r3, #4
 8005abc:	1b1a      	subs	r2, r3, r4
 8005abe:	42a3      	cmp	r3, r4
 8005ac0:	ea4f 02a2 	mov.w	r2, r2, asr #2
 8005ac4:	bf08      	it	eq
 8005ac6:	2300      	moveq	r3, #0
 8005ac8:	6102      	str	r2, [r0, #16]
 8005aca:	bf08      	it	eq
 8005acc:	6143      	streq	r3, [r0, #20]
 8005ace:	e8bd 83f0 	ldmia.w	sp!, {r4, r5, r6, r7, r8, r9, pc}
 8005ad2:	f8dc c000 	ldr.w	ip, [ip]
 8005ad6:	fa0c fc08 	lsl.w	ip, ip, r8
 8005ada:	ea4c 0707 	orr.w	r7, ip, r7
 8005ade:	f849 7b04 	str.w	r7, [r9], #4
 8005ae2:	f85e 7b04 	ldr.w	r7, [lr], #4
 8005ae6:	40cf      	lsrs	r7, r1
 8005ae8:	e7da      	b.n	8005aa0 <rshift+0x4c>
 8005aea:	f851 cb04 	ldr.w	ip, [r1], #4
 8005aee:	f847 cf04 	str.w	ip, [r7, #4]!
 8005af2:	e7c3      	b.n	8005a7c <rshift+0x28>
 8005af4:	4623      	mov	r3, r4
 8005af6:	e7e1      	b.n	8005abc <rshift+0x68>

08005af8 <__hexdig_fun>:
 8005af8:	f1a0 0330 	sub.w	r3, r0, #48	@ 0x30
 8005afc:	2b09      	cmp	r3, #9
 8005afe:	d802      	bhi.n	8005b06 <__hexdig_fun+0xe>
 8005b00:	3820      	subs	r0, #32
 8005b02:	b2c0      	uxtb	r0, r0
 8005b04:	4770      	bx	lr
 8005b06:	f1a0 0361 	sub.w	r3, r0, #97	@ 0x61
 8005b0a:	2b05      	cmp	r3, #5
 8005b0c:	d801      	bhi.n	8005b12 <__hexdig_fun+0x1a>
 8005b0e:	3847      	subs	r0, #71	@ 0x47
 8005b10:	e7f7      	b.n	8005b02 <__hexdig_fun+0xa>
 8005b12:	f1a0 0341 	sub.w	r3, r0, #65	@ 0x41
 8005b16:	2b05      	cmp	r3, #5
 8005b18:	d801      	bhi.n	8005b1e <__hexdig_fun+0x26>
 8005b1a:	3827      	subs	r0, #39	@ 0x27
 8005b1c:	e7f1      	b.n	8005b02 <__hexdig_fun+0xa>
 8005b1e:	2000      	movs	r0, #0
 8005b20:	4770      	bx	lr
	...

08005b24 <__gethex>:
 8005b24:	e92d 4ff0 	stmdb	sp!, {r4, r5, r6, r7, r8, r9, sl, fp, lr}
 8005b28:	b085      	sub	sp, #20
 8005b2a:	468a      	mov	sl, r1
 8005b2c:	9302      	str	r3, [sp, #8]
 8005b2e:	680b      	ldr	r3, [r1, #0]
 8005b30:	9001      	str	r0, [sp, #4]
 8005b32:	4690      	mov	r8, r2
 8005b34:	1c9c      	adds	r4, r3, #2
 8005b36:	46a1      	mov	r9, r4
 8005b38:	f814 0b01 	ldrb.w	r0, [r4], #1
 8005b3c:	2830      	cmp	r0, #48	@ 0x30
 8005b3e:	d0fa      	beq.n	8005b36 <__gethex+0x12>
 8005b40:	eba9 0303 	sub.w	r3, r9, r3
 8005b44:	f1a3 0b02 	sub.w	fp, r3, #2
 8005b48:	f7ff ffd6 	bl	8005af8 <__hexdig_fun>
 8005b4c:	4605      	mov	r5, r0
 8005b4e:	2800      	cmp	r0, #0
 8005b50:	d168      	bne.n	8005c24 <__gethex+0x100>
 8005b52:	49a0      	ldr	r1, [pc, #640]	@ (8005dd4 <__gethex+0x2b0>)
 8005b54:	2201      	movs	r2, #1
 8005b56:	4648      	mov	r0, r9
 8005b58:	f7ff ff11 	bl	800597e <strncmp>
 8005b5c:	4607      	mov	r7, r0
 8005b5e:	2800      	cmp	r0, #0
 8005b60:	d167      	bne.n	8005c32 <__gethex+0x10e>
 8005b62:	f899 0001 	ldrb.w	r0, [r9, #1]
 8005b66:	4626      	mov	r6, r4
 8005b68:	f7ff ffc6 	bl	8005af8 <__hexdig_fun>
 8005b6c:	2800      	cmp	r0, #0
 8005b6e:	d062      	beq.n	8005c36 <__gethex+0x112>
 8005b70:	4623      	mov	r3, r4
 8005b72:	7818      	ldrb	r0, [r3, #0]
 8005b74:	2830      	cmp	r0, #48	@ 0x30
 8005b76:	4699      	mov	r9, r3
 8005b78:	f103 0301 	add.w	r3, r3, #1
 8005b7c:	d0f9      	beq.n	8005b72 <__gethex+0x4e>
 8005b7e:	f7ff ffbb 	bl	8005af8 <__hexdig_fun>
 8005b82:	fab0 f580 	clz	r5, r0
 8005b86:	096d      	lsrs	r5, r5, #5
 8005b88:	f04f 0b01 	mov.w	fp, #1
 8005b8c:	464a      	mov	r2, r9
 8005b8e:	4616      	mov	r6, r2
 8005b90:	3201      	adds	r2, #1
 8005b92:	7830      	ldrb	r0, [r6, #0]
 8005b94:	f7ff ffb0 	bl	8005af8 <__hexdig_fun>
 8005b98:	2800      	cmp	r0, #0
 8005b9a:	d1f8      	bne.n	8005b8e <__gethex+0x6a>
 8005b9c:	498d      	ldr	r1, [pc, #564]	@ (8005dd4 <__gethex+0x2b0>)
 8005b9e:	2201      	movs	r2, #1
 8005ba0:	4630      	mov	r0, r6
 8005ba2:	f7ff feec 	bl	800597e <strncmp>
 8005ba6:	2800      	cmp	r0, #0
 8005ba8:	d13f      	bne.n	8005c2a <__gethex+0x106>
 8005baa:	b944      	cbnz	r4, 8005bbe <__gethex+0x9a>
 8005bac:	1c74      	adds	r4, r6, #1
 8005bae:	4622      	mov	r2, r4
 8005bb0:	4616      	mov	r6, r2
 8005bb2:	3201      	adds	r2, #1
 8005bb4:	7830      	ldrb	r0, [r6, #0]
 8005bb6:	f7ff ff9f 	bl	8005af8 <__hexdig_fun>
 8005bba:	2800      	cmp	r0, #0
 8005bbc:	d1f8      	bne.n	8005bb0 <__gethex+0x8c>
 8005bbe:	1ba4      	subs	r4, r4, r6
 8005bc0:	00a7      	lsls	r7, r4, #2
 8005bc2:	7833      	ldrb	r3, [r6, #0]
 8005bc4:	f003 03df 	and.w	r3, r3, #223	@ 0xdf
 8005bc8:	2b50      	cmp	r3, #80	@ 0x50
 8005bca:	d13e      	bne.n	8005c4a <__gethex+0x126>
 8005bcc:	7873      	ldrb	r3, [r6, #1]
 8005bce:	2b2b      	cmp	r3, #43	@ 0x2b
 8005bd0:	d033      	beq.n	8005c3a <__gethex+0x116>
 8005bd2:	2b2d      	cmp	r3, #45	@ 0x2d
 8005bd4:	d034      	beq.n	8005c40 <__gethex+0x11c>
 8005bd6:	1c71      	adds	r1, r6, #1
 8005bd8:	2400      	movs	r4, #0
 8005bda:	7808      	ldrb	r0, [r1, #0]
 8005bdc:	f7ff ff8c 	bl	8005af8 <__hexdig_fun>
 8005be0:	1e43      	subs	r3, r0, #1
 8005be2:	b2db      	uxtb	r3, r3
 8005be4:	2b18      	cmp	r3, #24
 8005be6:	d830      	bhi.n	8005c4a <__gethex+0x126>
 8005be8:	f1a0 0210 	sub.w	r2, r0, #16
 8005bec:	f811 0f01 	ldrb.w	r0, [r1, #1]!
 8005bf0:	f7ff ff82 	bl	8005af8 <__hexdig_fun>
 8005bf4:	f100 3cff 	add.w	ip, r0, #4294967295
 8005bf8:	fa5f fc8c 	uxtb.w	ip, ip
 8005bfc:	f1bc 0f18 	cmp.w	ip, #24
 8005c00:	f04f 030a 	mov.w	r3, #10
 8005c04:	d91e      	bls.n	8005c44 <__gethex+0x120>
 8005c06:	b104      	cbz	r4, 8005c0a <__gethex+0xe6>
 8005c08:	4252      	negs	r2, r2
 8005c0a:	4417      	add	r7, r2
 8005c0c:	f8ca 1000 	str.w	r1, [sl]
 8005c10:	b1ed      	cbz	r5, 8005c4e <__gethex+0x12a>
 8005c12:	f1bb 0f00 	cmp.w	fp, #0
 8005c16:	bf0c      	ite	eq
 8005c18:	2506      	moveq	r5, #6
 8005c1a:	2500      	movne	r5, #0
 8005c1c:	4628      	mov	r0, r5
 8005c1e:	b005      	add	sp, #20
 8005c20:	e8bd 8ff0 	ldmia.w	sp!, {r4, r5, r6, r7, r8, r9, sl, fp, pc}
 8005c24:	2500      	movs	r5, #0
 8005c26:	462c      	mov	r4, r5
 8005c28:	e7b0      	b.n	8005b8c <__gethex+0x68>
 8005c2a:	2c00      	cmp	r4, #0
 8005c2c:	d1c7      	bne.n	8005bbe <__gethex+0x9a>
 8005c2e:	4627      	mov	r7, r4
 8005c30:	e7c7      	b.n	8005bc2 <__gethex+0x9e>
 8005c32:	464e      	mov	r6, r9
 8005c34:	462f      	mov	r7, r5
 8005c36:	2501      	movs	r5, #1
 8005c38:	e7c3      	b.n	8005bc2 <__gethex+0x9e>
 8005c3a:	2400      	movs	r4, #0
 8005c3c:	1cb1      	adds	r1, r6, #2
 8005c3e:	e7cc      	b.n	8005bda <__gethex+0xb6>
 8005c40:	2401      	movs	r4, #1
 8005c42:	e7fb      	b.n	8005c3c <__gethex+0x118>
 8005c44:	fb03 0002 	mla	r0, r3, r2, r0
 8005c48:	e7ce      	b.n	8005be8 <__gethex+0xc4>
 8005c4a:	4631      	mov	r1, r6
 8005c4c:	e7de      	b.n	8005c0c <__gethex+0xe8>
 8005c4e:	eba6 0309 	sub.w	r3, r6, r9
 8005c52:	3b01      	subs	r3, #1
 8005c54:	4629      	mov	r1, r5
 8005c56:	2b07      	cmp	r3, #7
 8005c58:	dc0a      	bgt.n	8005c70 <__gethex+0x14c>
 8005c5a:	9801      	ldr	r0, [sp, #4]
 8005c5c:	f7fd ffb2 	bl	8003bc4 <_Balloc>
 8005c60:	4604      	mov	r4, r0
 8005c62:	b940      	cbnz	r0, 8005c76 <__gethex+0x152>
 8005c64:	4b5c      	ldr	r3, [pc, #368]	@ (8005dd8 <__gethex+0x2b4>)
 8005c66:	4602      	mov	r2, r0
 8005c68:	21e4      	movs	r1, #228	@ 0xe4
 8005c6a:	485c      	ldr	r0, [pc, #368]	@ (8005ddc <__gethex+0x2b8>)
 8005c6c:	f7ff fec0 	bl	80059f0 <__assert_func>
 8005c70:	3101      	adds	r1, #1
 8005c72:	105b      	asrs	r3, r3, #1
 8005c74:	e7ef      	b.n	8005c56 <__gethex+0x132>
 8005c76:	f100 0a14 	add.w	sl, r0, #20
 8005c7a:	2300      	movs	r3, #0
 8005c7c:	4655      	mov	r5, sl
 8005c7e:	469b      	mov	fp, r3
 8005c80:	45b1      	cmp	r9, r6
 8005c82:	d337      	bcc.n	8005cf4 <__gethex+0x1d0>
 8005c84:	f845 bb04 	str.w	fp, [r5], #4
 8005c88:	eba5 050a 	sub.w	r5, r5, sl
 8005c8c:	10ad      	asrs	r5, r5, #2
 8005c8e:	6125      	str	r5, [r4, #16]
 8005c90:	4658      	mov	r0, fp
 8005c92:	f7fe f887 	bl	8003da4 <__hi0bits>
 8005c96:	016d      	lsls	r5, r5, #5
 8005c98:	f8d8 6000 	ldr.w	r6, [r8]
 8005c9c:	1a2d      	subs	r5, r5, r0
 8005c9e:	42b5      	cmp	r5, r6
 8005ca0:	dd54      	ble.n	8005d4c <__gethex+0x228>
 8005ca2:	1bad      	subs	r5, r5, r6
 8005ca4:	4629      	mov	r1, r5
 8005ca6:	4620      	mov	r0, r4
 8005ca8:	f7fe fc20 	bl	80044ec <__any_on>
 8005cac:	4681      	mov	r9, r0
 8005cae:	b178      	cbz	r0, 8005cd0 <__gethex+0x1ac>
 8005cb0:	1e6b      	subs	r3, r5, #1
 8005cb2:	1159      	asrs	r1, r3, #5
 8005cb4:	f003 021f 	and.w	r2, r3, #31
 8005cb8:	f85a 1021 	ldr.w	r1, [sl, r1, lsl #2]
 8005cbc:	f04f 0901 	mov.w	r9, #1
 8005cc0:	fa09 f202 	lsl.w	r2, r9, r2
 8005cc4:	420a      	tst	r2, r1
 8005cc6:	d003      	beq.n	8005cd0 <__gethex+0x1ac>
 8005cc8:	454b      	cmp	r3, r9
 8005cca:	dc36      	bgt.n	8005d3a <__gethex+0x216>
 8005ccc:	f04f 0902 	mov.w	r9, #2
 8005cd0:	4629      	mov	r1, r5
 8005cd2:	4620      	mov	r0, r4
 8005cd4:	f7ff febe 	bl	8005a54 <rshift>
 8005cd8:	442f      	add	r7, r5
 8005cda:	f8d8 3008 	ldr.w	r3, [r8, #8]
 8005cde:	42bb      	cmp	r3, r7
 8005ce0:	da42      	bge.n	8005d68 <__gethex+0x244>
 8005ce2:	9801      	ldr	r0, [sp, #4]
 8005ce4:	4621      	mov	r1, r4
 8005ce6:	f7fd ffab 	bl	8003c40 <_Bfree>
 8005cea:	9a0e      	ldr	r2, [sp, #56]	@ 0x38
 8005cec:	2300      	movs	r3, #0
 8005cee:	6013      	str	r3, [r2, #0]
 8005cf0:	25a3      	movs	r5, #163	@ 0xa3
 8005cf2:	e793      	b.n	8005c1c <__gethex+0xf8>
 8005cf4:	f816 2d01 	ldrb.w	r2, [r6, #-1]!
 8005cf8:	2a2e      	cmp	r2, #46	@ 0x2e
 8005cfa:	d012      	beq.n	8005d22 <__gethex+0x1fe>
 8005cfc:	2b20      	cmp	r3, #32
 8005cfe:	d104      	bne.n	8005d0a <__gethex+0x1e6>
 8005d00:	f845 bb04 	str.w	fp, [r5], #4
 8005d04:	f04f 0b00 	mov.w	fp, #0
 8005d08:	465b      	mov	r3, fp
 8005d0a:	7830      	ldrb	r0, [r6, #0]
 8005d0c:	9303      	str	r3, [sp, #12]
 8005d0e:	f7ff fef3 	bl	8005af8 <__hexdig_fun>
 8005d12:	9b03      	ldr	r3, [sp, #12]
 8005d14:	f000 000f 	and.w	r0, r0, #15
 8005d18:	4098      	lsls	r0, r3
 8005d1a:	ea4b 0b00 	orr.w	fp, fp, r0
 8005d1e:	3304      	adds	r3, #4
 8005d20:	e7ae      	b.n	8005c80 <__gethex+0x15c>
 8005d22:	45b1      	cmp	r9, r6
 8005d24:	d8ea      	bhi.n	8005cfc <__gethex+0x1d8>
 8005d26:	492b      	ldr	r1, [pc, #172]	@ (8005dd4 <__gethex+0x2b0>)
 8005d28:	9303      	str	r3, [sp, #12]
 8005d2a:	2201      	movs	r2, #1
 8005d2c:	4630      	mov	r0, r6
 8005d2e:	f7ff fe26 	bl	800597e <strncmp>
 8005d32:	9b03      	ldr	r3, [sp, #12]
 8005d34:	2800      	cmp	r0, #0
 8005d36:	d1e1      	bne.n	8005cfc <__gethex+0x1d8>
 8005d38:	e7a2      	b.n	8005c80 <__gethex+0x15c>
 8005d3a:	1ea9      	subs	r1, r5, #2
 8005d3c:	4620      	mov	r0, r4
 8005d3e:	f7fe fbd5 	bl	80044ec <__any_on>
 8005d42:	2800      	cmp	r0, #0
 8005d44:	d0c2      	beq.n	8005ccc <__gethex+0x1a8>
 8005d46:	f04f 0903 	mov.w	r9, #3
 8005d4a:	e7c1      	b.n	8005cd0 <__gethex+0x1ac>
 8005d4c:	da09      	bge.n	8005d62 <__gethex+0x23e>
 8005d4e:	1b75      	subs	r5, r6, r5
 8005d50:	4621      	mov	r1, r4
 8005d52:	9801      	ldr	r0, [sp, #4]
 8005d54:	462a      	mov	r2, r5
 8005d56:	f7fe f98d 	bl	8004074 <__lshift>
 8005d5a:	1b7f      	subs	r7, r7, r5
 8005d5c:	4604      	mov	r4, r0
 8005d5e:	f100 0a14 	add.w	sl, r0, #20
 8005d62:	f04f 0900 	mov.w	r9, #0
 8005d66:	e7b8      	b.n	8005cda <__gethex+0x1b6>
 8005d68:	f8d8 5004 	ldr.w	r5, [r8, #4]
 8005d6c:	42bd      	cmp	r5, r7
 8005d6e:	dd6f      	ble.n	8005e50 <__gethex+0x32c>
 8005d70:	1bed      	subs	r5, r5, r7
 8005d72:	42ae      	cmp	r6, r5
 8005d74:	dc34      	bgt.n	8005de0 <__gethex+0x2bc>
 8005d76:	f8d8 300c 	ldr.w	r3, [r8, #12]
 8005d7a:	2b02      	cmp	r3, #2
 8005d7c:	d022      	beq.n	8005dc4 <__gethex+0x2a0>
 8005d7e:	2b03      	cmp	r3, #3
 8005d80:	d024      	beq.n	8005dcc <__gethex+0x2a8>
 8005d82:	2b01      	cmp	r3, #1
 8005d84:	d115      	bne.n	8005db2 <__gethex+0x28e>
 8005d86:	42ae      	cmp	r6, r5
 8005d88:	d113      	bne.n	8005db2 <__gethex+0x28e>
 8005d8a:	2e01      	cmp	r6, #1
 8005d8c:	d10b      	bne.n	8005da6 <__gethex+0x282>
 8005d8e:	9a02      	ldr	r2, [sp, #8]
 8005d90:	f8d8 3004 	ldr.w	r3, [r8, #4]
 8005d94:	6013      	str	r3, [r2, #0]
 8005d96:	2301      	movs	r3, #1
 8005d98:	6123      	str	r3, [r4, #16]
 8005d9a:	f8ca 3000 	str.w	r3, [sl]
 8005d9e:	9b0e      	ldr	r3, [sp, #56]	@ 0x38
 8005da0:	2562      	movs	r5, #98	@ 0x62
 8005da2:	601c      	str	r4, [r3, #0]
 8005da4:	e73a      	b.n	8005c1c <__gethex+0xf8>
 8005da6:	1e71      	subs	r1, r6, #1
 8005da8:	4620      	mov	r0, r4
 8005daa:	f7fe fb9f 	bl	80044ec <__any_on>
 8005dae:	2800      	cmp	r0, #0
 8005db0:	d1ed      	bne.n	8005d8e <__gethex+0x26a>
 8005db2:	9801      	ldr	r0, [sp, #4]
 8005db4:	4621      	mov	r1, r4
 8005db6:	f7fd ff43 	bl	8003c40 <_Bfree>
 8005dba:	9a0e      	ldr	r2, [sp, #56]	@ 0x38
 8005dbc:	2300      	movs	r3, #0
 8005dbe:	6013      	str	r3, [r2, #0]
 8005dc0:	2550      	movs	r5, #80	@ 0x50
 8005dc2:	e72b      	b.n	8005c1c <__gethex+0xf8>
 8005dc4:	9b0f      	ldr	r3, [sp, #60]	@ 0x3c
 8005dc6:	2b00      	cmp	r3, #0
 8005dc8:	d1f3      	bne.n	8005db2 <__gethex+0x28e>
 8005dca:	e7e0      	b.n	8005d8e <__gethex+0x26a>
 8005dcc:	9b0f      	ldr	r3, [sp, #60]	@ 0x3c
 8005dce:	2b00      	cmp	r3, #0
 8005dd0:	d1dd      	bne.n	8005d8e <__gethex+0x26a>
 8005dd2:	e7ee      	b.n	8005db2 <__gethex+0x28e>
 8005dd4:	08006c0b 	.word	0x08006c0b
 8005dd8:	08006ba1 	.word	0x08006ba1
 8005ddc:	08006c62 	.word	0x08006c62
 8005de0:	1e6f      	subs	r7, r5, #1
 8005de2:	f1b9 0f00 	cmp.w	r9, #0
 8005de6:	d130      	bne.n	8005e4a <__gethex+0x326>
 8005de8:	b127      	cbz	r7, 8005df4 <__gethex+0x2d0>
 8005dea:	4639      	mov	r1, r7
 8005dec:	4620      	mov	r0, r4
 8005dee:	f7fe fb7d 	bl	80044ec <__any_on>
 8005df2:	4681      	mov	r9, r0
 8005df4:	117a      	asrs	r2, r7, #5
 8005df6:	2301      	movs	r3, #1
 8005df8:	f85a 2022 	ldr.w	r2, [sl, r2, lsl #2]
 8005dfc:	f007 071f 	and.w	r7, r7, #31
 8005e00:	40bb      	lsls	r3, r7
 8005e02:	4213      	tst	r3, r2
 8005e04:	4629      	mov	r1, r5
 8005e06:	4620      	mov	r0, r4
 8005e08:	bf18      	it	ne
 8005e0a:	f049 0902 	orrne.w	r9, r9, #2
 8005e0e:	f7ff fe21 	bl	8005a54 <rshift>
 8005e12:	f8d8 7004 	ldr.w	r7, [r8, #4]
 8005e16:	1b76      	subs	r6, r6, r5
 8005e18:	2502      	movs	r5, #2
 8005e1a:	f1b9 0f00 	cmp.w	r9, #0
 8005e1e:	d047      	beq.n	8005eb0 <__gethex+0x38c>
 8005e20:	f8d8 300c 	ldr.w	r3, [r8, #12]
 8005e24:	2b02      	cmp	r3, #2
 8005e26:	d015      	beq.n	8005e54 <__gethex+0x330>
 8005e28:	2b03      	cmp	r3, #3
 8005e2a:	d017      	beq.n	8005e5c <__gethex+0x338>
 8005e2c:	2b01      	cmp	r3, #1
 8005e2e:	d109      	bne.n	8005e44 <__gethex+0x320>
 8005e30:	f019 0f02 	tst.w	r9, #2
 8005e34:	d006      	beq.n	8005e44 <__gethex+0x320>
 8005e36:	f8da 3000 	ldr.w	r3, [sl]
 8005e3a:	ea49 0903 	orr.w	r9, r9, r3
 8005e3e:	f019 0f01 	tst.w	r9, #1
 8005e42:	d10e      	bne.n	8005e62 <__gethex+0x33e>
 8005e44:	f045 0510 	orr.w	r5, r5, #16
 8005e48:	e032      	b.n	8005eb0 <__gethex+0x38c>
 8005e4a:	f04f 0901 	mov.w	r9, #1
 8005e4e:	e7d1      	b.n	8005df4 <__gethex+0x2d0>
 8005e50:	2501      	movs	r5, #1
 8005e52:	e7e2      	b.n	8005e1a <__gethex+0x2f6>
 8005e54:	9b0f      	ldr	r3, [sp, #60]	@ 0x3c
 8005e56:	f1c3 0301 	rsb	r3, r3, #1
 8005e5a:	930f      	str	r3, [sp, #60]	@ 0x3c
 8005e5c:	9b0f      	ldr	r3, [sp, #60]	@ 0x3c
 8005e5e:	2b00      	cmp	r3, #0
 8005e60:	d0f0      	beq.n	8005e44 <__gethex+0x320>
 8005e62:	f8d4 b010 	ldr.w	fp, [r4, #16]
 8005e66:	f104 0314 	add.w	r3, r4, #20
 8005e6a:	ea4f 0a8b 	mov.w	sl, fp, lsl #2
 8005e6e:	eb03 018b 	add.w	r1, r3, fp, lsl #2
 8005e72:	f04f 0c00 	mov.w	ip, #0
 8005e76:	4618      	mov	r0, r3
 8005e78:	f853 2b04 	ldr.w	r2, [r3], #4
 8005e7c:	f1b2 3fff 	cmp.w	r2, #4294967295
 8005e80:	d01b      	beq.n	8005eba <__gethex+0x396>
 8005e82:	3201      	adds	r2, #1
 8005e84:	6002      	str	r2, [r0, #0]
 8005e86:	2d02      	cmp	r5, #2
 8005e88:	f104 0314 	add.w	r3, r4, #20
 8005e8c:	d13c      	bne.n	8005f08 <__gethex+0x3e4>
 8005e8e:	f8d8 2000 	ldr.w	r2, [r8]
 8005e92:	3a01      	subs	r2, #1
 8005e94:	42b2      	cmp	r2, r6
 8005e96:	d109      	bne.n	8005eac <__gethex+0x388>
 8005e98:	1171      	asrs	r1, r6, #5
 8005e9a:	2201      	movs	r2, #1
 8005e9c:	f853 3021 	ldr.w	r3, [r3, r1, lsl #2]
 8005ea0:	f006 061f 	and.w	r6, r6, #31
 8005ea4:	fa02 f606 	lsl.w	r6, r2, r6
 8005ea8:	421e      	tst	r6, r3
 8005eaa:	d13a      	bne.n	8005f22 <__gethex+0x3fe>
 8005eac:	f045 0520 	orr.w	r5, r5, #32
 8005eb0:	9b0e      	ldr	r3, [sp, #56]	@ 0x38
 8005eb2:	601c      	str	r4, [r3, #0]
 8005eb4:	9b02      	ldr	r3, [sp, #8]
 8005eb6:	601f      	str	r7, [r3, #0]
 8005eb8:	e6b0      	b.n	8005c1c <__gethex+0xf8>
 8005eba:	4299      	cmp	r1, r3
 8005ebc:	f843 cc04 	str.w	ip, [r3, #-4]
 8005ec0:	d8d9      	bhi.n	8005e76 <__gethex+0x352>
 8005ec2:	68a3      	ldr	r3, [r4, #8]
 8005ec4:	459b      	cmp	fp, r3
 8005ec6:	db17      	blt.n	8005ef8 <__gethex+0x3d4>
 8005ec8:	6861      	ldr	r1, [r4, #4]
 8005eca:	9801      	ldr	r0, [sp, #4]
 8005ecc:	3101      	adds	r1, #1
 8005ece:	f7fd fe79 	bl	8003bc4 <_Balloc>
 8005ed2:	4681      	mov	r9, r0
 8005ed4:	b918      	cbnz	r0, 8005ede <__gethex+0x3ba>
 8005ed6:	4b1a      	ldr	r3, [pc, #104]	@ (8005f40 <__gethex+0x41c>)
 8005ed8:	4602      	mov	r2, r0
 8005eda:	2184      	movs	r1, #132	@ 0x84
 8005edc:	e6c5      	b.n	8005c6a <__gethex+0x146>
 8005ede:	6922      	ldr	r2, [r4, #16]
 8005ee0:	3202      	adds	r2, #2
 8005ee2:	f104 010c 	add.w	r1, r4, #12
 8005ee6:	0092      	lsls	r2, r2, #2
 8005ee8:	300c      	adds	r0, #12
 8005eea:	f7ff fd6b 	bl	80059c4 <memcpy>
 8005eee:	4621      	mov	r1, r4
 8005ef0:	9801      	ldr	r0, [sp, #4]
 8005ef2:	f7fd fea5 	bl	8003c40 <_Bfree>
 8005ef6:	464c      	mov	r4, r9
 8005ef8:	6923      	ldr	r3, [r4, #16]
 8005efa:	1c5a      	adds	r2, r3, #1
 8005efc:	eb04 0383 	add.w	r3, r4, r3, lsl #2
 8005f00:	6122      	str	r2, [r4, #16]
 8005f02:	2201      	movs	r2, #1
 8005f04:	615a      	str	r2, [r3, #20]
 8005f06:	e7be      	b.n	8005e86 <__gethex+0x362>
 8005f08:	6922      	ldr	r2, [r4, #16]
 8005f0a:	455a      	cmp	r2, fp
 8005f0c:	dd0b      	ble.n	8005f26 <__gethex+0x402>
 8005f0e:	2101      	movs	r1, #1
 8005f10:	4620      	mov	r0, r4
 8005f12:	f7ff fd9f 	bl	8005a54 <rshift>
 8005f16:	f8d8 3008 	ldr.w	r3, [r8, #8]
 8005f1a:	3701      	adds	r7, #1
 8005f1c:	42bb      	cmp	r3, r7
 8005f1e:	f6ff aee0 	blt.w	8005ce2 <__gethex+0x1be>
 8005f22:	2501      	movs	r5, #1
 8005f24:	e7c2      	b.n	8005eac <__gethex+0x388>
 8005f26:	f016 061f 	ands.w	r6, r6, #31
 8005f2a:	d0fa      	beq.n	8005f22 <__gethex+0x3fe>
 8005f2c:	4453      	add	r3, sl
 8005f2e:	f1c6 0620 	rsb	r6, r6, #32
 8005f32:	f853 0c04 	ldr.w	r0, [r3, #-4]
 8005f36:	f7fd ff35 	bl	8003da4 <__hi0bits>
 8005f3a:	42b0      	cmp	r0, r6
 8005f3c:	dbe7      	blt.n	8005f0e <__gethex+0x3ea>
 8005f3e:	e7f0      	b.n	8005f22 <__gethex+0x3fe>
 8005f40:	08006ba1 	.word	0x08006ba1

08005f44 <L_shift>:
 8005f44:	f1c2 0208 	rsb	r2, r2, #8
 8005f48:	0092      	lsls	r2, r2, #2
 8005f4a:	b570      	push	{r4, r5, r6, lr}
 8005f4c:	f1c2 0620 	rsb	r6, r2, #32
 8005f50:	6843      	ldr	r3, [r0, #4]
 8005f52:	6804      	ldr	r4, [r0, #0]
 8005f54:	fa03 f506 	lsl.w	r5, r3, r6
 8005f58:	432c      	orrs	r4, r5
 8005f5a:	40d3      	lsrs	r3, r2
 8005f5c:	6004      	str	r4, [r0, #0]
 8005f5e:	f840 3f04 	str.w	r3, [r0, #4]!
 8005f62:	4288      	cmp	r0, r1
 8005f64:	d3f4      	bcc.n	8005f50 <L_shift+0xc>
 8005f66:	bd70      	pop	{r4, r5, r6, pc}

08005f68 <__match>:
 8005f68:	b530      	push	{r4, r5, lr}
 8005f6a:	6803      	ldr	r3, [r0, #0]
 8005f6c:	3301      	adds	r3, #1
 8005f6e:	f811 4b01 	ldrb.w	r4, [r1], #1
 8005f72:	b914      	cbnz	r4, 8005f7a <__match+0x12>
 8005f74:	6003      	str	r3, [r0, #0]
 8005f76:	2001      	movs	r0, #1
 8005f78:	bd30      	pop	{r4, r5, pc}
 8005f7a:	f813 2b01 	ldrb.w	r2, [r3], #1
 8005f7e:	f1a2 0541 	sub.w	r5, r2, #65	@ 0x41
 8005f82:	2d19      	cmp	r5, #25
 8005f84:	bf98      	it	ls
 8005f86:	3220      	addls	r2, #32
 8005f88:	42a2      	cmp	r2, r4
 8005f8a:	d0f0      	beq.n	8005f6e <__match+0x6>
 8005f8c:	2000      	movs	r0, #0
 8005f8e:	e7f3      	b.n	8005f78 <__match+0x10>

08005f90 <__hexnan>:
 8005f90:	e92d 4ff0 	stmdb	sp!, {r4, r5, r6, r7, r8, r9, sl, fp, lr}
 8005f94:	680b      	ldr	r3, [r1, #0]
 8005f96:	6801      	ldr	r1, [r0, #0]
 8005f98:	115e      	asrs	r6, r3, #5
 8005f9a:	eb02 0686 	add.w	r6, r2, r6, lsl #2
 8005f9e:	f013 031f 	ands.w	r3, r3, #31
 8005fa2:	b087      	sub	sp, #28
 8005fa4:	bf18      	it	ne
 8005fa6:	3604      	addne	r6, #4
 8005fa8:	2500      	movs	r5, #0
 8005faa:	1f37      	subs	r7, r6, #4
 8005fac:	4682      	mov	sl, r0
 8005fae:	4690      	mov	r8, r2
 8005fb0:	9301      	str	r3, [sp, #4]
 8005fb2:	f846 5c04 	str.w	r5, [r6, #-4]
 8005fb6:	46b9      	mov	r9, r7
 8005fb8:	463c      	mov	r4, r7
 8005fba:	9502      	str	r5, [sp, #8]
 8005fbc:	46ab      	mov	fp, r5
 8005fbe:	784a      	ldrb	r2, [r1, #1]
 8005fc0:	1c4b      	adds	r3, r1, #1
 8005fc2:	9303      	str	r3, [sp, #12]
 8005fc4:	b342      	cbz	r2, 8006018 <__hexnan+0x88>
 8005fc6:	4610      	mov	r0, r2
 8005fc8:	9105      	str	r1, [sp, #20]
 8005fca:	9204      	str	r2, [sp, #16]
 8005fcc:	f7ff fd94 	bl	8005af8 <__hexdig_fun>
 8005fd0:	2800      	cmp	r0, #0
 8005fd2:	d153      	bne.n	800607c <__hexnan+0xec>
 8005fd4:	9a04      	ldr	r2, [sp, #16]
 8005fd6:	9905      	ldr	r1, [sp, #20]
 8005fd8:	2a20      	cmp	r2, #32
 8005fda:	d818      	bhi.n	800600e <__hexnan+0x7e>
 8005fdc:	9b02      	ldr	r3, [sp, #8]
 8005fde:	459b      	cmp	fp, r3
 8005fe0:	dd13      	ble.n	800600a <__hexnan+0x7a>
 8005fe2:	454c      	cmp	r4, r9
 8005fe4:	d206      	bcs.n	8005ff4 <__hexnan+0x64>
 8005fe6:	2d07      	cmp	r5, #7
 8005fe8:	dc04      	bgt.n	8005ff4 <__hexnan+0x64>
 8005fea:	462a      	mov	r2, r5
 8005fec:	4649      	mov	r1, r9
 8005fee:	4620      	mov	r0, r4
 8005ff0:	f7ff ffa8 	bl	8005f44 <L_shift>
 8005ff4:	4544      	cmp	r4, r8
 8005ff6:	d954      	bls.n	80060a2 <__hexnan+0x112>
 8005ff8:	2300      	movs	r3, #0
 8005ffa:	f1a4 0904 	sub.w	r9, r4, #4
 8005ffe:	f844 3c04 	str.w	r3, [r4, #-4]
 8006002:	f8cd b008 	str.w	fp, [sp, #8]
 8006006:	464c      	mov	r4, r9
 8006008:	461d      	mov	r5, r3
 800600a:	9903      	ldr	r1, [sp, #12]
 800600c:	e7d7      	b.n	8005fbe <__hexnan+0x2e>
 800600e:	2a29      	cmp	r2, #41	@ 0x29
 8006010:	d159      	bne.n	80060c6 <__hexnan+0x136>
 8006012:	3102      	adds	r1, #2
 8006014:	f8ca 1000 	str.w	r1, [sl]
 8006018:	f1bb 0f00 	cmp.w	fp, #0
 800601c:	d053      	beq.n	80060c6 <__hexnan+0x136>
 800601e:	454c      	cmp	r4, r9
 8006020:	d206      	bcs.n	8006030 <__hexnan+0xa0>
 8006022:	2d07      	cmp	r5, #7
 8006024:	dc04      	bgt.n	8006030 <__hexnan+0xa0>
 8006026:	462a      	mov	r2, r5
 8006028:	4649      	mov	r1, r9
 800602a:	4620      	mov	r0, r4
 800602c:	f7ff ff8a 	bl	8005f44 <L_shift>
 8006030:	4544      	cmp	r4, r8
 8006032:	d938      	bls.n	80060a6 <__hexnan+0x116>
 8006034:	f1a8 0204 	sub.w	r2, r8, #4
 8006038:	4623      	mov	r3, r4
 800603a:	f853 1b04 	ldr.w	r1, [r3], #4
 800603e:	f842 1f04 	str.w	r1, [r2, #4]!
 8006042:	429f      	cmp	r7, r3
 8006044:	d2f9      	bcs.n	800603a <__hexnan+0xaa>
 8006046:	1b3b      	subs	r3, r7, r4
 8006048:	f023 0303 	bic.w	r3, r3, #3
 800604c:	3401      	adds	r4, #1
 800604e:	3e03      	subs	r6, #3
 8006050:	42b4      	cmp	r4, r6
 8006052:	bf88      	it	hi
 8006054:	2300      	movhi	r3, #0
 8006056:	f108 0204 	add.w	r2, r8, #4
 800605a:	4413      	add	r3, r2
 800605c:	2100      	movs	r1, #0
 800605e:	461a      	mov	r2, r3
 8006060:	3304      	adds	r3, #4
 8006062:	429f      	cmp	r7, r3
 8006064:	6011      	str	r1, [r2, #0]
 8006066:	d2fa      	bcs.n	800605e <__hexnan+0xce>
 8006068:	683b      	ldr	r3, [r7, #0]
 800606a:	b91b      	cbnz	r3, 8006074 <__hexnan+0xe4>
 800606c:	4547      	cmp	r7, r8
 800606e:	d128      	bne.n	80060c2 <__hexnan+0x132>
 8006070:	2301      	movs	r3, #1
 8006072:	603b      	str	r3, [r7, #0]
 8006074:	2005      	movs	r0, #5
 8006076:	b007      	add	sp, #28
 8006078:	e8bd 8ff0 	ldmia.w	sp!, {r4, r5, r6, r7, r8, r9, sl, fp, pc}
 800607c:	3501      	adds	r5, #1
 800607e:	2d08      	cmp	r5, #8
 8006080:	f10b 0b01 	add.w	fp, fp, #1
 8006084:	dd06      	ble.n	8006094 <__hexnan+0x104>
 8006086:	4544      	cmp	r4, r8
 8006088:	d9bf      	bls.n	800600a <__hexnan+0x7a>
 800608a:	2300      	movs	r3, #0
 800608c:	f844 3c04 	str.w	r3, [r4, #-4]
 8006090:	2501      	movs	r5, #1
 8006092:	3c04      	subs	r4, #4
 8006094:	6822      	ldr	r2, [r4, #0]
 8006096:	f000 000f 	and.w	r0, r0, #15
 800609a:	ea40 1002 	orr.w	r0, r0, r2, lsl #4
 800609e:	6020      	str	r0, [r4, #0]
 80060a0:	e7b3      	b.n	800600a <__hexnan+0x7a>
 80060a2:	2508      	movs	r5, #8
 80060a4:	e7b1      	b.n	800600a <__hexnan+0x7a>
 80060a6:	9b01      	ldr	r3, [sp, #4]
 80060a8:	2b00      	cmp	r3, #0
 80060aa:	d0dd      	beq.n	8006068 <__hexnan+0xd8>
 80060ac:	f1c3 0320 	rsb	r3, r3, #32
 80060b0:	f04f 32ff 	mov.w	r2, #4294967295
 80060b4:	40da      	lsrs	r2, r3
 80060b6:	f856 3c04 	ldr.w	r3, [r6, #-4]
 80060ba:	4013      	ands	r3, r2
 80060bc:	f846 3c04 	str.w	r3, [r6, #-4]
 80060c0:	e7d2      	b.n	8006068 <__hexnan+0xd8>
 80060c2:	3f04      	subs	r7, #4
 80060c4:	e7d0      	b.n	8006068 <__hexnan+0xd8>
 80060c6:	2004      	movs	r0, #4
 80060c8:	e7d5      	b.n	8006076 <__hexnan+0xe6>

080060ca <__ascii_mbtowc>:
 80060ca:	b082      	sub	sp, #8
 80060cc:	b901      	cbnz	r1, 80060d0 <__ascii_mbtowc+0x6>
 80060ce:	a901      	add	r1, sp, #4
 80060d0:	b142      	cbz	r2, 80060e4 <__ascii_mbtowc+0x1a>
 80060d2:	b14b      	cbz	r3, 80060e8 <__ascii_mbtowc+0x1e>
 80060d4:	7813      	ldrb	r3, [r2, #0]
 80060d6:	600b      	str	r3, [r1, #0]
 80060d8:	7812      	ldrb	r2, [r2, #0]
 80060da:	1e10      	subs	r0, r2, #0
 80060dc:	bf18      	it	ne
 80060de:	2001      	movne	r0, #1
 80060e0:	b002      	add	sp, #8
 80060e2:	4770      	bx	lr
 80060e4:	4610      	mov	r0, r2
 80060e6:	e7fb      	b.n	80060e0 <__ascii_mbtowc+0x16>
 80060e8:	f06f 0001 	mvn.w	r0, #1
 80060ec:	e7f8      	b.n	80060e0 <__ascii_mbtowc+0x16>

080060ee <_realloc_r>:
 80060ee:	e92d 41f0 	stmdb	sp!, {r4, r5, r6, r7, r8, lr}
 80060f2:	4607      	mov	r7, r0
 80060f4:	4614      	mov	r4, r2
 80060f6:	460d      	mov	r5, r1
 80060f8:	b921      	cbnz	r1, 8006104 <_realloc_r+0x16>
 80060fa:	e8bd 41f0 	ldmia.w	sp!, {r4, r5, r6, r7, r8, lr}
 80060fe:	4611      	mov	r1, r2
 8006100:	f7fd bcd4 	b.w	8003aac <_malloc_r>
 8006104:	b92a      	cbnz	r2, 8006112 <_realloc_r+0x24>
 8006106:	f7fd fc5d 	bl	80039c4 <_free_r>
 800610a:	4625      	mov	r5, r4
 800610c:	4628      	mov	r0, r5
 800610e:	e8bd 81f0 	ldmia.w	sp!, {r4, r5, r6, r7, r8, pc}
 8006112:	f000 f8c0 	bl	8006296 <_malloc_usable_size_r>
 8006116:	4284      	cmp	r4, r0
 8006118:	4606      	mov	r6, r0
 800611a:	d802      	bhi.n	8006122 <_realloc_r+0x34>
 800611c:	ebb4 0f50 	cmp.w	r4, r0, lsr #1
 8006120:	d8f4      	bhi.n	800610c <_realloc_r+0x1e>
 8006122:	4621      	mov	r1, r4
 8006124:	4638      	mov	r0, r7
 8006126:	f7fd fcc1 	bl	8003aac <_malloc_r>
 800612a:	4680      	mov	r8, r0
 800612c:	b908      	cbnz	r0, 8006132 <_realloc_r+0x44>
 800612e:	4645      	mov	r5, r8
 8006130:	e7ec      	b.n	800610c <_realloc_r+0x1e>
 8006132:	42b4      	cmp	r4, r6
 8006134:	4622      	mov	r2, r4
 8006136:	4629      	mov	r1, r5
 8006138:	bf28      	it	cs
 800613a:	4632      	movcs	r2, r6
 800613c:	f7ff fc42 	bl	80059c4 <memcpy>
 8006140:	4629      	mov	r1, r5
 8006142:	4638      	mov	r0, r7
 8006144:	f7fd fc3e 	bl	80039c4 <_free_r>
 8006148:	e7f1      	b.n	800612e <_realloc_r+0x40>

0800614a <__ascii_wctomb>:
 800614a:	4603      	mov	r3, r0
 800614c:	4608      	mov	r0, r1
 800614e:	b141      	cbz	r1, 8006162 <__ascii_wctomb+0x18>
 8006150:	2aff      	cmp	r2, #255	@ 0xff
 8006152:	d904      	bls.n	800615e <__ascii_wctomb+0x14>
 8006154:	228a      	movs	r2, #138	@ 0x8a
 8006156:	601a      	str	r2, [r3, #0]
 8006158:	f04f 30ff 	mov.w	r0, #4294967295
 800615c:	4770      	bx	lr
 800615e:	700a      	strb	r2, [r1, #0]
 8006160:	2001      	movs	r0, #1
 8006162:	4770      	bx	lr

08006164 <fiprintf>:
 8006164:	b40e      	push	{r1, r2, r3}
 8006166:	b503      	push	{r0, r1, lr}
 8006168:	4601      	mov	r1, r0
 800616a:	ab03      	add	r3, sp, #12
 800616c:	4805      	ldr	r0, [pc, #20]	@ (8006184 <fiprintf+0x20>)
 800616e:	f853 2b04 	ldr.w	r2, [r3], #4
 8006172:	6800      	ldr	r0, [r0, #0]
 8006174:	9301      	str	r3, [sp, #4]
 8006176:	f7ff f999 	bl	80054ac <_vfiprintf_r>
 800617a:	b002      	add	sp, #8
 800617c:	f85d eb04 	ldr.w	lr, [sp], #4
 8006180:	b003      	add	sp, #12
 8006182:	4770      	bx	lr
 8006184:	2000001c 	.word	0x2000001c

08006188 <__swhatbuf_r>:
 8006188:	b570      	push	{r4, r5, r6, lr}
 800618a:	460c      	mov	r4, r1
 800618c:	f9b1 100e 	ldrsh.w	r1, [r1, #14]
 8006190:	2900      	cmp	r1, #0
 8006192:	b096      	sub	sp, #88	@ 0x58
 8006194:	4615      	mov	r5, r2
 8006196:	461e      	mov	r6, r3
 8006198:	da0a      	bge.n	80061b0 <__swhatbuf_r+0x28>
 800619a:	89a1      	ldrh	r1, [r4, #12]
 800619c:	f011 0180 	ands.w	r1, r1, #128	@ 0x80
 80061a0:	d113      	bne.n	80061ca <__swhatbuf_r+0x42>
 80061a2:	f44f 6280 	mov.w	r2, #1024	@ 0x400
 80061a6:	2000      	movs	r0, #0
 80061a8:	6031      	str	r1, [r6, #0]
 80061aa:	602a      	str	r2, [r5, #0]
 80061ac:	b016      	add	sp, #88	@ 0x58
 80061ae:	bd70      	pop	{r4, r5, r6, pc}
 80061b0:	466a      	mov	r2, sp
 80061b2:	f000 f847 	bl	8006244 <_fstat_r>
 80061b6:	2800      	cmp	r0, #0
 80061b8:	dbef      	blt.n	800619a <__swhatbuf_r+0x12>
 80061ba:	9901      	ldr	r1, [sp, #4]
 80061bc:	f401 4170 	and.w	r1, r1, #61440	@ 0xf000
 80061c0:	f5a1 5300 	sub.w	r3, r1, #8192	@ 0x2000
 80061c4:	4259      	negs	r1, r3
 80061c6:	4159      	adcs	r1, r3
 80061c8:	e7eb      	b.n	80061a2 <__swhatbuf_r+0x1a>
 80061ca:	2100      	movs	r1, #0
 80061cc:	2240      	movs	r2, #64	@ 0x40
 80061ce:	e7ea      	b.n	80061a6 <__swhatbuf_r+0x1e>

080061d0 <__smakebuf_r>:
 80061d0:	898b      	ldrh	r3, [r1, #12]
 80061d2:	b573      	push	{r0, r1, r4, r5, r6, lr}
 80061d4:	079e      	lsls	r6, r3, #30
 80061d6:	4605      	mov	r5, r0
 80061d8:	460c      	mov	r4, r1
 80061da:	d507      	bpl.n	80061ec <__smakebuf_r+0x1c>
 80061dc:	f104 0347 	add.w	r3, r4, #71	@ 0x47
 80061e0:	6023      	str	r3, [r4, #0]
 80061e2:	6123      	str	r3, [r4, #16]
 80061e4:	2301      	movs	r3, #1
 80061e6:	6163      	str	r3, [r4, #20]
 80061e8:	b002      	add	sp, #8
 80061ea:	bd70      	pop	{r4, r5, r6, pc}
 80061ec:	ab01      	add	r3, sp, #4
 80061ee:	466a      	mov	r2, sp
 80061f0:	f7ff ffca 	bl	8006188 <__swhatbuf_r>
 80061f4:	9e00      	ldr	r6, [sp, #0]
 80061f6:	4628      	mov	r0, r5
 80061f8:	4631      	mov	r1, r6
 80061fa:	f7fd fc57 	bl	8003aac <_malloc_r>
 80061fe:	f9b4 300c 	ldrsh.w	r3, [r4, #12]
 8006202:	b938      	cbnz	r0, 8006214 <__smakebuf_r+0x44>
 8006204:	059a      	lsls	r2, r3, #22
 8006206:	d4ef      	bmi.n	80061e8 <__smakebuf_r+0x18>
 8006208:	f023 0303 	bic.w	r3, r3, #3
 800620c:	f043 0302 	orr.w	r3, r3, #2
 8006210:	81a3      	strh	r3, [r4, #12]
 8006212:	e7e3      	b.n	80061dc <__smakebuf_r+0xc>
 8006214:	f043 0380 	orr.w	r3, r3, #128	@ 0x80
 8006218:	81a3      	strh	r3, [r4, #12]
 800621a:	9b01      	ldr	r3, [sp, #4]
 800621c:	6020      	str	r0, [r4, #0]
 800621e:	e9c4 0604 	strd	r0, r6, [r4, #16]
 8006222:	2b00      	cmp	r3, #0
 8006224:	d0e0      	beq.n	80061e8 <__smakebuf_r+0x18>
 8006226:	f9b4 100e 	ldrsh.w	r1, [r4, #14]
 800622a:	4628      	mov	r0, r5
 800622c:	f000 f81c 	bl	8006268 <_isatty_r>
 8006230:	2800      	cmp	r0, #0
 8006232:	d0d9      	beq.n	80061e8 <__smakebuf_r+0x18>
 8006234:	89a3      	ldrh	r3, [r4, #12]
 8006236:	f023 0303 	bic.w	r3, r3, #3
 800623a:	f043 0301 	orr.w	r3, r3, #1
 800623e:	81a3      	strh	r3, [r4, #12]
 8006240:	e7d2      	b.n	80061e8 <__smakebuf_r+0x18>
	...

08006244 <_fstat_r>:
 8006244:	b538      	push	{r3, r4, r5, lr}
 8006246:	4d07      	ldr	r5, [pc, #28]	@ (8006264 <_fstat_r+0x20>)
 8006248:	2300      	movs	r3, #0
 800624a:	4604      	mov	r4, r0
 800624c:	4608      	mov	r0, r1
 800624e:	4611      	mov	r1, r2
 8006250:	602b      	str	r3, [r5, #0]
 8006252:	f7fb fc75 	bl	8001b40 <_fstat>
 8006256:	1c43      	adds	r3, r0, #1
 8006258:	d102      	bne.n	8006260 <_fstat_r+0x1c>
 800625a:	682b      	ldr	r3, [r5, #0]
 800625c:	b103      	cbz	r3, 8006260 <_fstat_r+0x1c>
 800625e:	6023      	str	r3, [r4, #0]
 8006260:	bd38      	pop	{r3, r4, r5, pc}
 8006262:	bf00      	nop
 8006264:	20000510 	.word	0x20000510

08006268 <_isatty_r>:
 8006268:	b538      	push	{r3, r4, r5, lr}
 800626a:	4d06      	ldr	r5, [pc, #24]	@ (8006284 <_isatty_r+0x1c>)
 800626c:	2300      	movs	r3, #0
 800626e:	4604      	mov	r4, r0
 8006270:	4608      	mov	r0, r1
 8006272:	602b      	str	r3, [r5, #0]
 8006274:	f7fb fc74 	bl	8001b60 <_isatty>
 8006278:	1c43      	adds	r3, r0, #1
 800627a:	d102      	bne.n	8006282 <_isatty_r+0x1a>
 800627c:	682b      	ldr	r3, [r5, #0]
 800627e:	b103      	cbz	r3, 8006282 <_isatty_r+0x1a>
 8006280:	6023      	str	r3, [r4, #0]
 8006282:	bd38      	pop	{r3, r4, r5, pc}
 8006284:	20000510 	.word	0x20000510

08006288 <abort>:
 8006288:	b508      	push	{r3, lr}
 800628a:	2006      	movs	r0, #6
 800628c:	f000 f834 	bl	80062f8 <raise>
 8006290:	2001      	movs	r0, #1
 8006292:	f7fb fc21 	bl	8001ad8 <_exit>

08006296 <_malloc_usable_size_r>:
 8006296:	f851 3c04 	ldr.w	r3, [r1, #-4]
 800629a:	1f18      	subs	r0, r3, #4
 800629c:	2b00      	cmp	r3, #0
 800629e:	bfbc      	itt	lt
 80062a0:	580b      	ldrlt	r3, [r1, r0]
 80062a2:	18c0      	addlt	r0, r0, r3
 80062a4:	4770      	bx	lr

080062a6 <_raise_r>:
 80062a6:	291f      	cmp	r1, #31
 80062a8:	b538      	push	{r3, r4, r5, lr}
 80062aa:	4605      	mov	r5, r0
 80062ac:	460c      	mov	r4, r1
 80062ae:	d904      	bls.n	80062ba <_raise_r+0x14>
 80062b0:	2316      	movs	r3, #22
 80062b2:	6003      	str	r3, [r0, #0]
 80062b4:	f04f 30ff 	mov.w	r0, #4294967295
 80062b8:	bd38      	pop	{r3, r4, r5, pc}
 80062ba:	6bc2      	ldr	r2, [r0, #60]	@ 0x3c
 80062bc:	b112      	cbz	r2, 80062c4 <_raise_r+0x1e>
 80062be:	f852 3021 	ldr.w	r3, [r2, r1, lsl #2]
 80062c2:	b94b      	cbnz	r3, 80062d8 <_raise_r+0x32>
 80062c4:	4628      	mov	r0, r5
 80062c6:	f000 f831 	bl	800632c <_getpid_r>
 80062ca:	4622      	mov	r2, r4
 80062cc:	4601      	mov	r1, r0
 80062ce:	4628      	mov	r0, r5
 80062d0:	e8bd 4038 	ldmia.w	sp!, {r3, r4, r5, lr}
 80062d4:	f000 b818 	b.w	8006308 <_kill_r>
 80062d8:	2b01      	cmp	r3, #1
 80062da:	d00a      	beq.n	80062f2 <_raise_r+0x4c>
 80062dc:	1c59      	adds	r1, r3, #1
 80062de:	d103      	bne.n	80062e8 <_raise_r+0x42>
 80062e0:	2316      	movs	r3, #22
 80062e2:	6003      	str	r3, [r0, #0]
 80062e4:	2001      	movs	r0, #1
 80062e6:	e7e7      	b.n	80062b8 <_raise_r+0x12>
 80062e8:	2100      	movs	r1, #0
 80062ea:	f842 1024 	str.w	r1, [r2, r4, lsl #2]
 80062ee:	4620      	mov	r0, r4
 80062f0:	4798      	blx	r3
 80062f2:	2000      	movs	r0, #0
 80062f4:	e7e0      	b.n	80062b8 <_raise_r+0x12>
	...

080062f8 <raise>:
 80062f8:	4b02      	ldr	r3, [pc, #8]	@ (8006304 <raise+0xc>)
 80062fa:	4601      	mov	r1, r0
 80062fc:	6818      	ldr	r0, [r3, #0]
 80062fe:	f7ff bfd2 	b.w	80062a6 <_raise_r>
 8006302:	bf00      	nop
 8006304:	2000001c 	.word	0x2000001c

08006308 <_kill_r>:
 8006308:	b538      	push	{r3, r4, r5, lr}
 800630a:	4d07      	ldr	r5, [pc, #28]	@ (8006328 <_kill_r+0x20>)
 800630c:	2300      	movs	r3, #0
 800630e:	4604      	mov	r4, r0
 8006310:	4608      	mov	r0, r1
 8006312:	4611      	mov	r1, r2
 8006314:	602b      	str	r3, [r5, #0]
 8006316:	f7fb fbcf 	bl	8001ab8 <_kill>
 800631a:	1c43      	adds	r3, r0, #1
 800631c:	d102      	bne.n	8006324 <_kill_r+0x1c>
 800631e:	682b      	ldr	r3, [r5, #0]
 8006320:	b103      	cbz	r3, 8006324 <_kill_r+0x1c>
 8006322:	6023      	str	r3, [r4, #0]
 8006324:	bd38      	pop	{r3, r4, r5, pc}
 8006326:	bf00      	nop
 8006328:	20000510 	.word	0x20000510

0800632c <_getpid_r>:
 800632c:	f7fb bbbc 	b.w	8001aa8 <_getpid>

08006330 <_init>:
 8006330:	b5f8      	push	{r3, r4, r5, r6, r7, lr}
 8006332:	bf00      	nop
 8006334:	bcf8      	pop	{r3, r4, r5, r6, r7}
 8006336:	bc08      	pop	{r3}
 8006338:	469e      	mov	lr, r3
 800633a:	4770      	bx	lr

0800633c <_fini>:
 800633c:	b5f8      	push	{r3, r4, r5, r6, r7, lr}
 800633e:	bf00      	nop
 8006340:	bcf8      	pop	{r3, r4, r5, r6, r7}
 8006342:	bc08      	pop	{r3}
 8006344:	469e      	mov	lr, r3
 8006346:	4770      	bx	lr
